(dp1
S'files'
p2
(dp3
S'_Library_Python_2_7_site-packages_django_utils_decorators'
p4
(dp5
S'index'
p6
(dp7
S'html_filename'
p8
S'_Library_Python_2_7_site-packages_django_utils_decorators.html'
p9
sS'name'
p10
S'/Library/Python/2.7/site-packages/django/utils/decorators'
p11
sS'nums'
p12
ccopy_reg
_reconstructor
p13
(ccoverage.results
Numbers
p14
c__builtin__
object
p15
NtRp16
(dp17
S'n_files'
p18
I1
sS'n_branches'
p19
I0
sS'n_statements'
p20
I59
sS'n_excluded'
p21
I0
sS'n_partial_branches'
p22
I0
sS'n_missing'
p23
I33
sS'n_missing_branches'
p24
I0
sbssS'hash'
p25
S'\xd4C\xaf\x8d\xf9z (\xa8J9\xf4\x84\x8eHg'
p26
ssS'_Library_Python_2_7_site-packages_django_db_models_query'
p27
(dp28
g6
(dp29
g8
S'_Library_Python_2_7_site-packages_django_db_models_query.html'
p30
sg10
S'/Library/Python/2.7/site-packages/django/db/models/query'
p31
sg12
g13
(g14
g15
NtRp32
(dp33
g18
I1
sg19
I0
sg20
I925
sg21
I0
sg22
I0
sg23
I613
sg24
I0
sbssg25
S'\x0b\x08\xfe\xda\x92\xe6\x98 :7\x89:RkG\x82'
p34
ssS'_Library_Python_2_7_site-packages_django_dispatch_dispatcher'
p35
(dp36
g6
(dp37
g8
S'_Library_Python_2_7_site-packages_django_dispatch_dispatcher.html'
p38
sg10
S'/Library/Python/2.7/site-packages/django/dispatch/dispatcher'
p39
sg12
g13
(g14
g15
NtRp40
(dp41
g18
I1
sg19
I0
sg20
I101
sg21
I0
sg22
I0
sg23
I45
sg24
I0
sbssg25
S'S\xca\xfe\x8e\xc3Q\r\xc6K\xabIi\x11\xda\x9e#'
p42
ssS'_Library_Python_2_7_site-packages_south_hacks_django_1_0'
p43
(dp44
S'index'
p45
(dp46
g8
S'_Library_Python_2_7_site-packages_south_hacks_django_1_0.html'
p47
sg10
S'/Library/Python/2.7/site-packages/south/hacks/django_1_0'
p48
sg12
g13
(g14
g15
NtRp49
(dp50
g18
I1
sg19
I0
sg20
I48
sg21
I0
sg22
I0
sg23
I20
sg24
I0
sbssS'hash'
p51
S'\xcf\xe2\xeeD\x8d-\xcd\x0e,\x91\xad\x8b1)\xfd\x9a'
p52
ssS'_Library_Python_2_7_site-packages_django_core_files_temp'
p53
(dp54
g6
(dp55
S'html_filename'
p56
S'_Library_Python_2_7_site-packages_django_core_files_temp.html'
p57
sS'name'
p58
S'/Library/Python/2.7/site-packages/django/core/files/temp'
p59
sS'nums'
p60
g13
(g14
g15
NtRp61
(dp62
g18
I1
sg19
I0
sg20
I28
sg21
I0
sg22
I0
sg23
I21
sg24
I0
sbssg25
S'\x14%Z\x18\x8e\x18K\xa3Y\x1f\xa7\x988\xdc)X'
p63
ssS'_Library_Python_2_7_site-packages_django_db_models_manager'
p64
(dp65
g6
(dp66
g8
S'_Library_Python_2_7_site-packages_django_db_models_manager.html'
p67
sg10
S'/Library/Python/2.7/site-packages/django/db/models/manager'
p68
sg12
g13
(g14
g15
NtRp69
(dp70
g18
I1
sg19
I0
sg20
I139
sg21
I0
sg22
I0
sg23
I43
sg24
I0
sbssg25
S'\xe7}j\xe7\xaa&]\xcf\x87\xccb\xe5\x98mhb'
p71
ssS'_Library_Python_2_7_site-packages_south_migration_migrators'
p72
(dp73
g45
(dp74
g8
S'_Library_Python_2_7_site-packages_south_migration_migrators.html'
p75
sg10
S'/Library/Python/2.7/site-packages/south/migration/migrators'
p76
sg12
g13
(g14
g15
NtRp77
(dp78
g18
I1
sg19
I0
sg20
I231
sg21
I0
sg22
I0
sg23
I165
sg24
I0
sbssg51
S'!\xbe\x94\xc9o\x81\x91\x17\xd2\x10\xbf\x1b\n\xf4\x18\x98'
p79
ssS'_Library_Python_2_7_site-packages_django_utils_dates'
p80
(dp81
g6
(dp82
g56
S'_Library_Python_2_7_site-packages_django_utils_dates.html'
p83
sg58
S'/Library/Python/2.7/site-packages/django/utils/dates'
p84
sg60
g13
(g14
g15
NtRp85
(dp86
g18
I1
sg19
I0
sg20
I9
sg21
I0
sg22
I0
sg23
I0
sg24
I0
sbssg25
S'\xed\xe1n\x81\x12\xc1\xc6\x8b\xd8\x98O4:mTA'
p87
ssS'_Library_Python_2_7_site-packages_django_db_models_sql_subqueries'
p88
(dp89
g6
(dp90
g8
S'_Library_Python_2_7_site-packages_django_db_models_sql_subqueries.html'
p91
sg10
S'/Library/Python/2.7/site-packages/django/db/models/sql/subqueries'
p92
sg12
g13
(g14
g15
NtRp93
(dp94
g18
I1
sg19
I0
sg20
I113
sg21
I0
sg22
I0
sg23
I60
sg24
I0
sbssg25
S"(\xa1\xff\x97%'\x7fG)\x08\xd4<\xf0\xa1'1"
p95
ssS'_Library_Python_2_7_site-packages_south_management_commands_migrate'
p96
(dp97
g45
(dp98
g8
S'_Library_Python_2_7_site-packages_south_management_commands_migrate.html'
p99
sg10
S'/Library/Python/2.7/site-packages/south/management/commands/migrate'
p100
sg12
g13
(g14
g15
NtRp101
(dp102
g18
I1
sg19
I0
sg20
I123
sg21
I0
sg22
I0
sg23
I91
sg24
I0
sbssg51
S'd\xc5=\xaf\xd6G\xbaJ\x1c\xc0\xce]k\xa8\x18\xa1'
p103
ssS'_Library_Python_2_7_site-packages_django_db_models_aggregates'
p104
(dp105
g6
(dp106
g56
S'_Library_Python_2_7_site-packages_django_db_models_aggregates.html'
p107
sg58
S'/Library/Python/2.7/site-packages/django/db/models/aggregates'
p108
sg60
g13
(g14
g15
NtRp109
(dp110
g18
I1
sg19
I0
sg20
I25
sg21
I0
sg22
I0
sg23
I6
sg24
I0
sbssg25
S'TO\x1e/\xbc\x9c\x17\xc0\xd4\xad\xd9\xae\xc4\\\xa4I'
p111
ssS'_Library_Python_2_7_site-packages_django_db_backends_postgresql_psycopg2_version'
p112
(dp113
g6
(dp114
g8
S'_Library_Python_2_7_site-packages_django_db_backends_postgresql_psycopg2_version.html'
p115
sg10
S'/Library/Python/2.7/site-packages/django/db/backends/postgresql_psycopg2/version'
p116
sg12
g13
(g14
g15
NtRp117
(dp118
g18
I1
sg19
I0
sg20
I14
sg21
I0
sg22
I0
sg23
I8
sg24
I0
sbssg25
S'\xa8n\xb3&\xe2\xd0\x98\x7f\xee#\x05\x97\xa4\xb9\xf54'
p119
ssS'_Library_Python_2_7_site-packages_south_management_commands___init__'
p120
(dp121
g45
(dp122
g8
S'_Library_Python_2_7_site-packages_south_management_commands___init__.html'
p123
sg10
S'/Library/Python/2.7/site-packages/south/management/commands/__init__'
p124
sg12
g13
(g14
g15
NtRp125
(dp126
g18
I1
sg19
I0
sg20
I18
sg21
I0
sg22
I0
sg23
I1
sg24
I0
sbssg51
S'b&]\x8bu\x13\xcde\x13\xe0\xdc1\xc1\xe6B|'
p127
ssS'_Library_Python_2_7_site-packages_django_core_management_sql'
p128
(dp129
g45
(dp130
g8
S'_Library_Python_2_7_site-packages_django_core_management_sql.html'
p131
sg10
S'/Library/Python/2.7/site-packages/django/core/management/sql'
p132
sg12
g13
(g14
g15
NtRp133
(dp134
g18
I1
sg19
I0
sg20
I107
sg21
I0
sg22
I0
sg23
I76
sg24
I0
sbssg51
S'\xf7v;\xcd\x12\xa3\xdc\x13\x8a\x89\xe5l\xe3\xcc`\x9d'
p135
ssS'_Library_Python_2_7_site-packages_django_contrib_auth_hashers'
p136
(dp137
g45
(dp138
g8
S'_Library_Python_2_7_site-packages_django_contrib_auth_hashers.html'
p139
sg10
S'/Library/Python/2.7/site-packages/django/contrib/auth/hashers'
p140
sg12
g13
(g14
g15
NtRp141
(dp142
g18
I1
sg19
I0
sg20
I200
sg21
I0
sg22
I0
sg23
I134
sg24
I0
sbssg51
S':\x81\xf2h\xfaUD\xd8\xa9\xd3K\xbaz\xceY\xf6'
p143
ssS'_Library_Python_2_7_site-packages_django_test_simple'
p144
(dp145
g6
(dp146
S'html_filename'
p147
S'_Library_Python_2_7_site-packages_django_test_simple.html'
p148
sS'name'
p149
S'/Library/Python/2.7/site-packages/django/test/simple'
p150
sS'nums'
p151
g13
(g14
g15
NtRp152
(dp153
g18
I1
sg19
I0
sg20
I198
sg21
I0
sg22
I0
sg23
I72
sg24
I0
sbssg25
S'\x92\xa3\xaccV,\xdf\x8f.\xef\x96<\xe4i\xd6~'
p154
ssS'_Library_Python_2_7_site-packages_django_utils_tzinfo'
p155
(dp156
g6
(dp157
g56
S'_Library_Python_2_7_site-packages_django_utils_tzinfo.html'
p158
sg58
S'/Library/Python/2.7/site-packages/django/utils/tzinfo'
p159
sg60
g13
(g14
g15
NtRp160
(dp161
g18
I1
sg19
I0
sg20
I52
sg21
I0
sg22
I0
sg23
I34
sg24
I0
sbssg25
S'J\x85\xf4\xb5CA45\x13xif\xcd\x822M'
p162
ssS'_Library_Python_2_7_site-packages_south_management_commands_syncdb'
p163
(dp164
g45
(dp165
g8
S'_Library_Python_2_7_site-packages_south_management_commands_syncdb.html'
p166
sg10
S'/Library/Python/2.7/site-packages/south/management/commands/syncdb'
p167
sg12
g13
(g14
g15
NtRp168
(dp169
g18
I1
sg19
I0
sg20
I65
sg21
I0
sg22
I0
sg23
I13
sg24
I0
sbssg51
S'\r\xf5\n\xc4U-\x96X\xea]\xed\xf4-\xa0\xb5 '
p170
ssS'_Library_Python_2_7_site-packages_django_views_static'
p171
(dp172
g6
(dp173
g56
S'_Library_Python_2_7_site-packages_django_views_static.html'
p174
sg58
S'/Library/Python/2.7/site-packages/django/views/static'
p175
sg60
g13
(g14
g15
NtRp176
(dp177
g18
I1
sg19
I0
sg20
I74
sg21
I0
sg22
I0
sg23
I58
sg24
I0
sbssg25
S'\xc03WiA\xf43pq\xf8\xbc\x92?\xc6~\xa2'
p178
ssS'_Library_Python_2_7_site-packages_django_test_client'
p179
(dp180
g6
(dp181
g56
S'_Library_Python_2_7_site-packages_django_test_client.html'
p182
sg58
S'/Library/Python/2.7/site-packages/django/test/client'
p183
sg60
g13
(g14
g15
NtRp184
(dp185
g18
I1
sg19
I0
sg20
I260
sg21
I0
sg22
I0
sg23
I195
sg24
I0
sbssg25
S'O\xed`)\xcf.z\x08\x02\xa4\x82\x15f\x7f\x0e}'
p186
ssS'_Library_Python_2_7_site-packages_django_db_models_fields_proxy'
p187
(dp188
g6
(dp189
g56
S'_Library_Python_2_7_site-packages_django_db_models_fields_proxy.html'
p190
sg58
S'/Library/Python/2.7/site-packages/django/db/models/fields/proxy'
p191
sg60
g13
(g14
g15
NtRp192
(dp193
g18
I1
sg19
I0
sg20
I6
sg21
I0
sg22
I0
sg23
I3
sg24
I0
sbssg25
S'\xaf:\xd7\xa5\xadun\x1b\xb7\x141\x81\x80j\x94\xe6'
p194
ssS'_Library_Python_2_7_site-packages_django_utils_html'
p195
(dp196
g6
(dp197
g56
S'_Library_Python_2_7_site-packages_django_utils_html.html'
p198
sg58
S'/Library/Python/2.7/site-packages/django/utils/html'
p199
sg60
g13
(g14
g15
NtRp200
(dp201
g18
I1
sg19
I0
sg20
I133
sg21
I0
sg22
I0
sg23
I89
sg24
I0
sbssg25
S'\x16y \nh\x14<P\x87\x1b0\x11\xeeh]\xec'
p202
ssS'_Library_Python_2_7_site-packages_django_contrib_staticfiles_models'
p203
(dp204
g45
(dp205
g8
S'_Library_Python_2_7_site-packages_django_contrib_staticfiles_models.html'
p206
sg10
S'/Library/Python/2.7/site-packages/django/contrib/staticfiles/models'
p207
sg12
g13
(g14
g15
NtRp208
(dp209
g18
I1
sg19
I0
sg20
I0
sg21
I0
sg22
I0
sg23
I0
sg24
I0
sbssg51
S'\xb0\xc8pN\xaf>\xa0\xbaz\x144\xe0A9\xb8?'
p210
ssS'_Library_Python_2_7_site-packages_django___init__'
p211
(dp212
g6
(dp213
g56
S'_Library_Python_2_7_site-packages_django___init__.html'
p214
sg58
S'/Library/Python/2.7/site-packages/django/__init__'
p215
sg60
g13
(g14
g15
NtRp216
(dp217
g18
I1
sg19
I0
sg20
I18
sg21
I0
sg22
I0
sg23
I6
sg24
I0
sbssg25
S'\xf0\x13?\xd9\xba.\xecb\x02\xbc\xc7\x99)\xd7:\xea'
p218
ssS'_Library_Python_2_7_site-packages_django_db_backends_signals'
p219
(dp220
g6
(dp221
g56
S'_Library_Python_2_7_site-packages_django_db_backends_signals.html'
p222
sg58
S'/Library/Python/2.7/site-packages/django/db/backends/signals'
p223
sg60
g13
(g14
g15
NtRp224
(dp225
g18
I1
sg19
I0
sg20
I2
sg21
I0
sg22
I0
sg23
I0
sg24
I0
sbssg25
S'\xac\xe8\xc0\xe9\x8a\xd9d\xcc\x03\xc1\x89\xd4\xde\xa8x<'
p226
ssS'_Library_Python_2_7_site-packages_django_utils_datetime_safe'
p227
(dp228
g6
(dp229
g56
S'_Library_Python_2_7_site-packages_django_utils_datetime_safe.html'
p230
sg58
S'/Library/Python/2.7/site-packages/django/utils/datetime_safe'
p231
sg60
g13
(g14
g15
NtRp232
(dp233
g18
I1
sg19
I0
sg20
I56
sg21
I0
sg22
I0
sg23
I42
sg24
I0
sbssg25
S'\xcf\x16v\x83I\x1c\x906G\x91=\xec\x94\xfdf\xbe'
p234
ssS'_Library_Python_2_7_site-packages_django_http___init__'
p235
(dp236
g6
(dp237
g8
S'_Library_Python_2_7_site-packages_django_http___init__.html'
p238
sg10
S'/Library/Python/2.7/site-packages/django/http/__init__'
p239
sg12
g13
(g14
g15
NtRp240
(dp241
g18
I1
sg19
I0
sg20
I496
sg21
I0
sg22
I0
sg23
I316
sg24
I0
sbssg25
S'\xfe\x98v\xc5\xc6C\xa0:a\xcc\xd2oF\xbcy\x9a'
p242
ssS'_Library_Python_2_7_site-packages_django_utils_simplejson___init__'
p243
(dp244
g6
(dp245
g56
S'_Library_Python_2_7_site-packages_django_utils_simplejson___init__.html'
p246
sg58
S'/Library/Python/2.7/site-packages/django/utils/simplejson/__init__'
p247
sg60
g13
(g14
g15
NtRp248
(dp249
g18
I1
sg19
I0
sg20
I54
sg21
I0
sg22
I0
sg23
I39
sg24
I0
sbssg25
S"\xe5$x;'\x91@\x12\x06\xab)\x0c\x93\xca\xbde"
p250
ssS'_Library_Python_2_7_site-packages_django_core_management_commands_flush'
p251
(dp252
g45
(dp253
g8
S'_Library_Python_2_7_site-packages_django_core_management_commands_flush.html'
p254
sg10
S'/Library/Python/2.7/site-packages/django/core/management/commands/flush'
p255
sg12
g13
(g14
g15
NtRp256
(dp257
g18
I1
sg19
I0
sg20
I43
sg21
I0
sg22
I0
sg23
I31
sg24
I0
sbssg51
S'#jK\xce\x08\xd5\x8a\x8b\xac\xc6\x8c\x97\rC\xe0\x08'
p258
ssS'_Library_Python_2_7_site-packages_django_core_management_commands_syncdb'
p259
(dp260
g45
(dp261
g8
S'_Library_Python_2_7_site-packages_django_core_management_commands_syncdb.html'
p262
sg10
S'/Library/Python/2.7/site-packages/django/core/management/commands/syncdb'
p263
sg12
g13
(g14
g15
NtRp264
(dp265
g18
I1
sg19
I0
sg20
I100
sg21
I0
sg22
I0
sg23
I25
sg24
I0
sbssg51
S'\x8b.\xe7\xcb\xf35\xd5\xb0\xef/\xd5w\xc3\xf4I\xe9'
p266
ssS'_Library_Python_2_7_site-packages_django_contrib_admin_forms'
p267
(dp268
g45
(dp269
g8
S'_Library_Python_2_7_site-packages_django_contrib_admin_forms.html'
p270
sg10
S'/Library/Python/2.7/site-packages/django/contrib/admin/forms'
p271
sg12
g13
(g14
g15
NtRp272
(dp273
g18
I1
sg19
I0
sg20
I27
sg21
I0
sg22
I0
sg23
I18
sg24
I0
sbssg51
S'\xde\xbf\x04\xd5\xeb\xcbdH\xcc\x8d\xbb\n\xcd\xd1\xa0\x98'
p274
ssS'_Library_Python_2_7_site-packages_django_db_backends___init__'
p275
(dp276
g6
(dp277
g8
S'_Library_Python_2_7_site-packages_django_db_backends___init__.html'
p278
sg10
S'/Library/Python/2.7/site-packages/django/db/backends/__init__'
p279
sg12
g13
(g14
g15
NtRp280
(dp281
g18
I1
sg19
I0
sg20
I428
sg21
I0
sg22
I0
sg23
I166
sg24
I0
sbssg25
S'\xc6\xcf=Y\xc1\xd5\xad V8\xf4\xd8M\x04s\x97'
p282
ssS'_Library_Python_2_7_site-packages_django_utils___init__'
p283
(dp284
g6
(dp285
g56
S'_Library_Python_2_7_site-packages_django_utils___init__.html'
p286
sg58
S'/Library/Python/2.7/site-packages/django/utils/__init__'
p287
sg60
g13
(g14
g15
NtRp288
(dp289
g18
I1
sg19
I0
sg20
I0
sg21
I0
sg22
I0
sg23
I0
sg24
I0
sbssg25
S'\xb0\xc8pN\xaf>\xa0\xbaz\x144\xe0A9\xb8?'
p290
ssS'_Library_Python_2_7_site-packages_django_utils_timezone'
p291
(dp292
g6
(dp293
g8
S'_Library_Python_2_7_site-packages_django_utils_timezone.html'
p294
sg10
S'/Library/Python/2.7/site-packages/django/utils/timezone'
p295
sg12
g13
(g14
g15
NtRp296
(dp297
g18
I1
sg19
I0
sg20
I110
sg21
I0
sg22
I0
sg23
I63
sg24
I0
sbssg25
S'b\x8f\xd3fy\xd8\xd9\xd8\xc5d6\x00\xa3e\xdf\xac'
p298
ssS'_Library_Python_2_7_site-packages_django_core_files_utils'
p299
(dp300
g6
(dp301
g56
S'_Library_Python_2_7_site-packages_django_core_files_utils.html'
p302
sg58
S'/Library/Python/2.7/site-packages/django/core/files/utils'
p303
sg60
g13
(g14
g15
NtRp304
(dp305
g18
I1
sg19
I0
sg20
I19
sg21
I0
sg22
I0
sg23
I1
sg24
I0
sbssg25
S'\x91@)\xe4(\x81\xd6\xb8\x9b\x16\xc4\xeeh\x11e\xff'
p306
ssS'_Library_Python_2_7_site-packages_django_db_models_options'
p307
(dp308
g6
(dp309
g8
S'_Library_Python_2_7_site-packages_django_db_models_options.html'
p310
sg10
S'/Library/Python/2.7/site-packages/django/db/models/options'
p311
sg12
g13
(g14
g15
NtRp312
(dp313
g18
I1
sg19
I0
sg20
I319
sg21
I0
sg22
I0
sg23
I84
sg24
I0
sbssg25
S'\xb1\x18\xee\x00\x1a\xb9<3B\x12\xd2\xd3\x19D+\xa4'
p314
ssS'_Library_Python_2_7_site-packages_django_db_models_sql_query'
p315
(dp316
g6
(dp317
g8
S'_Library_Python_2_7_site-packages_django_db_models_sql_query.html'
p318
sg10
S'/Library/Python/2.7/site-packages/django/db/models/sql/query'
p319
sg12
g13
(g14
g15
NtRp320
(dp321
g18
I1
sg19
I0
sg20
I1041
sg21
I0
sg22
I0
sg23
I579
sg24
I0
sbssg25
S'\x89l\x00\xca\x18|\xc3\x1d\xc3-\n*\x87l\x06\x1e'
p322
ssS'_Library_Python_2_7_site-packages_django_db_backends_util'
p323
(dp324
g6
(dp325
g8
S'_Library_Python_2_7_site-packages_django_db_backends_util.html'
p326
sg10
S'/Library/Python/2.7/site-packages/django/db/backends/util'
p327
sg12
g13
(g14
g15
NtRp328
(dp329
g18
I1
sg19
I0
sg20
I93
sg21
I0
sg22
I0
sg23
I62
sg24
I0
sbssg25
S'\x9cGE\xe0r\xef]p\x05\xd5K\xd6\x92j\x90\x9d'
p330
ssS'_Library_Python_2_7_site-packages_south___init__'
p331
(dp332
g45
(dp333
g8
S'_Library_Python_2_7_site-packages_south___init__.html'
p334
sg10
S'/Library/Python/2.7/site-packages/south/__init__'
p335
sg12
g13
(g14
g15
NtRp336
(dp337
g18
I1
sg19
I0
sg20
I2
sg21
I0
sg22
I0
sg23
I0
sg24
I0
sbssg51
S'2P\xd7RK.\x97\xb6\xc8\xb4\xc183\x03\xb2\x13'
p338
ssS'_Library_Python_2_7_site-packages_django_db_models_sql_where'
p339
(dp340
g6
(dp341
g8
S'_Library_Python_2_7_site-packages_django_db_models_sql_where.html'
p342
sg10
S'/Library/Python/2.7/site-packages/django/db/models/sql/where'
p343
sg12
g13
(g14
g15
NtRp344
(dp345
g18
I1
sg19
I0
sg20
I198
sg21
I0
sg22
I0
sg23
I84
sg24
I0
sbssg25
S'E\xec\x84\xdf\xd2vAu\x19\x01g\xd7\xb1H\xf1\x8e'
p346
ssS'_Library_Python_2_7_site-packages_django_template_base'
p347
(dp348
g6
(dp349
g8
S'_Library_Python_2_7_site-packages_django_template_base.html'
p350
sg10
S'/Library/Python/2.7/site-packages/django/template/base'
p351
sg12
g13
(g14
g15
NtRp352
(dp353
g18
I1
sg19
I0
sg20
I770
sg21
I0
sg22
I0
sg23
I557
sg24
I0
sbssg25
S'\xe3\x8b\xabY\x12\xaa\xad\xea\x89t\xb4o+f\x05\x15'
p354
ssS'_Library_Python_2_7_site-packages_django_utils_timesince'
p355
(dp356
g6
(dp357
g56
S'_Library_Python_2_7_site-packages_django_utils_timesince.html'
p358
sg58
S'/Library/Python/2.7/site-packages/django/utils/timesince'
p359
sg60
g13
(g14
g15
NtRp360
(dp361
g18
I1
sg19
I0
sg20
I28
sg21
I0
sg22
I0
sg23
I23
sg24
I0
sbssg25
S'\xfd1-5\xb5\xd0-~\xd5u\xc2\xb4/\xe6"0'
p362
ssS'_Library_Python_2_7_site-packages_django_forms_widgets'
p363
(dp364
g6
(dp365
g8
S'_Library_Python_2_7_site-packages_django_forms_widgets.html'
p366
sg10
S'/Library/Python/2.7/site-packages/django/forms/widgets'
p367
sg12
g13
(g14
g15
NtRp368
(dp369
g18
I1
sg19
I0
sg20
I559
sg21
I0
sg22
I0
sg23
I381
sg24
I0
sbssg25
S'D\xb0[]\x8a\x00\x86\xc8\xfe\xa2\x0f\x92\x9e\x8d\x8b3'
p370
ssS'_Library_Python_2_7_site-packages_django_contrib_sites_models'
p371
(dp372
g45
(dp373
g8
S'_Library_Python_2_7_site-packages_django_contrib_sites_models.html'
p374
sg10
S'/Library/Python/2.7/site-packages/django/contrib/sites/models'
p375
sg12
g13
(g14
g15
NtRp376
(dp377
g18
I1
sg19
I0
sg20
I55
sg21
I0
sg22
I0
sg23
I28
sg24
I0
sbssg51
S"\xea\x872\xf1'e3H\x04\xc9\x8d\x18;WZg"
p378
ssS'_Library_Python_2_7_site-packages_django_db_models_signals'
p379
(dp380
g6
(dp381
g56
S'_Library_Python_2_7_site-packages_django_db_models_signals.html'
p382
sg58
S'/Library/Python/2.7/site-packages/django/db/models/signals'
p383
sg60
g13
(g14
g15
NtRp384
(dp385
g18
I1
sg19
I0
sg20
I10
sg21
I0
sg22
I0
sg23
I0
sg24
I0
sbssg25
S'\xe2\x06\xfb\xdd\xac\xd4\xb2\xf8\\\x98T_\xb1W-\x19'
p386
ssS'_Library_Python_2_7_site-packages_django_utils_cache'
p387
(dp388
g45
(dp389
g8
S'_Library_Python_2_7_site-packages_django_utils_cache.html'
p390
sg10
S'/Library/Python/2.7/site-packages/django/utils/cache'
p391
sg12
g13
(g14
g15
NtRp392
(dp393
g18
I1
sg19
I0
sg20
I124
sg21
I0
sg22
I0
sg23
I101
sg24
I0
sbssg51
S'qc4\xc9\x18\xe4\x19"D\x96\xf9\x19\x0e\xac\xe3\xea'
p394
ssS'_Library_Python_2_7_site-packages_django_core_cache___init__'
p395
(dp396
g6
(dp397
g56
S'_Library_Python_2_7_site-packages_django_core_cache___init__.html'
p398
sg58
S'/Library/Python/2.7/site-packages/django/core/cache/__init__'
p399
sg60
g13
(g14
g15
NtRp400
(dp401
g18
I1
sg19
I0
sg20
I83
sg21
I0
sg22
I0
sg23
I29
sg24
I0
sbssg25
S'\x03J\xd1\xea9s5\xa2\x1c\xd2\x9d|J\xbeu\xb9'
p402
ssS'_Library_Python_2_7_site-packages_django_dispatch_saferef'
p403
(dp404
g6
(dp405
g56
S'_Library_Python_2_7_site-packages_django_dispatch_saferef.html'
p406
sg58
S'/Library/Python/2.7/site-packages/django/dispatch/saferef'
p407
sg60
g13
(g14
g15
NtRp408
(dp409
g18
I1
sg19
I0
sg20
I80
sg21
I0
sg22
I0
sg23
I59
sg24
I0
sbssg25
S'\xb8\xa2)1-\x80o\x8bm\x1e\x0bO\xe5\x12*\xd8'
p410
ssS'_Library_Python_2_7_site-packages_django_conf___init__'
p411
(dp412
g6
(dp413
g56
S'_Library_Python_2_7_site-packages_django_conf___init__.html'
p414
sg58
S'/Library/Python/2.7/site-packages/django/conf/__init__'
p415
sg60
g13
(g14
g15
NtRp416
(dp417
g18
I1
sg19
I0
sg20
I85
sg21
I0
sg22
I0
sg23
I28
sg24
I0
sbssg25
S'\xde\x01%5C\xac\xc9\xac\xb3\x10T\x7f`\xf7,r'
p418
ssS'_Library_Python_2_7_site-packages_south_migration_base'
p419
(dp420
g45
(dp421
g8
S'_Library_Python_2_7_site-packages_south_migration_base.html'
p422
sg10
S'/Library/Python/2.7/site-packages/south/migration/base'
p423
sg12
g13
(g14
g15
NtRp424
(dp425
g18
I1
sg19
I0
sg20
I274
sg21
I0
sg22
I0
sg23
I167
sg24
I0
sbssg51
S'\xd1\xc0z\xbd\xb1;=\x0b\xe8\x96\xfbSeL\xab\x0e'
p426
ssS'_Library_Python_2_7_site-packages_django_core_files_move'
p427
(dp428
g6
(dp429
g56
S'_Library_Python_2_7_site-packages_django_core_files_move.html'
p430
sg58
S'/Library/Python/2.7/site-packages/django/core/files/move'
p431
sg60
g13
(g14
g15
NtRp432
(dp433
g18
I1
sg19
I0
sg20
I47
sg21
I0
sg22
I0
sg23
I40
sg24
I0
sbssg25
S'y\\\xb7\x8a\xe3\xc5u\x9bK\xa2(CK\x07Q\x90'
p434
ssS'_Library_Python_2_7_site-packages_django_test__doctest'
p435
(dp436
g6
(dp437
g147
S'_Library_Python_2_7_site-packages_django_test__doctest.html'
p438
sg149
S'/Library/Python/2.7/site-packages/django/test/_doctest'
p439
sg151
g13
(g14
g15
NtRp440
(dp441
g18
I1
sg19
I0
sg20
I896
sg21
I0
sg22
I0
sg23
I753
sg24
I0
sbssg25
S'kv{\xa3w\xeb\x05&\xc6\xc6\xecEb\x90\x00\xf9'
p442
ssS'carpoolapp_views'
p443
(dp444
g45
(dp445
S'html_filename'
p446
S'carpoolapp_views.html'
p447
sS'name'
p448
S'carpoolapp/views'
p449
sS'nums'
p450
g13
(g14
g15
NtRp451
(dp452
g18
I1
sg19
I0
sg20
I776
sg21
I0
sg22
I0
sg23
I459
sg24
I0
sbssg51
S"CO\x15'T\xc4\xd3\xc5\xf8\xabN\x84\x8c\x96\xb4V"
p453
ssS'_Library_Python_2_7_site-packages_django_middleware_cache'
p454
(dp455
g45
(dp456
g8
S'_Library_Python_2_7_site-packages_django_middleware_cache.html'
p457
sg10
S'/Library/Python/2.7/site-packages/django/middleware/cache'
p458
sg12
g13
(g14
g15
NtRp459
(dp460
g18
I1
sg19
I0
sg20
I91
sg21
I0
sg22
I0
sg23
I78
sg24
I0
sbssg51
S'j\xd2\xba\xdeY|T\xd2\xe2\x10\x1c\x7f\xe4m\x0c\x02'
p461
ssS'_Library_Python_2_7_site-packages_django_forms_util'
p462
(dp463
g6
(dp464
g56
S'_Library_Python_2_7_site-packages_django_forms_util.html'
p465
sg58
S'/Library/Python/2.7/site-packages/django/forms/util'
p466
sg60
g13
(g14
g15
NtRp467
(dp468
g18
I1
sg19
I0
sg20
I41
sg21
I0
sg22
I0
sg23
I22
sg24
I0
sbssg25
S'\xd5\xdd\xf1\x0c1\x8a\rz"\xf1\xc5\'q\xb3EH'
p469
ssS'_Library_Python_2_7_site-packages_django_utils_termcolors'
p470
(dp471
g6
(dp472
g56
S'_Library_Python_2_7_site-packages_django_utils_termcolors.html'
p473
sg58
S'/Library/Python/2.7/site-packages/django/utils/termcolors'
p474
sg60
g13
(g14
g15
NtRp475
(dp476
g18
I1
sg19
I0
sg20
I56
sg21
I0
sg22
I0
sg23
I40
sg24
I0
sbssg25
S')\xd7\xec/\xe0)\xeb\xed\xa3\\\xca\xca\xc8aI\xa8'
p477
ssS'_Library_Python_2_7_site-packages_django_contrib_sites___init__'
p478
(dp479
g45
(dp480
g8
S'_Library_Python_2_7_site-packages_django_contrib_sites___init__.html'
p481
sg10
S'/Library/Python/2.7/site-packages/django/contrib/sites/__init__'
p482
sg12
g13
(g14
g15
NtRp483
(dp484
g18
I1
sg19
I0
sg20
I0
sg21
I0
sg22
I0
sg23
I0
sg24
I0
sbssg51
S'\xb0\xc8pN\xaf>\xa0\xbaz\x144\xe0A9\xb8?'
p485
ssS'_Library_Python_2_7_site-packages_django_contrib_admin_widgets'
p486
(dp487
g45
(dp488
g8
S'_Library_Python_2_7_site-packages_django_contrib_admin_widgets.html'
p489
sg10
S'/Library/Python/2.7/site-packages/django/contrib/admin/widgets'
p490
sg12
g13
(g14
g15
NtRp491
(dp492
g18
I1
sg19
I0
sg20
I211
sg21
I0
sg22
I0
sg23
I148
sg24
I0
sbssg51
S'\xd8:v\xfea\x15\xe1\x01B\x8b\x16\x81\xff\xc7Q\x13'
p493
ssS'_Library_Python_2_7_site-packages_django_db_models___init__'
p494
(dp495
g6
(dp496
g56
S'_Library_Python_2_7_site-packages_django_db_models___init__.html'
p497
sg58
S'/Library/Python/2.7/site-packages/django/db/models/__init__'
p498
sg60
g13
(g14
g15
NtRp499
(dp500
g18
I1
sg19
I0
sg20
I23
sg21
I0
sg22
I0
sg23
I5
sg24
I0
sbssg25
S'B\xac\xe1\xdaQ\x957k\x0e\xba`\x9f\xd0\xa2\xd87'
p501
ssS'_Library_Python_2_7_site-packages_django_utils_baseconv'
p502
(dp503
g6
(dp504
g56
S'_Library_Python_2_7_site-packages_django_utils_baseconv.html'
p505
sg58
S'/Library/Python/2.7/site-packages/django/utils/baseconv'
p506
sg60
g13
(g14
g15
NtRp507
(dp508
g18
I1
sg19
I0
sg20
I48
sg21
I0
sg22
I0
sg23
I25
sg24
I0
sbssg25
S'1\xe8\xf6U\x98C\xe4\x99\x17*\xe3\xe1\x86\xeej\x0b'
p509
ssS'_Library_Python_2_7_site-packages_django_db___init__'
p510
(dp511
g6
(dp512
g56
S'_Library_Python_2_7_site-packages_django_db___init__.html'
p513
sg58
S'/Library/Python/2.7/site-packages/django/db/__init__'
p514
sg60
g13
(g14
g15
NtRp515
(dp516
g18
I1
sg19
I0
sg20
I32
sg21
I0
sg22
I0
sg23
I12
sg24
I0
sbssg25
S'\xbf\x07\xee\x9b\xb06\xa4@\xc5H\xcf\xed&\xbf\xc7\xd2'
p517
ssS'_Library_Python_2_7_site-packages_django_utils_functional'
p518
(dp519
g6
(dp520
g8
S'_Library_Python_2_7_site-packages_django_utils_functional.html'
p521
sg10
S'/Library/Python/2.7/site-packages/django/utils/functional'
p522
sg12
g13
(g14
g15
NtRp523
(dp524
g18
I1
sg19
I0
sg20
I168
sg21
I0
sg22
I0
sg23
I67
sg24
I0
sbssg25
S'\xcd\xf6c\x16\xb0\x06b\xb1\x95\xe3\xeb^\x807\xf3/'
p525
ssS'_Library_Python_2_7_site-packages_django_template___init__'
p526
(dp527
g6
(dp528
g56
S'_Library_Python_2_7_site-packages_django_template___init__.html'
p529
sg58
S'/Library/Python/2.7/site-packages/django/template/__init__'
p530
sg60
g13
(g14
g15
NtRp531
(dp532
g18
I1
sg19
I0
sg20
I6
sg21
I0
sg22
I0
sg23
I0
sg24
I0
sbssg25
S'\xb6\xa0l\x13\xa8q\x87\r\xa8\xea\xdd\x99\xef\xf5k\xd3'
p533
ssS'_Library_Python_2_7_site-packages_django_views_debug'
p534
(dp535
g6
(dp536
g56
S'_Library_Python_2_7_site-packages_django_views_debug.html'
p537
sg58
S'/Library/Python/2.7/site-packages/django/views/debug'
p538
sg60
g13
(g14
g15
NtRp539
(dp540
g18
I1
sg19
I0
sg20
I274
sg21
I0
sg22
I0
sg23
I230
sg24
I0
sbssg25
S'E\x1f\x8e\xc1[\xc0\xa1\xf0{\xa5;G!T\xff\x9f'
p541
ssS'_Library_Python_2_7_site-packages_django_forms_fields'
p542
(dp543
g6
(dp544
g8
S'_Library_Python_2_7_site-packages_django_forms_fields.html'
p545
sg10
S'/Library/Python/2.7/site-packages/django/forms/fields'
p546
sg12
g13
(g14
g15
NtRp547
(dp548
g18
I1
sg19
I0
sg20
I585
sg21
I0
sg22
I0
sg23
I381
sg24
I0
sbssg25
S'^\xd0-\x02o\xb8\x1d\xa2n;<\x87\x1c"V\xb5'
p549
ssS'_Library_Python_2_7_site-packages_django_contrib_contenttypes___init__'
p550
(dp551
g45
(dp552
g8
S'_Library_Python_2_7_site-packages_django_contrib_contenttypes___init__.html'
p553
sg10
S'/Library/Python/2.7/site-packages/django/contrib/contenttypes/__init__'
p554
sg12
g13
(g14
g15
NtRp555
(dp556
g18
I1
sg19
I0
sg20
I0
sg21
I0
sg22
I0
sg23
I0
sg24
I0
sbssg51
S'\xb0\xc8pN\xaf>\xa0\xbaz\x144\xe0A9\xb8?'
p557
ssS'_Library_Python_2_7_site-packages_django_forms_models'
p558
(dp559
g6
(dp560
g8
S'_Library_Python_2_7_site-packages_django_forms_models.html'
p561
sg10
S'/Library/Python/2.7/site-packages/django/forms/models'
p562
sg12
g13
(g14
g15
NtRp563
(dp564
g18
I1
sg19
I0
sg20
I584
sg21
I0
sg22
I0
sg23
I432
sg24
I0
sbssg25
S'Y\x10\x19\xdb\xc87\xc9\nq\x81\xd2i\xaa\x90S\x1e'
p565
ssS'_Library_Python_2_7_site-packages_django_db_models_deletion'
p566
(dp567
g6
(dp568
g8
S'_Library_Python_2_7_site-packages_django_db_models_deletion.html'
p569
sg10
S'/Library/Python/2.7/site-packages/django/db/models/deletion'
p570
sg12
g13
(g14
g15
NtRp571
(dp572
g18
I1
sg19
I0
sg20
I146
sg21
I0
sg22
I0
sg23
I48
sg24
I0
sbssg25
S'O\xa9\xe8F\xedG\xb0\x88\xf2XJ\x88R\xbc.!'
p573
ssS'_Library_Python_2_7_site-packages_django_contrib_auth_forms'
p574
(dp575
g45
(dp576
g8
S'_Library_Python_2_7_site-packages_django_contrib_auth_forms.html'
p577
sg10
S'/Library/Python/2.7/site-packages/django/contrib/auth/forms'
p578
sg12
g13
(g14
g15
NtRp579
(dp580
g18
I1
sg19
I0
sg20
I175
sg21
I0
sg22
I0
sg23
I103
sg24
I0
sbssg51
S'\x91\xff\xe6\xf0u\x92\x88\\a\xd6fR\xb5\xf8,E'
p581
ssS'_Library_Python_2_7_site-packages_django_contrib_admin_templatetags___init__'
p582
(dp583
g45
(dp584
g8
S'_Library_Python_2_7_site-packages_django_contrib_admin_templatetags___init__.html'
p585
sg10
S'/Library/Python/2.7/site-packages/django/contrib/admin/templatetags/__init__'
p586
sg12
g13
(g14
g15
NtRp587
(dp588
g18
I1
sg19
I0
sg20
I0
sg21
I0
sg22
I0
sg23
I0
sg24
I0
sbssg51
S'\xb0\xc8pN\xaf>\xa0\xbaz\x144\xe0A9\xb8?'
p589
ssS'_Library_Python_2_7_site-packages_django_contrib_admin___init__'
p590
(dp591
g45
(dp592
g8
S'_Library_Python_2_7_site-packages_django_contrib_admin___init__.html'
p593
sg10
S'/Library/Python/2.7/site-packages/django/contrib/admin/__init__'
p594
sg12
g13
(g14
g15
NtRp595
(dp596
g18
I1
sg19
I0
sg20
I19
sg21
I0
sg22
I0
sg23
I13
sg24
I0
sbssg51
S'yXLFz\xa7\xfe#\x11\xea+\xc9\x1dR"\xfc'
p597
ssS'_Library_Python_2_7_site-packages_south_logger'
p598
(dp599
g45
(dp600
g8
S'_Library_Python_2_7_site-packages_south_logger.html'
p601
sg10
S'/Library/Python/2.7/site-packages/south/logger'
p602
sg12
g13
(g14
g15
NtRp603
(dp604
g18
I1
sg19
I0
sg20
I26
sg21
I0
sg22
I0
sg23
I14
sg24
I0
sbssg51
S'\xbdZM{\x9f\xd1\xfe\xb2\xa9D\xf0\xe2c,\xdf\xee'
p605
ssS'_Library_Python_2_7_site-packages_django_utils_text'
p606
(dp607
g6
(dp608
g56
S'_Library_Python_2_7_site-packages_django_utils_text.html'
p609
sg58
S'/Library/Python/2.7/site-packages/django/utils/text'
p610
sg60
g13
(g14
g15
NtRp611
(dp612
g18
I1
sg19
I0
sg20
I210
sg21
I0
sg22
I0
sg23
I158
sg24
I0
sbssg25
S'\'\x8f\xf8?\xbc\xc41"\xb0\x17\x14V"\x98\x1a\x8e'
p613
ssS'_Library_Python_2_7_site-packages_django_core_signals'
p614
(dp615
g6
(dp616
g56
S'_Library_Python_2_7_site-packages_django_core_signals.html'
p617
sg58
S'/Library/Python/2.7/site-packages/django/core/signals'
p618
sg60
g13
(g14
g15
NtRp619
(dp620
g18
I1
sg19
I0
sg20
I4
sg21
I0
sg22
I0
sg23
I0
sg24
I0
sbssg25
S'\xa8\x92\x82\x13=\x82/\x06\xba\xb2\xa6\xad\xc4o\x81\xc2'
p621
ssS'_Library_Python_2_7_site-packages_django_template_loader_tags'
p622
(dp623
g6
(dp624
g56
S'_Library_Python_2_7_site-packages_django_template_loader_tags.html'
p625
sg58
S'/Library/Python/2.7/site-packages/django/template/loader_tags'
p626
sg60
g13
(g14
g15
NtRp627
(dp628
g18
I1
sg19
I0
sg20
I177
sg21
I0
sg22
I0
sg23
I140
sg24
I0
sbssg25
S'+\x06\xf7\x8aT\x17\x9c\xfcr\x06&\x07\xe8a\t\xc5'
p629
ssS'carpoolapp_testLib'
p630
(dp631
g45
(dp632
g147
S'carpoolapp_testLib.html'
p633
sg149
S'carpoolapp/testLib'
p634
sg151
g13
(g14
g15
NtRp635
(dp636
g18
I1
sg19
I0
sg20
I84
sg21
I0
sg22
I0
sg23
I43
sg24
I0
sbssg51
S'\x1d\xaaU@\t\xdd\xc7nPT\x8c\xa2\x98TK|'
p637
ssS'carpool___init__'
p638
(dp639
g6
(dp640
g56
S'carpool___init__.html'
p641
sg58
S'carpool/__init__'
p642
sg60
g13
(g14
g15
NtRp643
(dp644
g18
I1
sg19
I0
sg20
I0
sg21
I0
sg22
I0
sg23
I0
sg24
I0
sbssg25
S'\xb0\xc8pN\xaf>\xa0\xbaz\x144\xe0A9\xb8?'
p645
ssS'_Library_Python_2_7_site-packages_django_core_management___init__'
p646
(dp647
g6
(dp648
g8
S'_Library_Python_2_7_site-packages_django_core_management___init__.html'
p649
sg10
S'/Library/Python/2.7/site-packages/django/core/management/__init__'
p650
sg12
g13
(g14
g15
NtRp651
(dp652
g18
I1
sg19
I0
sg20
I203
sg21
I0
sg22
I0
sg23
I99
sg24
I0
sbssg25
S'\x92k\xdb\x99\x1b;\xc8c\xc3j\x14\x8b\xa6\xb2\xda\xac'
p653
ssS'_Library_Python_2_7_site-packages_django_utils_tree'
p654
(dp655
g6
(dp656
g8
S'_Library_Python_2_7_site-packages_django_utils_tree.html'
p657
sg10
S'/Library/Python/2.7/site-packages/django/utils/tree'
p658
sg12
g13
(g14
g15
NtRp659
(dp660
g18
I1
sg19
I0
sg20
I62
sg21
I0
sg22
I0
sg23
I18
sg24
I0
sbssg25
S'5I\xa85\xa0#Y\x00\xce\xe3\xc4\xb0=7\xaa\x8c'
p661
ssS'_Library_Python_2_7_site-packages_django_db_models_sql___init__'
p662
(dp663
g6
(dp664
g56
S'_Library_Python_2_7_site-packages_django_db_models_sql___init__.html'
p665
sg58
S'/Library/Python/2.7/site-packages/django/db/models/sql/__init__'
p666
sg60
g13
(g14
g15
NtRp667
(dp668
g18
I1
sg19
I0
sg20
I6
sg21
I0
sg22
I0
sg23
I0
sg24
I0
sbssg25
S'\xea\xf8\xff\x94\xe8\x06\xd7@N\x8e\xb9\x9b)&=f'
p669
ssS'_Library_Python_2_7_site-packages_django_forms_formsets'
p670
(dp671
g6
(dp672
g56
S'_Library_Python_2_7_site-packages_django_forms_formsets.html'
p673
sg58
S'/Library/Python/2.7/site-packages/django/forms/formsets'
p674
sg60
g13
(g14
g15
NtRp675
(dp676
g18
I1
sg19
I0
sg20
I216
sg21
I0
sg22
I0
sg23
I155
sg24
I0
sbssg25
S'U]O\xd9_\xeb\n<EfSe\xd0b\x17\xfd'
p677
ssS'_Library_Python_2_7_site-packages_django_contrib_messages_constants'
p678
(dp679
g45
(dp680
g8
S'_Library_Python_2_7_site-packages_django_contrib_messages_constants.html'
p681
sg10
S'/Library/Python/2.7/site-packages/django/contrib/messages/constants'
p682
sg12
g13
(g14
g15
NtRp683
(dp684
g18
I1
sg19
I0
sg20
I6
sg21
I0
sg22
I0
sg23
I0
sg24
I0
sbssg51
S'\xe2n\xbf/\x11\x9a\xf2\xc6\xa4\x8f~\xd2\x91y\xd4\xda'
p685
ssS'_Library_Python_2_7_site-packages_django_core___init__'
p686
(dp687
g6
(dp688
g56
S'_Library_Python_2_7_site-packages_django_core___init__.html'
p689
sg58
S'/Library/Python/2.7/site-packages/django/core/__init__'
p690
sg60
g13
(g14
g15
NtRp691
(dp692
g18
I1
sg19
I0
sg20
I0
sg21
I0
sg22
I0
sg23
I0
sg24
I0
sbssg25
S'\xb0\xc8pN\xaf>\xa0\xbaz\x144\xe0A9\xb8?'
p693
ssS'_Library_Python_2_7_site-packages_django_contrib_auth___init__'
p694
(dp695
g6
(dp696
g56
S'_Library_Python_2_7_site-packages_django_contrib_auth___init__.html'
p697
sg58
S'/Library/Python/2.7/site-packages/django/contrib/auth/__init__'
p698
sg60
g13
(g14
g15
NtRp699
(dp700
g18
I1
sg19
I0
sg20
I73
sg21
I0
sg22
I0
sg23
I60
sg24
I0
sbssg25
S'B_M\x9d\x87\xec\xba\x84W\x9b\xf6\x96\xf9oC\x9c'
p701
ssS'_Library_Python_2_7_site-packages_django_test_utils'
p702
(dp703
g6
(dp704
g8
S'_Library_Python_2_7_site-packages_django_test_utils.html'
p705
sg10
S'/Library/Python/2.7/site-packages/django/test/utils'
p706
sg12
g13
(g14
g15
NtRp707
(dp708
g18
I1
sg19
I0
sg20
I121
sg21
I0
sg22
I0
sg23
I69
sg24
I0
sbssg25
S'H\xee\x01\x07}\xa41T\xf8t\xe0\r\x00\xba{\xad'
p709
ssS'_Library_Python_2_7_site-packages_south_utils___init__'
p710
(dp711
g45
(dp712
g8
S'_Library_Python_2_7_site-packages_south_utils___init__.html'
p713
sg10
S'/Library/Python/2.7/site-packages/south/utils/__init__'
p714
sg12
g13
(g14
g15
NtRp715
(dp716
g18
I1
sg19
I0
sg20
I38
sg21
I0
sg22
I0
sg23
I12
sg24
I0
sbssg51
S'[\\A\x96\xa4!\x1c\x83Uf\xdd\x08H\x10g\xca'
p717
ssS'_Library_Python_2_7_site-packages_django_test_html'
p718
(dp719
g6
(dp720
g56
S'_Library_Python_2_7_site-packages_django_test_html.html'
p721
sg58
S'/Library/Python/2.7/site-packages/django/test/html'
p722
sg60
g13
(g14
g15
NtRp723
(dp724
g18
I1
sg19
I0
sg20
I160
sg21
I0
sg22
I0
sg23
I126
sg24
I0
sbssg25
S'\x94\x99a\xaf\xa6\x83\xd3\xab\xe4\xc2h`$\xab\xde\xbb'
p725
ssS'_Library_Python_2_7_site-packages_django_core_cache_backends_locmem'
p726
(dp727
g6
(dp728
g56
S'_Library_Python_2_7_site-packages_django_core_cache_backends_locmem.html'
p729
sg58
S'/Library/Python/2.7/site-packages/django/core/cache/backends/locmem'
p730
sg60
g13
(g14
g15
NtRp731
(dp732
g18
I1
sg19
I0
sg20
I120
sg21
I0
sg22
I0
sg23
I93
sg24
I0
sbssg25
S"*\x1f\x1f<\x8b\x1f\x18\xc9zxN\x18S\xa9'\x91"
p733
ssS'_Library_Python_2_7_site-packages_django_db_models_sql_constants'
p734
(dp735
g6
(dp736
g56
S'_Library_Python_2_7_site-packages_django_db_models_sql_constants.html'
p737
sg58
S'/Library/Python/2.7/site-packages/django/db/models/sql/constants'
p738
sg60
g13
(g14
g15
NtRp739
(dp740
g18
I1
sg19
I0
sg20
I15
sg21
I0
sg22
I0
sg23
I0
sg24
I0
sbssg25
S'_\xa8i4X\x9e\xb0\tKL\xa8\xac8"\x1a\x13'
p741
ssS'_Library_Python_2_7_site-packages_django_http_utils'
p742
(dp743
g6
(dp744
g56
S'_Library_Python_2_7_site-packages_django_http_utils.html'
p745
sg58
S'/Library/Python/2.7/site-packages/django/http/utils'
p746
sg60
g13
(g14
g15
NtRp747
(dp748
g18
I1
sg19
I0
sg20
I39
sg21
I0
sg22
I0
sg23
I35
sg24
I0
sbssg25
S"\xbb\xc3'\xa8C\x18g\x9cz\x03V\xe9i\xd4'Y"
p749
ssS'_Library_Python_2_7_site-packages_django_core_files_locks'
p750
(dp751
g6
(dp752
g56
S'_Library_Python_2_7_site-packages_django_core_files_locks.html'
p753
sg58
S'/Library/Python/2.7/site-packages/django/core/files/locks'
p754
sg60
g13
(g14
g15
NtRp755
(dp756
g18
I1
sg19
I0
sg20
I40
sg21
I0
sg22
I0
sg23
I23
sg24
I0
sbssg25
S'\x18\xad\x19x\x91p\n\x1a\x14\xf5\x00\xd2\xaf\xb8\xfa\xc5'
p757
ssS'_Library_Python_2_7_site-packages_django_db_models_expressions'
p758
(dp759
g6
(dp760
g56
S'_Library_Python_2_7_site-packages_django_db_models_expressions.html'
p761
sg58
S'/Library/Python/2.7/site-packages/django/db/models/expressions'
p762
sg60
g13
(g14
g15
NtRp763
(dp764
g18
I1
sg19
I0
sg20
I80
sg21
I0
sg22
I0
sg23
I43
sg24
I0
sbssg25
S'mo\x1e\x15\xa0\xc1\x8a\x13\xf7\xaen\x81\xfc_\x0e\xa5'
p765
ssS'_Library_Python_2_7_site-packages_django_core_files_images'
p766
(dp767
g6
(dp768
g56
S'_Library_Python_2_7_site-packages_django_core_files_images.html'
p769
sg58
S'/Library/Python/2.7/site-packages/django/core/files/images'
p770
sg60
g13
(g14
g15
NtRp771
(dp772
g18
I1
sg19
I0
sg20
I40
sg21
I0
sg22
I0
sg23
I32
sg24
I0
sbssg25
S'\xcf\x19\xca\xed\xd0\x9f\xdd\x00\xc0\xb9\xceq\xff\xa6JJ'
p773
ssS'_Library_Python_2_7_site-packages_django_utils_safestring'
p774
(dp775
g6
(dp776
g8
S'_Library_Python_2_7_site-packages_django_utils_safestring.html'
p777
sg10
S'/Library/Python/2.7/site-packages/django/utils/safestring'
p778
sg12
g13
(g14
g15
NtRp779
(dp780
g18
I1
sg19
I0
sg20
I57
sg21
I0
sg22
I0
sg23
I31
sg24
I0
sbssg25
S'\xd5\x8c/m\x01p\xe3\x00b\xa4\xcf\xe1\xbe\x0c\xa2a'
p781
ssS'_Library_Python_2_7_site-packages_django_template_loader'
p782
(dp783
g6
(dp784
g8
S'_Library_Python_2_7_site-packages_django_template_loader.html'
p785
sg10
S'/Library/Python/2.7/site-packages/django/template/loader'
p786
sg12
g13
(g14
g15
NtRp787
(dp788
g18
I1
sg19
I0
sg20
I104
sg21
I0
sg22
I0
sg23
I80
sg24
I0
sbssg25
S'}*y(\xae\xf9\x12\x11\xd0\xee\xad\xd5\x89\xe9\x9e\xea'
p789
ssS'_Library_Python_2_7_site-packages_django_forms___init__'
p790
(dp791
g6
(dp792
g56
S'_Library_Python_2_7_site-packages_django_forms___init__.html'
p793
sg58
S'/Library/Python/2.7/site-packages/django/forms/__init__'
p794
sg60
g13
(g14
g15
NtRp795
(dp796
g18
I1
sg19
I0
sg20
I6
sg21
I0
sg22
I0
sg23
I0
sg24
I0
sbssg25
S"\xfb\x98'\xfe<\x95\xf2Q\xfe,\xaeF\t[\xfeP"
p797
ssS'_Library_Python_2_7_site-packages_django_contrib_sessions_backends___init__'
p798
(dp799
g45
(dp800
g8
S'_Library_Python_2_7_site-packages_django_contrib_sessions_backends___init__.html'
p801
sg10
S'/Library/Python/2.7/site-packages/django/contrib/sessions/backends/__init__'
p802
sg12
g13
(g14
g15
NtRp803
(dp804
g18
I1
sg19
I0
sg20
I0
sg21
I0
sg22
I0
sg23
I0
sg24
I0
sbssg51
S'\xb0\xc8pN\xaf>\xa0\xbaz\x144\xe0A9\xb8?'
p805
ssS'_Library_Python_2_7_site-packages_south_management_commands_test'
p806
(dp807
g45
(dp808
g8
S'_Library_Python_2_7_site-packages_south_management_commands_test.html'
p809
sg10
S'/Library/Python/2.7/site-packages/south/management/commands/test'
p810
sg12
g13
(g14
g15
NtRp811
(dp812
g18
I1
sg19
I0
sg20
I6
sg21
I0
sg22
I0
sg23
I0
sg24
I0
sbssg51
S"\x98'+\xf5\x95\xb5zx\xee\xd4\x1f\xc1\xe6\xc8\xb3\xfd"
p813
ssS'_Library_Python_2_7_site-packages_psycopg2_extensions'
p814
(dp815
g6
(dp816
g56
S'_Library_Python_2_7_site-packages_psycopg2_extensions.html'
p817
sg58
S'/Library/Python/2.7/site-packages/psycopg2/extensions'
p818
sg60
g13
(g14
g15
NtRp819
(dp820
g18
I1
sg19
I0
sg20
I84
sg21
I0
sg22
I0
sg23
I22
sg24
I0
sbssg25
S'L\xf2+\x0b\x89\x9d\xf8"kV\xbc9\xa5\x8fkz'
p821
ssS'_Library_Python_2_7_site-packages_django_utils_html_parser'
p822
(dp823
g6
(dp824
g56
S'_Library_Python_2_7_site-packages_django_utils_html_parser.html'
p825
sg58
S'/Library/Python/2.7/site-packages/django/utils/html_parser'
p826
sg60
g13
(g14
g15
NtRp827
(dp828
g18
I1
sg19
I0
sg20
I79
sg21
I0
sg22
I0
sg23
I67
sg24
I0
sbssg25
S'\x97\xe2\x0cix\x9d\x1c\x1d\x822\xcb\xcf\xd5\xffO\xd4'
p829
ssS'_Library_Python_2_7_site-packages_django_core_signing'
p830
(dp831
g6
(dp832
g56
S'_Library_Python_2_7_site-packages_django_core_signing.html'
p833
sg58
S'/Library/Python/2.7/site-packages/django/core/signing'
p834
sg60
g13
(g14
g15
NtRp835
(dp836
g18
I1
sg19
I0
sg20
I92
sg21
I0
sg22
I0
sg23
I61
sg24
I0
sbssg25
S'\xb7\x1bS\x13Q\xb4\xf5k\x90\xf7hKv\xf0\xb8\x87'
p837
ssS'_Library_Python_2_7_site-packages_django_utils_translation___init__'
p838
(dp839
g6
(dp840
g8
S'_Library_Python_2_7_site-packages_django_utils_translation___init__.html'
p841
sg10
S'/Library/Python/2.7/site-packages/django/utils/translation/__init__'
p842
sg12
g13
(g14
g15
NtRp843
(dp844
g18
I1
sg19
I0
sg20
I86
sg21
I0
sg22
I0
sg23
I26
sg24
I0
sbssg25
S'\xda\xd8\xce\xd4\xc15\xcb*\xa5\xefV\\\x97\x87L\x0b'
p845
ssS'_Library_Python_2_7_site-packages_django_core_servers___init__'
p846
(dp847
g6
(dp848
g56
S'_Library_Python_2_7_site-packages_django_core_servers___init__.html'
p849
sg58
S'/Library/Python/2.7/site-packages/django/core/servers/__init__'
p850
sg60
g13
(g14
g15
NtRp851
(dp852
g18
I1
sg19
I0
sg20
I0
sg21
I0
sg22
I0
sg23
I0
sg24
I0
sbssg25
S'\xb0\xc8pN\xaf>\xa0\xbaz\x144\xe0A9\xb8?'
p853
ssS'_Library_Python_2_7_site-packages_django_contrib_admin_sites'
p854
(dp855
g45
(dp856
g8
S'_Library_Python_2_7_site-packages_django_contrib_admin_sites.html'
p857
sg10
S'/Library/Python/2.7/site-packages/django/contrib/admin/sites'
p858
sg12
g13
(g14
g15
NtRp859
(dp860
g18
I1
sg19
I0
sg20
I203
sg21
I0
sg22
I0
sg23
I146
sg24
I0
sbssg51
S'Mu\xc1\xf3\xa4\xd9D%Sd\xae\x1e\xcetA\x13'
p861
ssS'_Library_Python_2_7_site-packages_pytz_tzfile'
p862
(dp863
g6
(dp864
g8
S'_Library_Python_2_7_site-packages_pytz_tzfile.html'
p865
sg10
S'/Library/Python/2.7/site-packages/pytz/tzfile'
p866
sg12
g13
(g14
g15
NtRp867
(dp868
g18
I1
sg19
I0
sg20
I81
sg21
I0
sg22
I0
sg23
I18
sg24
I0
sbssg25
S'\xa5\xcd\\>\xec\x1f1p\x01\x0c\x86\x93\x16\x8bI\xb3'
p869
ssS'_Library_Python_2_7_site-packages_django_core_files_base'
p870
(dp871
g6
(dp872
g56
S'_Library_Python_2_7_site-packages_django_core_files_base.html'
p873
sg58
S'/Library/Python/2.7/site-packages/django/core/files/base'
p874
sg60
g13
(g14
g15
NtRp875
(dp876
g18
I1
sg19
I0
sg20
I90
sg21
I0
sg22
I0
sg23
I59
sg24
I0
sbssg25
S'w\x89\xd9X\xe9\xd8\xac\x9b\xd1\xb9\xbc\xa3\xe5\xa3\xa1x'
p877
ssS'_Library_Python_2_7_site-packages_django_core_management_commands_loaddata'
p878
(dp879
g45
(dp880
g8
S'_Library_Python_2_7_site-packages_django_core_management_commands_loaddata.html'
p881
sg10
S'/Library/Python/2.7/site-packages/django/core/management/commands/loaddata'
p882
sg12
g13
(g14
g15
NtRp883
(dp884
g18
I1
sg19
I0
sg20
I163
sg21
I0
sg22
I0
sg23
I141
sg24
I0
sbssg51
S'\xcb?\xf1\x84j\x90\x15\xefx\xfc8\x93+\xd4\x81)'
p885
ssS'_Library_Python_2_7_site-packages_django_template_smartif'
p886
(dp887
g6
(dp888
g56
S'_Library_Python_2_7_site-packages_django_template_smartif.html'
p889
sg58
S'/Library/Python/2.7/site-packages/django/template/smartif'
p890
sg60
g13
(g14
g15
NtRp891
(dp892
g18
I1
sg19
I0
sg20
I104
sg21
I0
sg22
I0
sg23
I61
sg24
I0
sbssg25
S'\xdd)I\xf1\xfb\xd4\xfe\x86hd0\x89\x8a|\xf9\x8a'
p893
ssS'_Library_Python_2_7_site-packages_django_db_models_sql_aggregates'
p894
(dp895
g6
(dp896
g56
S'_Library_Python_2_7_site-packages_django_db_models_sql_aggregates.html'
p897
sg58
S'/Library/Python/2.7/site-packages/django/db/models/sql/aggregates'
p898
sg60
g13
(g14
g15
NtRp899
(dp900
g18
I1
sg19
I0
sg20
I57
sg21
I0
sg22
I0
sg23
I27
sg24
I0
sbssg25
S'"\xd6\xd4\x0f\xa9\xc7/\xabr\x93@\x0b\x90p\xca\xdf'
p901
ssS'_Library_Python_2_7_site-packages_django_shortcuts___init__'
p902
(dp903
g45
(dp904
g8
S'_Library_Python_2_7_site-packages_django_shortcuts___init__.html'
p905
sg10
S'/Library/Python/2.7/site-packages/django/shortcuts/__init__'
p906
sg12
g13
(g14
g15
NtRp907
(dp908
g18
I1
sg19
I0
sg20
I52
sg21
I0
sg22
I0
sg23
I40
sg24
I0
sbssg51
S'\x0e\xab\xe7\xd7E\x98"9p\x14;\xae\x11@l\x7f'
p909
ssS'_Library_Python_2_7_site-packages_django_views_decorators_csrf'
p910
(dp911
g45
(dp912
g8
S'_Library_Python_2_7_site-packages_django_views_decorators_csrf.html'
p913
sg10
S'/Library/Python/2.7/site-packages/django/views/decorators/csrf'
p914
sg12
g13
(g14
g15
NtRp915
(dp916
g18
I1
sg19
I0
sg20
I34
sg21
I0
sg22
I0
sg23
I9
sg24
I0
sbssg51
S'*\xd8+Z\xa9\xf5\x97\xcf\x98o\x88\x910\xe1T\x96'
p917
ssS'_Library_Python_2_7_site-packages_pytz___init__'
p918
(dp919
g6
(dp920
g446
S'_Library_Python_2_7_site-packages_pytz___init__.html'
p921
sg448
S'/Library/Python/2.7/site-packages/pytz/__init__'
p922
sg450
g13
(g14
g15
NtRp923
(dp924
g18
I1
sg19
I0
sg20
I206
sg21
I0
sg22
I0
sg23
I104
sg24
I0
sbssg25
S'0.\xfcb\xb3\x8f\xb9\xa6=\x8a\xc6\xf2:\xb1\r\xd4'
p925
ssS'_Library_Python_2_7_site-packages_django_contrib_sites_management'
p926
(dp927
g45
(dp928
g8
S'_Library_Python_2_7_site-packages_django_contrib_sites_management.html'
p929
sg10
S'/Library/Python/2.7/site-packages/django/contrib/sites/management'
p930
sg12
g13
(g14
g15
NtRp931
(dp932
g18
I1
sg19
I0
sg20
I20
sg21
I0
sg22
I0
sg23
I2
sg24
I0
sbssg51
S'\xe1\xdc;QH^g.v\x17\x19\x0e\xad\xd9\x96\xdc'
p933
ssS'_Library_Python_2_7_site-packages_django_core_cache_backends_base'
p934
(dp935
g6
(dp936
g56
S'_Library_Python_2_7_site-packages_django_core_cache_backends_base.html'
p937
sg58
S'/Library/Python/2.7/site-packages/django/core/cache/backends/base'
p938
sg60
g13
(g14
g15
NtRp939
(dp940
g18
I1
sg19
I0
sg20
I99
sg21
I0
sg22
I0
sg23
I54
sg24
I0
sbssg25
S'#J\xfe\x1c\xfd\x80\xd1t9\x81\xdc\x9b\xcf\xc9\xd6\xeb'
p941
ssS'_Library_Python_2_7_site-packages_django_utils_encoding'
p942
(dp943
g6
(dp944
g8
S'_Library_Python_2_7_site-packages_django_utils_encoding.html'
p945
sg10
S'/Library/Python/2.7/site-packages/django/utils/encoding'
p946
sg12
g13
(g14
g15
NtRp947
(dp948
g18
I1
sg19
I0
sg20
I82
sg21
I0
sg22
I0
sg23
I34
sg24
I0
sbssg25
S'\xe5]\x9e(\xfc\x0bk\x90\xbf\n\xc8\xb0T\x16c\xe3'
p949
ssS'_Library_Python_2_7_site-packages_django_db_backends_postgresql_psycopg2___init__'
p950
(dp951
g6
(dp952
g56
S'_Library_Python_2_7_site-packages_django_db_backends_postgresql_psycopg2___init__.html'
p953
sg58
S'/Library/Python/2.7/site-packages/django/db/backends/postgresql_psycopg2/__init__'
p954
sg60
g13
(g14
g15
NtRp955
(dp956
g18
I1
sg19
I0
sg20
I0
sg21
I0
sg22
I0
sg23
I0
sg24
I0
sbssg25
S'\xb0\xc8pN\xaf>\xa0\xbaz\x144\xe0A9\xb8?'
p957
ssS'_Library_Python_2_7_site-packages_django_template_context'
p958
(dp959
g6
(dp960
g56
S'_Library_Python_2_7_site-packages_django_template_context.html'
p961
sg58
S'/Library/Python/2.7/site-packages/django/template/context'
p962
sg60
g13
(g14
g15
NtRp963
(dp964
g18
I1
sg19
I0
sg20
I111
sg21
I0
sg22
I0
sg23
I78
sg24
I0
sbssg25
S"\x9b\xe5\x82$\xa9\x97\xdeD\x9f'6\n\xa2\xdcU\xb5"
p965
ssS'_Library_Python_2_7_site-packages_django_template_loaders_cached'
p966
(dp967
g6
(dp968
g56
S'_Library_Python_2_7_site-packages_django_template_loaders_cached.html'
p969
sg58
S'/Library/Python/2.7/site-packages/django/template/loaders/cached'
p970
sg60
g13
(g14
g15
NtRp971
(dp972
g18
I1
sg19
I0
sg20
I39
sg21
I0
sg22
I0
sg23
I29
sg24
I0
sbssg25
S'\xbd\x94\xffb;\xa88z\x13\xeezM[\x94x\xb4'
p973
ssS'_Library_Python_2_7_site-packages_django_utils_formats'
p974
(dp975
g6
(dp976
g8
S'_Library_Python_2_7_site-packages_django_utils_formats.html'
p977
sg10
S'/Library/Python/2.7/site-packages/django/utils/formats'
p978
sg12
g13
(g14
g15
NtRp979
(dp980
g18
I1
sg19
I0
sg20
I108
sg21
I0
sg22
I0
sg23
I54
sg24
I0
sbssg25
S'R\x02|\xdd[\xba\xaet\xb11\x03\xbb\xf9\x0f\x1b\xe2'
p981
ssS'_Library_Python_2_7_site-packages_django_db_utils'
p982
(dp983
g6
(dp984
g8
S'_Library_Python_2_7_site-packages_django_db_utils.html'
p985
sg10
S'/Library/Python/2.7/site-packages/django/db/utils'
p986
sg12
g13
(g14
g15
NtRp987
(dp988
g18
I1
sg19
I0
sg20
I120
sg21
I0
sg22
I0
sg23
I58
sg24
I0
sbssg25
S'Sv\xb3q\x8e\xc4p\xf3\xddK\xa8I\x86\xb1\xee\xa9'
p989
ssS'_Library_Python_2_7_site-packages_django_core_management_commands___init__'
p990
(dp991
g6
(dp992
g56
S'_Library_Python_2_7_site-packages_django_core_management_commands___init__.html'
p993
sg58
S'/Library/Python/2.7/site-packages/django/core/management/commands/__init__'
p994
sg60
g13
(g14
g15
NtRp995
(dp996
g18
I1
sg19
I0
sg20
I0
sg21
I0
sg22
I0
sg23
I0
sg24
I0
sbssg25
S'\xb0\xc8pN\xaf>\xa0\xbaz\x144\xe0A9\xb8?'
p997
ssS'_Library_Python_2_7_site-packages_django_db_models_fields_related'
p998
(dp999
g6
(dp1000
g8
S'_Library_Python_2_7_site-packages_django_db_models_fields_related.html'
p1001
sg10
S'/Library/Python/2.7/site-packages/django/db/models/fields/related'
p1002
sg12
g13
(g14
g15
NtRp1003
(dp1004
g18
I1
sg19
I0
sg20
I713
sg21
I0
sg22
I0
sg23
I406
sg24
I0
sbssg25
S'\x8e0\x9alt\xa6n\x8c\xc04 \x85D\xd6n;'
p1005
ssS'_Library_Python_2_7_site-packages_django_utils_numberformat'
p1006
(dp1007
g6
(dp1008
g56
S'_Library_Python_2_7_site-packages_django_utils_numberformat.html'
p1009
sg58
S'/Library/Python/2.7/site-packages/django/utils/numberformat'
p1010
sg60
g13
(g14
g15
NtRp1011
(dp1012
g18
I1
sg19
I0
sg20
I31
sg21
I0
sg22
I0
sg23
I28
sg24
I0
sbssg25
S't\x93m\x81b\xf9\x03K\xc5\xb4a\xde\xfff \xd7'
p1013
ssS'_Library_Python_2_7_site-packages_django_contrib___init__'
p1014
(dp1015
g6
(dp1016
g56
S'_Library_Python_2_7_site-packages_django_contrib___init__.html'
p1017
sg58
S'/Library/Python/2.7/site-packages/django/contrib/__init__'
p1018
sg60
g13
(g14
g15
NtRp1019
(dp1020
g18
I1
sg19
I0
sg20
I0
sg21
I0
sg22
I0
sg23
I0
sg24
I0
sbssg25
S'\xb0\xc8pN\xaf>\xa0\xbaz\x144\xe0A9\xb8?'
p1021
ssS'_Library_Python_2_7_site-packages_django_contrib_admin_templatetags_admin_static'
p1022
(dp1023
g45
(dp1024
g8
S'_Library_Python_2_7_site-packages_django_contrib_admin_templatetags_admin_static.html'
p1025
sg10
S'/Library/Python/2.7/site-packages/django/contrib/admin/templatetags/admin_static'
p1026
sg12
g13
(g14
g15
NtRp1027
(dp1028
g18
I1
sg19
I0
sg20
I7
sg21
I0
sg22
I0
sg23
I1
sg24
I0
sbssg51
S'\x99{\xd7\xbc\xa3W\x085\xed$9\xd94r\xea\x15'
p1029
ssS'_Library_Python_2_7_site-packages_django_contrib_staticfiles_management___init__'
p1030
(dp1031
g45
(dp1032
g8
S'_Library_Python_2_7_site-packages_django_contrib_staticfiles_management___init__.html'
p1033
sg10
S'/Library/Python/2.7/site-packages/django/contrib/staticfiles/management/__init__'
p1034
sg12
g13
(g14
g15
NtRp1035
(dp1036
g18
I1
sg19
I0
sg20
I0
sg21
I0
sg22
I0
sg23
I0
sg24
I0
sbssg51
S'\xb0\xc8pN\xaf>\xa0\xbaz\x144\xe0A9\xb8?'
p1037
ssS'_Library_Python_2_7_site-packages_django_db_backends_postgresql_psycopg2_client'
p1038
(dp1039
g6
(dp1040
g56
S'_Library_Python_2_7_site-packages_django_db_backends_postgresql_psycopg2_client.html'
p1041
sg58
S'/Library/Python/2.7/site-packages/django/db/backends/postgresql_psycopg2/client'
p1042
sg60
g13
(g14
g15
NtRp1043
(dp1044
g18
I1
sg19
I0
sg20
I18
sg21
I0
sg22
I0
sg23
I12
sg24
I0
sbssg25
S'\xaa[\x13W\x00\x11m\xb4\xd2717LZ\x00M'
p1045
ssS'_Library_Python_2_7_site-packages_south_migration___init__'
p1046
(dp1047
g45
(dp1048
g8
S'_Library_Python_2_7_site-packages_south_migration___init__.html'
p1049
sg10
S'/Library/Python/2.7/site-packages/south/migration/__init__'
p1050
sg12
g13
(g14
g15
NtRp1051
(dp1052
g18
I1
sg19
I0
sg20
I152
sg21
I0
sg22
I0
sg23
I129
sg24
I0
sbssg51
S'\xd2X\xf6S\x03\xd9\x1a}\x1f\xad0X\x14FI\x99'
p1053
ssS'_Library_Python_2_7_site-packages_django_utils_log'
p1054
(dp1055
g6
(dp1056
g56
S'_Library_Python_2_7_site-packages_django_utils_log.html'
p1057
sg58
S'/Library/Python/2.7/site-packages/django/utils/log'
p1058
sg60
g13
(g14
g15
NtRp1059
(dp1060
g18
I1
sg19
I0
sg20
I56
sg21
I0
sg22
I0
sg23
I32
sg24
I0
sbssg25
S'[\xb7U\xe3<\xd4\x88\x90wQ^\x06y%\xb8K'
p1061
ssS'_Library_Python_2_7_site-packages_django_views_decorators_cache'
p1062
(dp1063
g45
(dp1064
g8
S'_Library_Python_2_7_site-packages_django_views_decorators_cache.html'
p1065
sg10
S'/Library/Python/2.7/site-packages/django/views/decorators/cache'
p1066
sg12
g13
(g14
g15
NtRp1067
(dp1068
g18
I1
sg19
I0
sg20
I40
sg21
I0
sg22
I0
sg23
I31
sg24
I0
sbssg51
S'\x02B\x80\x13a\x16\x1dq\xc1oy\xd0\x0e\x1c\x7fW'
p1069
ssS'_Library_Python_2_7_site-packages_psycopg2___init__'
p1070
(dp1071
g6
(dp1072
g8
S'_Library_Python_2_7_site-packages_psycopg2___init__.html'
p1073
sg10
S'/Library/Python/2.7/site-packages/psycopg2/__init__'
p1074
sg12
g13
(g14
g15
NtRp1075
(dp1076
g18
I1
sg19
I0
sg20
I60
sg21
I0
sg22
I0
sg23
I13
sg24
I0
sbssg25
S'\xbe\x94$\x91cq\x9a\xf0\xb56\x8e\xcaw\xc7{X'
p1077
ssS'carpoolapp_googlemaps'
p1078
(dp1079
g45
(dp1080
g8
S'carpoolapp_googlemaps.html'
p1081
sg10
S'carpoolapp/googlemaps'
p1082
sg12
g13
(g14
g15
NtRp1083
(dp1084
g18
I1
sg19
I0
sg20
I106
sg21
I0
sg22
I0
sg23
I69
sg24
I0
sbssg51
S'%\x94\x00\xfa\xf9\xbc\xc2b\xd7\xda\xb8\x15I\xdc\xbe!'
p1085
ssS'_Library_Python_2_7_site-packages_django_dispatch___init__'
p1086
(dp1087
g6
(dp1088
g56
S'_Library_Python_2_7_site-packages_django_dispatch___init__.html'
p1089
sg58
S'/Library/Python/2.7/site-packages/django/dispatch/__init__'
p1090
sg60
g13
(g14
g15
NtRp1091
(dp1092
g18
I1
sg19
I0
sg20
I1
sg21
I0
sg22
I0
sg23
I0
sg24
I0
sbssg25
S'\xe9$\xa4\xf3k\xc7$G\xbe^\x9e5~A\x94\xd1'
p1093
ssS'_Library_Python_2_7_site-packages_django_db_models_sql_datastructures'
p1094
(dp1095
g6
(dp1096
g56
S'_Library_Python_2_7_site-packages_django_db_models_sql_datastructures.html'
p1097
sg58
S'/Library/Python/2.7/site-packages/django/db/models/sql/datastructures'
p1098
sg60
g13
(g14
g15
NtRp1099
(dp1100
g18
I1
sg19
I0
sg20
I25
sg21
I0
sg22
I0
sg23
I11
sg24
I0
sbssg25
S"\xab\x99\\\xa2\x90\x03\x16\xdf\xd8p\x82'\xa1\xd3\x8ct"
p1101
ssS'_Library_Python_2_7_site-packages_django_utils_unittest___init__'
p1102
(dp1103
g6
(dp1104
g56
S'_Library_Python_2_7_site-packages_django_utils_unittest___init__.html'
p1105
sg58
S'/Library/Python/2.7/site-packages/django/utils/unittest/__init__'
p1106
sg60
g13
(g14
g15
NtRp1107
(dp1108
g18
I1
sg19
I0
sg20
I23
sg21
I0
sg22
I0
sg23
I17
sg24
I0
sbssg25
S'\xccP\x9c\xf4\x9b(\x7f#1\xb9\xe3X7\xb4\xe6B'
p1109
ssS'_Library_Python_2_7_site-packages_django_db_transaction'
p1110
(dp1111
g6
(dp1112
g8
S'_Library_Python_2_7_site-packages_django_db_transaction.html'
p1113
sg10
S'/Library/Python/2.7/site-packages/django/db/transaction'
p1114
sg12
g13
(g14
g15
NtRp1115
(dp1116
g18
I1
sg19
I0
sg20
I131
sg21
I0
sg22
I0
sg23
I70
sg24
I0
sbssg25
S'M\xc23e\xb0y\xd0\xa21\xb6M>A*u\x15'
p1117
ssS'_Library_Python_2_7_site-packages_django_db_models_related'
p1118
(dp1119
g6
(dp1120
g8
S'_Library_Python_2_7_site-packages_django_db_models_related.html'
p1121
sg10
S'/Library/Python/2.7/site-packages/django/db/models/related'
p1122
sg12
g13
(g14
g15
NtRp1123
(dp1124
g18
I1
sg19
I0
sg20
I41
sg21
I0
sg22
I0
sg23
I17
sg24
I0
sbssg25
S'\x01\xed\xbb\xef\xa5\xbe\xb0\xfd\xe7\x006\xbd\xc1=\x9a)'
p1125
ssS'manage'
p1126
(dp1127
g6
(dp1128
g56
S'manage.html'
p1129
sg58
g1126
sg60
g13
(g14
g15
NtRp1130
(dp1131
g18
I1
sg19
I0
sg20
I6
sg21
I0
sg22
I0
sg23
I0
sg24
I0
sbssg25
S'\x80\x94\xf5\xd5\x11\x194\xbd$\xa6%\xe1e\x0c\x17\x15'
p1132
ssS'_Library_Python_2_7_site-packages_django_utils_datastructures'
p1133
(dp1134
g6
(dp1135
g8
S'_Library_Python_2_7_site-packages_django_utils_datastructures.html'
p1136
sg10
S'/Library/Python/2.7/site-packages/django/utils/datastructures'
p1137
sg12
g13
(g14
g15
NtRp1138
(dp1139
g18
I1
sg19
I0
sg20
I292
sg21
I0
sg22
I0
sg23
I159
sg24
I0
sbssg25
S'[\x14E\xb4\xb6\xa5\x99\xe8ge\x9b/\x1e<ww'
p1140
ssS'carpoolapp___init__'
p1141
(dp1142
g45
(dp1143
g8
S'carpoolapp___init__.html'
p1144
sg10
S'carpoolapp/__init__'
p1145
sg12
g13
(g14
g15
NtRp1146
(dp1147
g18
I1
sg19
I0
sg20
I0
sg21
I0
sg22
I0
sg23
I0
sg24
I0
sbssg51
S'\xb0\xc8pN\xaf>\xa0\xbaz\x144\xe0A9\xb8?'
p1148
ssS'_Library_Python_2_7_site-packages_django_contrib_admin_actions'
p1149
(dp1150
g45
(dp1151
g8
S'_Library_Python_2_7_site-packages_django_contrib_admin_actions.html'
p1152
sg10
S'/Library/Python/2.7/site-packages/django/contrib/admin/actions'
p1153
sg12
g13
(g14
g15
NtRp1154
(dp1155
g18
I1
sg19
I0
sg20
I34
sg21
I0
sg22
I0
sg23
I25
sg24
I0
sbssg51
S'!\xc3\xbf\x11\xd1\xcc\x7fa\xf0\x1d\xaep\xafI\xf5\x0b'
p1156
ssS'_Library_Python_2_7_site-packages_django_db_models_fields___init__'
p1157
(dp1158
g6
(dp1159
g8
S'_Library_Python_2_7_site-packages_django_db_models_fields___init__.html'
p1160
sg10
S'/Library/Python/2.7/site-packages/django/db/models/fields/__init__'
p1161
sg12
g13
(g14
g15
NtRp1162
(dp1163
g18
I1
sg19
I0
sg20
I778
sg21
I0
sg22
I0
sg23
I374
sg24
I0
sbssg25
S'\x8b1_\xf7\xf1\xbcv\x94\x804\xf8\xa4n6II'
p1164
ssS'_Library_Python_2_7_site-packages_django_utils_synch'
p1165
(dp1166
g6
(dp1167
g56
S'_Library_Python_2_7_site-packages_django_utils_synch.html'
p1168
sg58
S'/Library/Python/2.7/site-packages/django/utils/synch'
p1169
sg60
g13
(g14
g15
NtRp1170
(dp1171
g18
I1
sg19
I0
sg20
I60
sg21
I0
sg22
I0
sg23
I41
sg24
I0
sbssg25
S'\xda\xed\xb8;\x18\xf0IL\xc7`[\xdd\xd9\xde\xb4e'
p1172
ssS'_Library_Python_2_7_site-packages_south_db_generic'
p1173
(dp1174
g45
(dp1175
g8
S'_Library_Python_2_7_site-packages_south_db_generic.html'
p1176
sg10
S'/Library/Python/2.7/site-packages/south/db/generic'
p1177
sg12
g13
(g14
g15
NtRp1178
(dp1179
g18
I1
sg19
I0
sg20
I569
sg21
I0
sg22
I0
sg23
I438
sg24
I0
sbssg51
S".^R\xe1\xa7'p\xecP*[\xa0\xb6\xa2\xfeL"
p1180
ssS'_Library_Python_2_7_site-packages_django_core_handlers___init__'
p1181
(dp1182
g6
(dp1183
g56
S'_Library_Python_2_7_site-packages_django_core_handlers___init__.html'
p1184
sg58
S'/Library/Python/2.7/site-packages/django/core/handlers/__init__'
p1185
sg60
g13
(g14
g15
NtRp1186
(dp1187
g18
I1
sg19
I0
sg20
I0
sg21
I0
sg22
I0
sg23
I0
sg24
I0
sbssg25
S'\xb0\xc8pN\xaf>\xa0\xbaz\x144\xe0A9\xb8?'
p1188
ssS'_Library_Python_2_7_site-packages_django_contrib_sessions___init__'
p1189
(dp1190
g45
(dp1191
g8
S'_Library_Python_2_7_site-packages_django_contrib_sessions___init__.html'
p1192
sg10
S'/Library/Python/2.7/site-packages/django/contrib/sessions/__init__'
p1193
sg12
g13
(g14
g15
NtRp1194
(dp1195
g18
I1
sg19
I0
sg20
I0
sg21
I0
sg22
I0
sg23
I0
sg24
I0
sbssg51
S'\xb0\xc8pN\xaf>\xa0\xbaz\x144\xe0A9\xb8?'
p1196
ssS'_Library_Python_2_7_site-packages_django_utils_http'
p1197
(dp1198
g6
(dp1199
g56
S'_Library_Python_2_7_site-packages_django_utils_http.html'
p1200
sg58
S'/Library/Python/2.7/site-packages/django/utils/http'
p1201
sg60
g13
(g14
g15
NtRp1202
(dp1203
g18
I1
sg19
I0
sg20
I115
sg21
I0
sg22
I0
sg23
I74
sg24
I0
sbssg25
S"\x81\x9f&\xec\x13\x05\x0b\xce\x99\x8a\xa4\x82'`\xf2\x9c"
p1204
ssS'_Library_Python_2_7_site-packages_south_hacks___init__'
p1205
(dp1206
g45
(dp1207
g8
S'_Library_Python_2_7_site-packages_south_hacks___init__.html'
p1208
sg10
S'/Library/Python/2.7/site-packages/south/hacks/__init__'
p1209
sg12
g13
(g14
g15
NtRp1210
(dp1211
g18
I1
sg19
I0
sg20
I2
sg21
I0
sg22
I0
sg23
I0
sg24
I0
sbssg51
S'\xe8V3k\xb0\xad\xbb\xda\xbeP\x9d]y\xd9\xfcT'
p1212
ssS'_Library_Python_2_7_site-packages_django_utils_itercompat'
p1213
(dp1214
g6
(dp1215
g56
S'_Library_Python_2_7_site-packages_django_utils_itercompat.html'
p1216
sg58
S'/Library/Python/2.7/site-packages/django/utils/itercompat'
p1217
sg60
g13
(g14
g15
NtRp1218
(dp1219
g18
I1
sg19
I0
sg20
I24
sg21
I0
sg22
I0
sg23
I15
sg24
I0
sbssg25
S'OXMhC\xbe8\xb9E{b\x17w\xbf\xa2~'
p1220
ssS'_Library_Python_2_7_site-packages_django_db_models_loading'
p1221
(dp1222
g6
(dp1223
g8
S'_Library_Python_2_7_site-packages_django_db_models_loading.html'
p1224
sg10
S'/Library/Python/2.7/site-packages/django/db/models/loading'
p1225
sg12
g13
(g14
g15
NtRp1226
(dp1227
g18
I1
sg19
I0
sg20
I119
sg21
I0
sg22
I0
sg23
I21
sg24
I0
sbssg25
S"\xf9\xacF\xab\x13j\xfe'|\xc6\x90\xea\x97]q\xb3"
p1228
ssS'_Library_Python_2_7_site-packages_django_conf_global_settings'
p1229
(dp1230
g6
(dp1231
g56
S'_Library_Python_2_7_site-packages_django_conf_global_settings.html'
p1232
sg58
S'/Library/Python/2.7/site-packages/django/conf/global_settings'
p1233
sg60
g13
(g14
g15
NtRp1234
(dp1235
g18
I1
sg19
I0
sg20
I118
sg21
I0
sg22
I0
sg23
I0
sg24
I0
sbssg25
S'\xba\x06~\xde\x10?\xd3q\xeb#i&\x19H\xe2l'
p1236
ssS'_Library_Python_2_7_site-packages_django_contrib_messages___init__'
p1237
(dp1238
g45
(dp1239
g8
S'_Library_Python_2_7_site-packages_django_contrib_messages___init__.html'
p1240
sg10
S'/Library/Python/2.7/site-packages/django/contrib/messages/__init__'
p1241
sg12
g13
(g14
g15
NtRp1242
(dp1243
g18
I1
sg19
I0
sg20
I3
sg21
I0
sg22
I0
sg23
I0
sg24
I0
sbssg51
S'\x01~\xb7\xc9ZD\xe5N\xc3\x01\xc2\x94u\x0b`\x9e'
p1244
ssS'_Library_Python_2_7_site-packages_django_contrib_sessions_backends_base'
p1245
(dp1246
g45
(dp1247
g8
S'_Library_Python_2_7_site-packages_django_contrib_sessions_backends_base.html'
p1248
sg10
S'/Library/Python/2.7/site-packages/django/contrib/sessions/backends/base'
p1249
sg12
g13
(g14
g15
NtRp1250
(dp1251
g18
I1
sg19
I0
sg20
I160
sg21
I0
sg22
I0
sg23
I104
sg24
I0
sbssg51
S'r\x1ed\xed\xe2u\x92g\xd3}\xf3\x7f\xae:AK'
p1252
ssS'_Library_Python_2_7_site-packages_django_core_management_color'
p1253
(dp1254
g6
(dp1255
g8
S'_Library_Python_2_7_site-packages_django_core_management_color.html'
p1256
sg10
S'/Library/Python/2.7/site-packages/django/core/management/color'
p1257
sg12
g13
(g14
g15
NtRp1258
(dp1259
g18
I1
sg19
I0
sg20
I28
sg21
I0
sg22
I0
sg23
I3
sg24
I0
sbssg25
S'\x1f\x18m\xdf\x9b&\x90\xbe\xf5\x15C\x10\x8e\x16\xcd\xc4'
p1260
ssS'_Library_Python_2_7_site-packages_django_core_serializers_python'
p1261
(dp1262
g45
(dp1263
g8
S'_Library_Python_2_7_site-packages_django_core_serializers_python.html'
p1264
sg10
S'/Library/Python/2.7/site-packages/django/core/serializers/python'
p1265
sg12
g13
(g14
g15
NtRp1266
(dp1267
g18
I1
sg19
I0
sg20
I78
sg21
I0
sg22
I0
sg23
I62
sg24
I0
sbssg51
S'\xe1\xe7\x12\xa2\xca\xdc\xf5\xa3DW\x8f\x1b\x816H\xe3'
p1268
ssS'_Library_Python_2_7_site-packages_django_contrib_messages_api'
p1269
(dp1270
g45
(dp1271
g8
S'_Library_Python_2_7_site-packages_django_contrib_messages_api.html'
p1272
sg10
S'/Library/Python/2.7/site-packages/django/contrib/messages/api'
p1273
sg12
g13
(g14
g15
NtRp1274
(dp1275
g18
I1
sg19
I0
sg20
I34
sg21
I0
sg22
I0
sg23
I20
sg24
I0
sbssg51
S'i\xb5\x8fk2\x89\xf2JF0\xfa\xd1z\x05\xaf\xe5'
p1276
ssS'_Library_Python_2_7_site-packages_django_utils_dateparse'
p1277
(dp1278
g6
(dp1279
g56
S'_Library_Python_2_7_site-packages_django_utils_dateparse.html'
p1280
sg58
S'/Library/Python/2.7/site-packages/django/utils/dateparse'
p1281
sg60
g13
(g14
g15
NtRp1282
(dp1283
g18
I1
sg19
I0
sg20
I37
sg21
I0
sg22
I0
sg23
I27
sg24
I0
sbssg25
S'\xf9]\xb0\xe3\xc6\x83\xc7\xfa\x95\x83<<\x8e0\xa2\x11'
p1284
ssS'_Library_Python_2_7_site-packages_south_management___init__'
p1285
(dp1286
g45
(dp1287
g8
S'_Library_Python_2_7_site-packages_south_management___init__.html'
p1288
sg10
S'/Library/Python/2.7/site-packages/south/management/__init__'
p1289
sg12
g13
(g14
g15
NtRp1290
(dp1291
g18
I1
sg19
I0
sg20
I0
sg21
I0
sg22
I0
sg23
I0
sg24
I0
sbssg51
S'\xb0\xc8pN\xaf>\xa0\xbaz\x144\xe0A9\xb8?'
p1292
ssS'_Library_Python_2_7_site-packages_django_views___init__'
p1293
(dp1294
g6
(dp1295
g56
S'_Library_Python_2_7_site-packages_django_views___init__.html'
p1296
sg58
S'/Library/Python/2.7/site-packages/django/views/__init__'
p1297
sg60
g13
(g14
g15
NtRp1298
(dp1299
g18
I1
sg19
I0
sg20
I0
sg21
I0
sg22
I0
sg23
I0
sg24
I0
sbssg25
S'\xb0\xc8pN\xaf>\xa0\xbaz\x144\xe0A9\xb8?'
p1300
ssS'_Library_Python_2_7_site-packages_django_utils_module_loading'
p1301
(dp1302
g6
(dp1303
g56
S'_Library_Python_2_7_site-packages_django_utils_module_loading.html'
p1304
sg58
S'/Library/Python/2.7/site-packages/django/utils/module_loading'
p1305
sg60
g13
(g14
g15
NtRp1306
(dp1307
g18
I1
sg19
I0
sg20
I48
sg21
I0
sg22
I0
sg23
I44
sg24
I0
sbssg25
S'\x81\xbe\xb4\xca\xff\xe8Z\x15]\x06\xfc\xf1\xc4\xd9\x9a;'
p1308
ssS'_Library_Python_2_7_site-packages_django_contrib_sessions_backends_db'
p1309
(dp1310
g45
(dp1311
g8
S'_Library_Python_2_7_site-packages_django_contrib_sessions_backends_db.html'
p1312
sg10
S'/Library/Python/2.7/site-packages/django/contrib/sessions/backends/db'
p1313
sg12
g13
(g14
g15
NtRp1314
(dp1315
g18
I1
sg19
I0
sg20
I48
sg21
I0
sg22
I0
sg23
I35
sg24
I0
sbssg51
S'\xa8\xfcSLV\x1eW\x07\x8e\x07\xe0H\xb4\xfd\xb2\xaa'
p1316
ssS'_Library_Python_2_7_site-packages_django_core_handlers_wsgi'
p1317
(dp1318
g6
(dp1319
g56
S'_Library_Python_2_7_site-packages_django_core_handlers_wsgi.html'
p1320
sg58
S'/Library/Python/2.7/site-packages/django/core/handlers/wsgi'
p1321
sg60
g13
(g14
g15
NtRp1322
(dp1323
g18
I1
sg19
I0
sg20
I142
sg21
I0
sg22
I0
sg23
I103
sg24
I0
sbssg25
S'\xa83\xcc]\xf1\xe5\xea,\xf9m+\xb2l\x89&V'
p1324
ssS'_Library_Python_2_7_site-packages_django_core_management_commands_test'
p1325
(dp1326
g6
(dp1327
g147
S'_Library_Python_2_7_site-packages_django_core_management_commands_test.html'
p1328
sg149
S'/Library/Python/2.7/site-packages/django/core/management/commands/test'
p1329
sg151
g13
(g14
g15
NtRp1330
(dp1331
g18
I1
sg19
I0
sg20
I37
sg21
I0
sg22
I0
sg23
I5
sg24
I0
sbssg25
S'\xbf\x7f\xf75F!\xdb\xb2\xb5\xf1V\xa5a\xd1\x86\x8f'
p1332
ssS'_Library_Python_2_7_site-packages_django_views_decorators___init__'
p1333
(dp1334
g45
(dp1335
g8
S'_Library_Python_2_7_site-packages_django_views_decorators___init__.html'
p1336
sg10
S'/Library/Python/2.7/site-packages/django/views/decorators/__init__'
p1337
sg12
g13
(g14
g15
NtRp1338
(dp1339
g18
I1
sg19
I0
sg20
I0
sg21
I0
sg22
I0
sg23
I0
sg24
I0
sbssg51
S'\xb0\xc8pN\xaf>\xa0\xbaz\x144\xe0A9\xb8?'
p1340
ssS'_Library_Python_2_7_site-packages_django_core_wsgi'
p1341
(dp1342
g6
(dp1343
g56
S'_Library_Python_2_7_site-packages_django_core_wsgi.html'
p1344
sg58
S'/Library/Python/2.7/site-packages/django/core/wsgi'
p1345
sg60
g13
(g14
g15
NtRp1346
(dp1347
g18
I1
sg19
I0
sg20
I3
sg21
I0
sg22
I0
sg23
I1
sg24
I0
sbssg25
S' \x0e\x1b\xd1D\xd0\x13<c\x84?v\xdf\xd1\xf8\x84'
p1348
ssS'_Library_Python_2_7_site-packages_django_utils_dateformat'
p1349
(dp1350
g6
(dp1351
g56
S'_Library_Python_2_7_site-packages_django_utils_dateformat.html'
p1352
sg58
S'/Library/Python/2.7/site-packages/django/utils/dateformat'
p1353
sg60
g13
(g14
g15
NtRp1354
(dp1355
g18
I1
sg19
I0
sg20
I179
sg21
I0
sg22
I0
sg23
I119
sg24
I0
sbssg25
S'\xdc\xcf>\x08@dl\xf9\xb7\x16\x8bmQ\x05\x80?'
p1356
ssS'_Library_Python_2_7_site-packages_django_contrib_staticfiles_utils'
p1357
(dp1358
g6
(dp1359
g56
S'_Library_Python_2_7_site-packages_django_contrib_staticfiles_utils.html'
p1360
sg58
S'/Library/Python/2.7/site-packages/django/contrib/staticfiles/utils'
p1361
sg60
g13
(g14
g15
NtRp1362
(dp1363
g18
I1
sg19
I0
sg20
I37
sg21
I0
sg22
I0
sg23
I30
sg24
I0
sbssg25
S'Q\x99\xe3\x98\xf4\xbc\tTg\xbc\xed\xbd\\\xf9Q\xdd'
p1364
ssS'_Library_Python_2_7_site-packages_django_contrib_staticfiles_storage'
p1365
(dp1366
g6
(dp1367
g56
S'_Library_Python_2_7_site-packages_django_contrib_staticfiles_storage.html'
p1368
sg58
S'/Library/Python/2.7/site-packages/django/contrib/staticfiles/storage'
p1369
sg60
g13
(g14
g15
NtRp1370
(dp1371
g18
I1
sg19
I0
sg20
I160
sg21
I0
sg22
I0
sg23
I123
sg24
I0
sbssg25
S'\xaa\r\x86\xab~\xed\x19m\xcd\x7f\xc7\xc9\xd2up\x99'
p1372
ssS'_Library_Python_2_7_site-packages_dj_database_url'
p1373
(dp1374
g6
(dp1375
g56
S'_Library_Python_2_7_site-packages_dj_database_url.html'
p1376
sg58
S'/Library/Python/2.7/site-packages/dj_database_url'
p1377
sg60
g13
(g14
g15
NtRp1378
(dp1379
g18
I1
sg19
I0
sg20
I28
sg21
I0
sg22
I0
sg23
I15
sg24
I0
sbssg25
S'\xdd\xd7\xce\xa7\xb2\x1b\xe3zmb\xa2(\x13x\xc9\xba'
p1380
ssS'carpool_settings'
p1381
(dp1382
g6
(dp1383
g8
S'carpool_settings.html'
p1384
sg10
S'carpool/settings'
p1385
sg12
g13
(g14
g15
NtRp1386
(dp1387
g18
I1
sg19
I0
sg20
I33
sg21
I0
sg22
I0
sg23
I0
sg24
I0
sbssg25
S'f\xe9\xd1OsQ\xecz4\x11\xc4\x89\x9e\xbd\x8f\xca'
p1388
ssS'_Library_Python_2_7_site-packages_django_db_models_fields_files'
p1389
(dp1390
g6
(dp1391
g56
S'_Library_Python_2_7_site-packages_django_db_models_fields_files.html'
p1392
sg58
S'/Library/Python/2.7/site-packages/django/db/models/fields/files'
p1393
sg60
g13
(g14
g15
NtRp1394
(dp1395
g18
I1
sg19
I0
sg20
I203
sg21
I0
sg22
I0
sg23
I136
sg24
I0
sbssg25
S'\xf4\xb4\x1e?\xfe\x16\xa2[\xe6\x86\xd1\x06\xc4\xd8\x1cn'
p1396
ssS'_Library_Python_2_7_site-packages_django_conf_locale___init__'
p1397
(dp1398
g45
(dp1399
g8
S'_Library_Python_2_7_site-packages_django_conf_locale___init__.html'
p1400
sg10
S'/Library/Python/2.7/site-packages/django/conf/locale/__init__'
p1401
sg12
g13
(g14
g15
NtRp1402
(dp1403
g18
I1
sg19
I0
sg20
I1
sg21
I0
sg22
I0
sg23
I0
sg24
I0
sbssg51
S'\xca\x13\xff\x014\xc8\xe6I\xcb\xd3B<uIk\xbe'
p1404
ssS'_Library_Python_2_7_site-packages_django_contrib_staticfiles_finders'
p1405
(dp1406
g6
(dp1407
g56
S'_Library_Python_2_7_site-packages_django_contrib_staticfiles_finders.html'
p1408
sg58
S'/Library/Python/2.7/site-packages/django/contrib/staticfiles/finders'
p1409
sg60
g13
(g14
g15
NtRp1410
(dp1411
g18
I1
sg19
I0
sg20
I158
sg21
I0
sg22
I0
sg23
I121
sg24
I0
sbssg25
S'\xa8\nv\xabZ\xf0a.\xaf\x0b\xa78\xba\n\xa2\x9b'
p1412
ssS'carpoolapp_tests'
p1413
(dp1414
g45
(dp1415
g147
S'carpoolapp_tests.html'
p1416
sg149
S'carpoolapp/tests'
p1417
sg151
g13
(g14
g15
NtRp1418
(dp1419
g18
I1
sg19
I0
sg20
I222
sg21
I0
sg22
I0
sg23
I141
sg24
I0
sbssg51
S'\x85,\xac\r\xcf:~Wq\x12Pr\xd5H\x89\xb5'
p1420
ssS'_Library_Python_2_7_site-packages_south_db_postgresql_psycopg2'
p1421
(dp1422
g45
(dp1423
g8
S'_Library_Python_2_7_site-packages_south_db_postgresql_psycopg2.html'
p1424
sg10
S'/Library/Python/2.7/site-packages/south/db/postgresql_psycopg2'
p1425
sg12
g13
(g14
g15
NtRp1426
(dp1427
g18
I1
sg19
I0
sg20
I44
sg21
I0
sg22
I0
sg23
I31
sg24
I0
sbssg51
S'<e\x82\xd9\xff\xa2\xf6\xe9R\x98N9\x06\xecF\xe4'
p1428
ssS'_Library_Python_2_7_site-packages_django_core_validators'
p1429
(dp1430
g6
(dp1431
g8
S'_Library_Python_2_7_site-packages_django_core_validators.html'
p1432
sg10
S'/Library/Python/2.7/site-packages/django/core/validators'
p1433
sg12
g13
(g14
g15
NtRp1434
(dp1435
g18
I1
sg19
I0
sg20
I157
sg21
I0
sg22
I0
sg23
I86
sg24
I0
sbssg25
S'\xf3\xf8\xd1\x02\x01\xf0\x8a\xe3D\x8a?hk\x87s\x83'
p1436
ssS'_Library_Python_2_7_site-packages_django_contrib_auth_signals'
p1437
(dp1438
g6
(dp1439
g56
S'_Library_Python_2_7_site-packages_django_contrib_auth_signals.html'
p1440
sg58
S'/Library/Python/2.7/site-packages/django/contrib/auth/signals'
p1441
sg60
g13
(g14
g15
NtRp1442
(dp1443
g18
I1
sg19
I0
sg20
I3
sg21
I0
sg22
I0
sg23
I0
sg24
I0
sbssg25
S'\x13\x17\x85\x98\x81\r`\x1b~4\x04;\x16\x9b%L'
p1444
ssS'_Library_Python_2_7_site-packages_django_core_urlresolvers'
p1445
(dp1446
g6
(dp1447
g56
S'_Library_Python_2_7_site-packages_django_core_urlresolvers.html'
p1448
sg58
S'/Library/Python/2.7/site-packages/django/core/urlresolvers'
p1449
sg60
g13
(g14
g15
NtRp1450
(dp1451
g18
I1
sg19
I0
sg20
I339
sg21
I0
sg22
I0
sg23
I269
sg24
I0
sbssg25
S'\n\xe9\xc0\x1f\x92Y\xa4\xbb\xb7\xdc!/\x03\xfdZ%'
p1452
ssS'_Library_Python_2_7_site-packages_django_forms_forms'
p1453
(dp1454
g6
(dp1455
g56
S'_Library_Python_2_7_site-packages_django_forms_forms.html'
p1456
sg58
S'/Library/Python/2.7/site-packages/django/forms/forms'
p1457
sg60
g13
(g14
g15
NtRp1458
(dp1459
g18
I1
sg19
I0
sg20
I280
sg21
I0
sg22
I0
sg23
I196
sg24
I0
sbssg25
S'\x140\xadHhu71\x9e$\xd4\x11\xc0e\tC'
p1460
ssS'_Library_Python_2_7_site-packages_django_core_management_base'
p1461
(dp1462
g6
(dp1463
g147
S'_Library_Python_2_7_site-packages_django_core_management_base.html'
p1464
sg149
S'/Library/Python/2.7/site-packages/django/core/management/base'
p1465
sg151
g13
(g14
g15
NtRp1466
(dp1467
g18
I1
sg19
I0
sg20
I133
sg21
I0
sg22
I0
sg23
I56
sg24
I0
sbssg25
S'\x8e\x15\x17\xb7\xc1\xd2\xd1M\x17\xb0\\6\xb0o\xc7t'
p1468
ssS'_Library_Python_2_7_site-packages_django_contrib_messages_models'
p1469
(dp1470
g45
(dp1471
g8
S'_Library_Python_2_7_site-packages_django_contrib_messages_models.html'
p1472
sg10
S'/Library/Python/2.7/site-packages/django/contrib/messages/models'
p1473
sg12
g13
(g14
g15
NtRp1474
(dp1475
g18
I1
sg19
I0
sg20
I0
sg21
I0
sg22
I0
sg23
I0
sg24
I0
sbssg51
S'}\xf8)\x98N\x1e\xef\xd8Ky\x9f\x03d\x14L\xac'
p1476
ssS'_Library_Python_2_7_site-packages_django_core_files_storage'
p1477
(dp1478
g6
(dp1479
g56
S'_Library_Python_2_7_site-packages_django_core_files_storage.html'
p1480
sg58
S'/Library/Python/2.7/site-packages/django/core/files/storage'
p1481
sg60
g13
(g14
g15
NtRp1482
(dp1483
g18
I1
sg19
I0
sg20
I150
sg21
I0
sg22
I0
sg23
I104
sg24
I0
sbssg25
S'G\xe6\x06\xdc\xdb#\xe2EAMn~]\x1d\xe8\xb8'
p1484
ssS'_Library_Python_2_7_site-packages_django_db_models_sql_expressions'
p1485
(dp1486
g6
(dp1487
g56
S'_Library_Python_2_7_site-packages_django_db_models_sql_expressions.html'
p1488
sg58
S'/Library/Python/2.7/site-packages/django/db/models/sql/expressions'
p1489
sg60
g13
(g14
g15
NtRp1490
(dp1491
g18
I1
sg19
I0
sg20
I61
sg21
I0
sg22
I0
sg23
I48
sg24
I0
sbssg25
S'g\x06[\x98\xcbA\xf39\xba=F\xdf\xd4\x8dJ\x9f'
p1492
ssS'carpoolapp_models'
p1493
(dp1494
g45
(dp1495
g147
S'carpoolapp_models.html'
p1496
sg149
S'carpoolapp/models'
p1497
sg151
g13
(g14
g15
NtRp1498
(dp1499
g18
I1
sg19
I0
sg20
I171
sg21
I0
sg22
I0
sg23
I59
sg24
I0
sbssg51
S'E\xdb\x825&I\xc6^m\xc1\x9d`\xec"4\xc8'
p1500
ssS'_Library_Python_2_7_site-packages_django_core_serializers_base'
p1501
(dp1502
g45
(dp1503
g8
S'_Library_Python_2_7_site-packages_django_core_serializers_base.html'
p1504
sg10
S'/Library/Python/2.7/site-packages/django/core/serializers/base'
p1505
sg12
g13
(g14
g15
NtRp1506
(dp1507
g18
I1
sg19
I0
sg20
I74
sg21
I0
sg22
I0
sg23
I46
sg24
I0
sbssg51
S'\xfca\xe3x\xd1\xc5\x90\x8b\xcd\x06T\x1frS\xb1P'
p1508
ssS'_Library_Python_2_7_site-packages_django_utils__os'
p1509
(dp1510
g6
(dp1511
g56
S'_Library_Python_2_7_site-packages_django_utils__os.html'
p1512
sg58
S'/Library/Python/2.7/site-packages/django/utils/_os'
p1513
sg60
g13
(g14
g15
NtRp1514
(dp1515
g18
I1
sg19
I0
sg20
I32
sg21
I0
sg22
I0
sg23
I19
sg24
I0
sbssg25
S'\x00\x87*\xe1Z\xd9w\xa9\xefK\xab/\xb8P4\xe7'
p1516
ssS'_Library_Python_2_7_site-packages_django_core_paginator'
p1517
(dp1518
g45
(dp1519
g8
S'_Library_Python_2_7_site-packages_django_core_paginator.html'
p1520
sg10
S'/Library/Python/2.7/site-packages/django/core/paginator'
p1521
sg12
g13
(g14
g15
NtRp1522
(dp1523
g18
I1
sg19
I0
sg20
I103
sg21
I0
sg22
I0
sg23
I69
sg24
I0
sbssg51
S'l\x81\xf4\xe4\xf0\xa1\xe9\x101\xd8\x90y\xed\xdb_\x81'
p1524
ssS'_Library_Python_2_7_site-packages_django_utils_crypto'
p1525
(dp1526
g6
(dp1527
g56
S'_Library_Python_2_7_site-packages_django_utils_crypto.html'
p1528
sg58
S'/Library/Python/2.7/site-packages/django/utils/crypto'
p1529
sg60
g13
(g14
g15
NtRp1530
(dp1531
g18
I1
sg19
I0
sg20
I68
sg21
I0
sg22
I0
sg23
I48
sg24
I0
sbssg25
S'\xa3\xc5}l\x04ww\x01\xe1\xf0$\xbc\x1dW\xe7\x06'
p1532
ssS'_Library_Python_2_7_site-packages_django_core_handlers_base'
p1533
(dp1534
g6
(dp1535
g56
S'_Library_Python_2_7_site-packages_django_core_handlers_base.html'
p1536
sg58
S'/Library/Python/2.7/site-packages/django/core/handlers/base'
p1537
sg60
g13
(g14
g15
NtRp1538
(dp1539
g18
I1
sg19
I0
sg20
I151
sg21
I0
sg22
I0
sg23
I136
sg24
I0
sbssg25
S'\xdad\xee\x14\x17\x9bxc\xbc\xbd@:}Z\x18\xe1'
p1540
ssS'_Library_Python_2_7_site-packages_django_core_files___init__'
p1541
(dp1542
g6
(dp1543
g56
S'_Library_Python_2_7_site-packages_django_core_files___init__.html'
p1544
sg58
S'/Library/Python/2.7/site-packages/django/core/files/__init__'
p1545
sg60
g13
(g14
g15
NtRp1546
(dp1547
g18
I1
sg19
I0
sg20
I1
sg21
I0
sg22
I0
sg23
I0
sg24
I0
sbssg25
S"\xa1\xbfiA'\x85B\x1e\xd8\xe0\x91\xe3\xf7\x86\x81\xb2"
p1548
ssS'_Library_Python_2_7_site-packages_django_db_models_base'
p1549
(dp1550
g6
(dp1551
g8
S'_Library_Python_2_7_site-packages_django_db_models_base.html'
p1552
sg10
S'/Library/Python/2.7/site-packages/django/db/models/base'
p1553
sg12
g13
(g14
g15
NtRp1554
(dp1555
g18
I1
sg19
I0
sg20
I501
sg21
I0
sg22
I0
sg23
I292
sg24
I0
sbssg25
S')\x1b8}\x0f\xcbg\n3Y\x12jb\x9a\xb2\xb0'
p1556
ssS'_Library_Python_2_7_site-packages_django_core_mail_utils'
p1557
(dp1558
g6
(dp1559
g56
S'_Library_Python_2_7_site-packages_django_core_mail_utils.html'
p1560
sg58
S'/Library/Python/2.7/site-packages/django/core/mail/utils'
p1561
sg60
g13
(g14
g15
NtRp1562
(dp1563
g18
I1
sg19
I0
sg20
I9
sg21
I0
sg22
I0
sg23
I4
sg24
I0
sbssg25
S'q\x8f\x86\xa8\x10\xa1\x04\x98^\x0e\xe8\x93\xb7X\xaan'
p1564
ssS'_Library_Python_2_7_site-packages_django_conf_locale_en_formats'
p1565
(dp1566
g45
(dp1567
g8
S'_Library_Python_2_7_site-packages_django_conf_locale_en_formats.html'
p1568
sg10
S'/Library/Python/2.7/site-packages/django/conf/locale/en/formats'
p1569
sg12
g13
(g14
g15
NtRp1570
(dp1571
g18
I1
sg19
I0
sg20
I14
sg21
I0
sg22
I0
sg23
I0
sg24
I0
sbssg51
S"\x93\xc2\xcc\x9d\xd2\x99\xd1G=\xce'\xb0K\x93#R"
p1572
ssS'_Library_Python_2_7_site-packages_django_contrib_admin_options'
p1573
(dp1574
g45
(dp1575
g8
S'_Library_Python_2_7_site-packages_django_contrib_admin_options.html'
p1576
sg10
S'/Library/Python/2.7/site-packages/django/contrib/admin/options'
p1577
sg12
g13
(g14
g15
NtRp1578
(dp1579
g18
I1
sg19
I0
sg20
I735
sg21
I0
sg22
I0
sg23
I575
sg24
I0
sbssg51
S'\xc8\x08r%t\xb5\x9d}<\x1eQ\x8ezF\\\x9c'
p1580
ssS'_Library_Python_2_7_site-packages_django_test___init__'
p1581
(dp1582
g6
(dp1583
g56
S'_Library_Python_2_7_site-packages_django_test___init__.html'
p1584
sg58
S'/Library/Python/2.7/site-packages/django/test/__init__'
p1585
sg60
g13
(g14
g15
NtRp1586
(dp1587
g18
I1
sg19
I0
sg20
I3
sg21
I0
sg22
I0
sg23
I0
sg24
I0
sbssg25
S'~\xbeB^\xffy\x92\x8f\x9e\xd7\xdc\xd8\xa1\xe5\xe0\x03'
p1588
ssS'_Library_Python_2_7_site-packages_django_core_serializers___init__'
p1589
(dp1590
g45
(dp1591
g8
S'_Library_Python_2_7_site-packages_django_core_serializers___init__.html'
p1592
sg10
S'/Library/Python/2.7/site-packages/django/core/serializers/__init__'
p1593
sg12
g13
(g14
g15
NtRp1594
(dp1595
g18
I1
sg19
I0
sg20
I58
sg21
I0
sg22
I0
sg23
I40
sg24
I0
sbssg51
S'\x89\xbaB\x85\x82\xf4\n3d!d\xbf\xab\xe9e\x1a'
p1596
ssS'_Library_Python_2_7_site-packages_django_test_signals'
p1597
(dp1598
g6
(dp1599
g56
S'_Library_Python_2_7_site-packages_django_test_signals.html'
p1600
sg58
S'/Library/Python/2.7/site-packages/django/test/signals'
p1601
sg60
g13
(g14
g15
NtRp1602
(dp1603
g18
I1
sg19
I0
sg20
I17
sg21
I0
sg22
I0
sg23
I10
sg24
I0
sbssg25
S'6\xfb\xb9q?8\xcb\x90\x15G}\x9b\x9b\x8d\x82\x9d'
p1604
ssS'_Library_Python_2_7_site-packages_django_db_models_fields_subclassing'
p1605
(dp1606
g6
(dp1607
g56
S'_Library_Python_2_7_site-packages_django_db_models_fields_subclassing.html'
p1608
sg58
S'/Library/Python/2.7/site-packages/django/db/models/fields/subclassing'
p1609
sg60
g13
(g14
g15
NtRp1610
(dp1611
g18
I1
sg19
I0
sg20
I21
sg21
I0
sg22
I0
sg23
I14
sg24
I0
sbssg25
S'\x94\xfa\xe1\x9f\xf6\xcb\xa6\xb1N\xc5v\xa4\xcb\x9e\xd0n'
p1612
ssS'_Library_Python_2_7_site-packages_django_contrib_staticfiles_templatetags_staticfiles'
p1613
(dp1614
g45
(dp1615
g8
S'_Library_Python_2_7_site-packages_django_contrib_staticfiles_templatetags_staticfiles.html'
p1616
sg10
S'/Library/Python/2.7/site-packages/django/contrib/staticfiles/templatetags/staticfiles'
p1617
sg12
g13
(g14
g15
NtRp1618
(dp1619
g18
I1
sg19
I0
sg20
I5
sg21
I0
sg22
I0
sg23
I1
sg24
I0
sbssg51
S'\x83Er\x85\xa40\xc8\x00]b\x13\xde%\xb7\xc7\xc2'
p1620
ssS'_Library_Python_2_7_site-packages_django_test_testcases'
p1621
(dp1622
g6
(dp1623
g56
S'_Library_Python_2_7_site-packages_django_test_testcases.html'
p1624
sg58
S'/Library/Python/2.7/site-packages/django/test/testcases'
p1625
sg60
g13
(g14
g15
NtRp1626
(dp1627
g18
I1
sg19
I0
sg20
I583
sg21
I0
sg22
I0
sg23
I456
sg24
I0
sbssg25
S'\xe0\xb8]0>\xf2\x13@\xaf\xc3\xf4.vl[\xd3'
p1628
ssS'_Library_Python_2_7_site-packages_django_contrib_staticfiles___init__'
p1629
(dp1630
g6
(dp1631
g56
S'_Library_Python_2_7_site-packages_django_contrib_staticfiles___init__.html'
p1632
sg58
S'/Library/Python/2.7/site-packages/django/contrib/staticfiles/__init__'
p1633
sg60
g13
(g14
g15
NtRp1634
(dp1635
g18
I1
sg19
I0
sg20
I0
sg21
I0
sg22
I0
sg23
I0
sg24
I0
sbssg25
S'\xb0\xc8pN\xaf>\xa0\xbaz\x144\xe0A9\xb8?'
p1636
ssS'_Library_Python_2_7_site-packages_django_db_models_query_utils'
p1637
(dp1638
g6
(dp1639
g8
S'_Library_Python_2_7_site-packages_django_db_models_query_utils.html'
p1640
sg10
S'/Library/Python/2.7/site-packages/django/db/models/query_utils'
p1641
sg12
g13
(g14
g15
NtRp1642
(dp1643
g18
I1
sg19
I0
sg20
I78
sg21
I0
sg22
I0
sg23
I53
sg24
I0
sbssg25
S'\x81r,\xe6%{i\xa9EW\xc8\x03\x0b\xe9\x80\xdd'
p1644
ssS'_Library_Python_2_7_site-packages_django_utils_regex_helper'
p1645
(dp1646
g6
(dp1647
g56
S'_Library_Python_2_7_site-packages_django_utils_regex_helper.html'
p1648
sg58
S'/Library/Python/2.7/site-packages/django/utils/regex_helper'
p1649
sg60
g13
(g14
g15
NtRp1650
(dp1651
g18
I1
sg19
I0
sg20
I185
sg21
I0
sg22
I0
sg23
I175
sg24
I0
sbssg25
S'2\x17q\n3`<\x0f\xce\x8az\xb4\xd1\xc7s7'
p1652
ssS'_Library_Python_2_7_site-packages_django_utils_unittest_util'
p1653
(dp1654
g6
(dp1655
g56
S'_Library_Python_2_7_site-packages_django_utils_unittest_util.html'
p1656
sg58
S'/Library/Python/2.7/site-packages/django/utils/unittest/util'
p1657
sg60
g13
(g14
g15
NtRp1658
(dp1659
g18
I1
sg19
I0
sg20
I74
sg21
I0
sg22
I0
sg23
I67
sg24
I0
sbssg25
S'\xb2x_,\x84YY\x16\x91\xcb5(\xe8\x1c<\t'
p1660
ssS'_Library_Python_2_7_site-packages_validate_email'
p1661
(dp1662
g45
(dp1663
g8
S'_Library_Python_2_7_site-packages_validate_email.html'
p1664
sg10
S'/Library/Python/2.7/site-packages/validate_email'
p1665
sg12
g13
(g14
g15
NtRp1666
(dp1667
g18
I1
sg19
I0
sg20
I59
sg21
I0
sg22
I0
sg23
I20
sg24
I0
sbssg51
S"A\xf01\x95PU\x06O\xe7\x85\x05\xbe'\x15h\x87"
p1668
ssS'_Library_Python_2_7_site-packages_django_utils_importlib'
p1669
(dp1670
g6
(dp1671
g56
S'_Library_Python_2_7_site-packages_django_utils_importlib.html'
p1672
sg58
S'/Library/Python/2.7/site-packages/django/utils/importlib'
p1673
sg60
g13
(g14
g15
NtRp1674
(dp1675
g18
I1
sg19
I0
sg20
I23
sg21
I0
sg22
I0
sg23
I6
sg24
I0
sbssg25
S'\xba\x10A\xccg\xac\xd0\xe2\xb9QBQ3\x8d\xc0\x01'
p1676
ssS'_Library_Python_2_7_site-packages_django_middleware___init__'
p1677
(dp1678
g45
(dp1679
g8
S'_Library_Python_2_7_site-packages_django_middleware___init__.html'
p1680
sg10
S'/Library/Python/2.7/site-packages/django/middleware/__init__'
p1681
sg12
g13
(g14
g15
NtRp1682
(dp1683
g18
I1
sg19
I0
sg20
I0
sg21
I0
sg22
I0
sg23
I0
sg24
I0
sbssg51
S'\xb0\xc8pN\xaf>\xa0\xbaz\x144\xe0A9\xb8?'
p1684
ssS'_Library_Python_2_7_site-packages_south_orm'
p1685
(dp1686
g45
(dp1687
g8
S'_Library_Python_2_7_site-packages_south_orm.html'
p1688
sg10
S'/Library/Python/2.7/site-packages/south/orm'
p1689
sg12
g13
(g14
g15
NtRp1690
(dp1691
g18
I1
sg19
I0
sg20
I210
sg21
I0
sg22
I0
sg23
I179
sg24
I0
sbssg51
S"^\x14Q\xcf\x19\x196'\xdf\x8a\xc2VI\xc2n:"
p1692
ssS'_Library_Python_2_7_site-packages_django_conf_locale_en___init__'
p1693
(dp1694
g45
(dp1695
g8
S'_Library_Python_2_7_site-packages_django_conf_locale_en___init__.html'
p1696
sg10
S'/Library/Python/2.7/site-packages/django/conf/locale/en/__init__'
p1697
sg12
g13
(g14
g15
NtRp1698
(dp1699
g18
I1
sg19
I0
sg20
I0
sg21
I0
sg22
I0
sg23
I0
sg24
I0
sbssg51
S'\xb0\xc8pN\xaf>\xa0\xbaz\x144\xe0A9\xb8?'
p1700
ssS'_Library_Python_2_7_site-packages_django_contrib_sessions_models'
p1701
(dp1702
g45
(dp1703
g8
S'_Library_Python_2_7_site-packages_django_contrib_sessions_models.html'
p1704
sg10
S'/Library/Python/2.7/site-packages/django/contrib/sessions/models'
p1705
sg12
g13
(g14
g15
NtRp1706
(dp1707
g18
I1
sg19
I0
sg20
I23
sg21
I0
sg22
I0
sg23
I7
sg24
I0
sbssg51
S'< \xef\x96\xa0\x8c\xd8\xe9~\n\xbb7\xe7U\xf3['
p1708
ssS'_Library_Python_2_7_site-packages_django_db_backends_postgresql_psycopg2_base'
p1709
(dp1710
g6
(dp1711
g8
S'_Library_Python_2_7_site-packages_django_db_backends_postgresql_psycopg2_base.html'
p1712
sg10
S'/Library/Python/2.7/site-packages/django/db/backends/postgresql_psycopg2/base'
p1713
sg12
g13
(g14
g15
NtRp1714
(dp1715
g18
I1
sg19
I0
sg20
I154
sg21
I0
sg22
I0
sg23
I38
sg24
I0
sbssg25
S'\xc3M\xf871\x9f$\xe8\x91\x10?W\xe7\xf3\xc4U'
p1716
ssS'_Library_Python_2_7_site-packages_django_template_loaders_app_directories'
p1717
(dp1718
g45
(dp1719
g8
S'_Library_Python_2_7_site-packages_django_template_loaders_app_directories.html'
p1720
sg10
S'/Library/Python/2.7/site-packages/django/template/loaders/app_directories'
p1721
sg12
g13
(g14
g15
NtRp1722
(dp1723
g18
I1
sg19
I0
sg20
I42
sg21
I0
sg22
I0
sg23
I20
sg24
I0
sbssg51
S'\x0b=hb\xe7\xba\x95^\r\x85\xe1ja]rL'
p1724
ssS'_Library_Python_2_7_site-packages_django_db_backends_postgresql_psycopg2_introspection'
p1725
(dp1726
g6
(dp1727
g8
S'_Library_Python_2_7_site-packages_django_db_backends_postgresql_psycopg2_introspection.html'
p1728
sg10
S'/Library/Python/2.7/site-packages/django/db/backends/postgresql_psycopg2/introspection'
p1729
sg12
g13
(g14
g15
NtRp1730
(dp1731
g18
I1
sg19
I0
sg20
I25
sg21
I0
sg22
I0
sg23
I16
sg24
I0
sbssg25
S'\x92\xd68\x82%\xc0\xc8\xbc\xe9\xa5\xfb\x07\xf9\t5\x87'
p1732
ssS'_Library_Python_2_7_site-packages_django_template_defaulttags'
p1733
(dp1734
g6
(dp1735
g56
S'_Library_Python_2_7_site-packages_django_template_defaulttags.html'
p1736
sg58
S'/Library/Python/2.7/site-packages/django/template/defaulttags'
p1737
sg60
g13
(g14
g15
NtRp1738
(dp1739
g18
I1
sg19
I0
sg20
I613
sg21
I0
sg22
I0
sg23
I502
sg24
I0
sbssg25
S'g\xf1\x83\xf1&T\x08e2f\x06\xb2*A@\x87'
p1740
ssS'_Library_Python_2_7_site-packages_django_contrib_contenttypes_management'
p1741
(dp1742
g45
(dp1743
g8
S'_Library_Python_2_7_site-packages_django_contrib_contenttypes_management.html'
p1744
sg10
S'/Library/Python/2.7/site-packages/django/contrib/contenttypes/management'
p1745
sg12
g13
(g14
g15
NtRp1746
(dp1747
g18
I1
sg19
I0
sg20
I34
sg21
I0
sg22
I0
sg23
I16
sg24
I0
sbssg51
S'\xd2\xa7CS\xcd\x03C\xa7\x93\x97MR0>\x84e'
p1748
ssS'_Library_Python_2_7_site-packages_django_contrib_messages_storage___init__'
p1749
(dp1750
g45
(dp1751
g8
S'_Library_Python_2_7_site-packages_django_contrib_messages_storage___init__.html'
p1752
sg10
S'/Library/Python/2.7/site-packages/django/contrib/messages/storage/__init__'
p1753
sg12
g13
(g14
g15
NtRp1754
(dp1755
g18
I1
sg19
I0
sg20
I18
sg21
I0
sg22
I0
sg23
I13
sg24
I0
sbssg51
S'\xa0\t\xb5\xe9\x01S\x15\\f\x1d\xb6\xd2t\x937\x8a'
p1756
ssS'_Library_Python_2_7_site-packages_django_contrib_admin_models'
p1757
(dp1758
g45
(dp1759
g8
S'_Library_Python_2_7_site-packages_django_contrib_admin_models.html'
p1760
sg10
S'/Library/Python/2.7/site-packages/django/contrib/admin/models'
p1761
sg12
g13
(g14
g15
NtRp1762
(dp1763
g18
I1
sg19
I0
sg20
I50
sg21
I0
sg22
I0
sg23
I17
sg24
I0
sbssg51
S'\x01\x0byuK}\x1eM\xc7\xc6Yf\x8f=\xd3\xbf'
p1764
ssS'_Library_Python_2_7_site-packages_django_contrib_staticfiles_templatetags___init__'
p1765
(dp1766
g45
(dp1767
g8
S'_Library_Python_2_7_site-packages_django_contrib_staticfiles_templatetags___init__.html'
p1768
sg10
S'/Library/Python/2.7/site-packages/django/contrib/staticfiles/templatetags/__init__'
p1769
sg12
g13
(g14
g15
NtRp1770
(dp1771
g18
I1
sg19
I0
sg20
I0
sg21
I0
sg22
I0
sg23
I0
sg24
I0
sbssg51
S'\xb0\xc8pN\xaf>\xa0\xbaz\x144\xe0A9\xb8?'
p1772
ssS'_Library_Python_2_7_site-packages_django_contrib_admin_util'
p1773
(dp1774
g45
(dp1775
g8
S'_Library_Python_2_7_site-packages_django_contrib_admin_util.html'
p1776
sg10
S'/Library/Python/2.7/site-packages/django/contrib/admin/util'
p1777
sg12
g13
(g14
g15
NtRp1778
(dp1779
g18
I1
sg19
I0
sg20
I256
sg21
I0
sg22
I0
sg23
I217
sg24
I0
sbssg51
S'U\x0b\xcc\xa7dQ\x96k\x9bc\x9e\x19\xc7\x9f?b'
p1780
ssS'_Library_Python_2_7_site-packages_psycopg2_tz'
p1781
(dp1782
g6
(dp1783
g56
S'_Library_Python_2_7_site-packages_psycopg2_tz.html'
p1784
sg58
S'/Library/Python/2.7/site-packages/psycopg2/tz'
p1785
sg60
g13
(g14
g15
NtRp1786
(dp1787
g18
I1
sg19
I0
sg20
I61
sg21
I0
sg22
I0
sg23
I37
sg24
I0
sbssg25
S'\x8a\x91&\x8c\x99\xa5\xaa|k3l\xbe(\xb4\xfe8'
p1788
ssS'_Library_Python_2_7_site-packages_django_contrib_staticfiles_handlers'
p1789
(dp1790
g6
(dp1791
g56
S'_Library_Python_2_7_site-packages_django_contrib_staticfiles_handlers.html'
p1792
sg58
S'/Library/Python/2.7/site-packages/django/contrib/staticfiles/handlers'
p1793
sg60
g13
(g14
g15
NtRp1794
(dp1795
g18
I1
sg19
I0
sg20
I40
sg21
I0
sg22
I0
sg23
I25
sg24
I0
sbssg25
S'\xc9\xf1t\x83\xcf\x01k\x14\x7f1\xa8\xd7,\xaf\xb3}'
p1796
ssS'_Library_Python_2_7_site-packages_django_db_backends_postgresql_psycopg2_creation'
p1797
(dp1798
g6
(dp1799
g8
S'_Library_Python_2_7_site-packages_django_db_backends_postgresql_psycopg2_creation.html'
p1800
sg10
S'/Library/Python/2.7/site-packages/django/db/backends/postgresql_psycopg2/creation'
p1801
sg12
g13
(g14
g15
NtRp1802
(dp1803
g18
I1
sg19
I0
sg20
I35
sg21
I0
sg22
I0
sg23
I7
sg24
I0
sbssg25
S'\x9c\xa8\xd2\x1a\x05\xd1\xb7\x80\xeeS\x12\xaa\x1dnI\xee'
p1804
ssS'_Library_Python_2_7_site-packages_django_db_backends_creation'
p1805
(dp1806
g6
(dp1807
g8
S'_Library_Python_2_7_site-packages_django_db_backends_creation.html'
p1808
sg10
S'/Library/Python/2.7/site-packages/django/db/backends/creation'
p1809
sg12
g13
(g14
g15
NtRp1810
(dp1811
g18
I1
sg19
I0
sg20
I212
sg21
I0
sg22
I0
sg23
I72
sg24
I0
sbssg25
S'\xa8\xb3\x8c\xed\x02\x861r\x80\xb9|\xee\x89\xe6\xe1\xbc'
p1812
ssS'_Library_Python_2_7_site-packages_django_core_mail_message'
p1813
(dp1814
g6
(dp1815
g56
S'_Library_Python_2_7_site-packages_django_core_mail_message.html'
p1816
sg58
S'/Library/Python/2.7/site-packages/django/core/mail/message'
p1817
sg60
g13
(g14
g15
NtRp1818
(dp1819
g18
I1
sg19
I0
sg20
I210
sg21
I0
sg22
I0
sg23
I157
sg24
I0
sbssg25
S'\x05\xd4\xb5\xcf/\xd7O 6\xd2\x14\xcfYa\x0eS'
p1820
ssS'_Library_Python_2_7_site-packages_south_db___init__'
p1821
(dp1822
g45
(dp1823
g8
S'_Library_Python_2_7_site-packages_south_db___init__.html'
p1824
sg10
S'/Library/Python/2.7/site-packages/south/db/__init__'
p1825
sg12
g13
(g14
g15
NtRp1826
(dp1827
g18
I1
sg19
I0
sg20
I24
sg21
I0
sg22
I0
sg23
I9
sg24
I0
sbssg51
S'\xff\x0e\xb2\x8d\xb9x\xab1H}\\\x8e\x8f\xe5",'
p1828
ssS'_Library_Python_2_7_site-packages_django_core_cache_backends___init__'
p1829
(dp1830
g6
(dp1831
g56
S'_Library_Python_2_7_site-packages_django_core_cache_backends___init__.html'
p1832
sg58
S'/Library/Python/2.7/site-packages/django/core/cache/backends/__init__'
p1833
sg60
g13
(g14
g15
NtRp1834
(dp1835
g18
I1
sg19
I0
sg20
I0
sg21
I0
sg22
I0
sg23
I0
sg24
I0
sbssg25
S'\xb0\xc8pN\xaf>\xa0\xbaz\x144\xe0A9\xb8?'
p1836
ssS'_Library_Python_2_7_site-packages_django_template_defaultfilters'
p1837
(dp1838
g6
(dp1839
g56
S'_Library_Python_2_7_site-packages_django_template_defaultfilters.html'
p1840
sg58
S'/Library/Python/2.7/site-packages/django/template/defaultfilters'
p1841
sg60
g13
(g14
g15
NtRp1842
(dp1843
g18
I1
sg19
I0
sg20
I457
sg21
I0
sg22
I0
sg23
I326
sg24
I0
sbssg25
S'\xb8\xee\x1e9\xb8a\x93\xb8\xec\xec\xd2\x124A\xc8&'
p1844
ssS'_Library_Python_2_7_site-packages_south_exceptions'
p1845
(dp1846
g45
(dp1847
g8
S'_Library_Python_2_7_site-packages_south_exceptions.html'
p1848
sg10
S'/Library/Python/2.7/site-packages/south/exceptions'
p1849
sg12
g13
(g14
g15
NtRp1850
(dp1851
g18
I1
sg19
I0
sg20
I92
sg21
I0
sg22
I0
sg23
I42
sg24
I0
sbssg51
S"\xf6\xb5\xe7\xed\x83\xa5E\xca\x95\x13\x82 w'\xe1\x99"
p1852
ssS'_Library_Python_2_7_site-packages_south_migration_utils'
p1853
(dp1854
g45
(dp1855
g8
S'_Library_Python_2_7_site-packages_south_migration_utils.html'
p1856
sg10
S'/Library/Python/2.7/site-packages/south/migration/utils'
p1857
sg12
g13
(g14
g15
NtRp1858
(dp1859
g18
I1
sg19
I0
sg20
I55
sg21
I0
sg22
I0
sg23
I33
sg24
I0
sbssg51
S'\xad\xb9E\xb6\tu\xaa}\x8byA\xb9\xc60\xde8'
p1860
ssS'_Library_Python_2_7_site-packages_django_utils_translation_trans_real'
p1861
(dp1862
g6
(dp1863
g8
S'_Library_Python_2_7_site-packages_django_utils_translation_trans_real.html'
p1864
sg10
S'/Library/Python/2.7/site-packages/django/utils/translation/trans_real'
p1865
sg12
g13
(g14
g15
NtRp1866
(dp1867
g18
I1
sg19
I0
sg20
I365
sg21
I0
sg22
I0
sg23
I226
sg24
I0
sbssg25
S"\x14:\xab+qr&'\xc6\xd3\x0b\xac\x8b1^!"
p1868
ssS'_Library_Python_2_7_site-packages_django_core_exceptions'
p1869
(dp1870
g6
(dp1871
g56
S'_Library_Python_2_7_site-packages_django_core_exceptions.html'
p1872
sg58
S'/Library/Python/2.7/site-packages/django/core/exceptions'
p1873
sg60
g13
(g14
g15
NtRp1874
(dp1875
g18
I1
sg19
I0
sg20
I48
sg21
I0
sg22
I0
sg23
I24
sg24
I0
sbssg25
S'a\xe3\xad\nKH\xdek\xda\xd5\x03\x9fP\x15\xc6\xc6'
p1876
ssS'_Library_Python_2_7_site-packages_django_core_files_uploadedfile'
p1877
(dp1878
g6
(dp1879
g56
S'_Library_Python_2_7_site-packages_django_core_files_uploadedfile.html'
p1880
sg58
S'/Library/Python/2.7/site-packages/django/core/files/uploadedfile'
p1881
sg60
g13
(g14
g15
NtRp1882
(dp1883
g18
I1
sg19
I0
sg20
I63
sg21
I0
sg22
I0
sg23
I34
sg24
I0
sbssg25
S'yv\x0b\xbdw\xa4\xc6\xdf\xafC\xedY\xae\xd2\xc2\xda'
p1884
ssS'carpoolapp_testUtils'
p1885
(dp1886
g45
(dp1887
g8
S'carpoolapp_testUtils.html'
p1888
sg10
S'carpoolapp/testUtils'
p1889
sg12
g13
(g14
g15
NtRp1890
(dp1891
g18
I1
sg19
I0
sg20
I55
sg21
I0
sg22
I0
sg23
I0
sg24
I0
sbssg51
S'\xc2\x04YV\x8d6\x8d\xfe\x90\x87>W3z\x1c\xec'
p1892
ssS'_Library_Python_2_7_site-packages_south_signals'
p1893
(dp1894
g45
(dp1895
g8
S'_Library_Python_2_7_site-packages_south_signals.html'
p1896
sg10
S'/Library/Python/2.7/site-packages/south/signals'
p1897
sg12
g13
(g14
g15
NtRp1898
(dp1899
g18
I1
sg19
I0
sg20
I5
sg21
I0
sg22
I0
sg23
I0
sg24
I0
sbssg51
S']\x7fp!\xd57kP\xa7oZjp4\x8eu'
p1900
ssS'carpoolapp_unitTest'
p1901
(dp1902
g45
(dp1903
g446
S'carpoolapp_unitTest.html'
p1904
sg448
S'carpoolapp/unitTest'
p1905
sg450
g13
(g14
g15
NtRp1906
(dp1907
g18
I1
sg19
I0
sg20
I355
sg21
I0
sg22
I0
sg23
I0
sg24
I0
sbssg51
S'\xfb?;\xa1y\xc6BP\xc4dR\xc7V\xde\x7fr'
p1908
ssS'_Library_Python_2_7_site-packages_django_core_serializers_json'
p1909
(dp1910
g45
(dp1911
g446
S'_Library_Python_2_7_site-packages_django_core_serializers_json.html'
p1912
sg448
S'/Library/Python/2.7/site-packages/django/core/serializers/json'
p1913
sg450
g13
(g14
g15
NtRp1914
(dp1915
g18
I1
sg19
I0
sg20
I50
sg21
I0
sg22
I0
sg23
I25
sg24
I0
sbssg51
S'\xa9\xcd\xe5\xd4\xc9\xa3\xccC!\x92\x95hK\xd1\xc1K'
p1916
ssS'_Library_Python_2_7_site-packages_django_template_response'
p1917
(dp1918
g45
(dp1919
g8
S'_Library_Python_2_7_site-packages_django_template_response.html'
p1920
sg10
S'/Library/Python/2.7/site-packages/django/template/response'
p1921
sg12
g13
(g14
g15
NtRp1922
(dp1923
g18
I1
sg19
I0
sg20
I72
sg21
I0
sg22
I0
sg23
I50
sg24
I0
sbssg51
S'\xb1\xac\xaba\xdcM\xb4\x07\xb1\xe5\xcb\xf3\x13&v\xf8'
p1924
ssS'_Library_Python_2_7_site-packages_django_db_models_sql_compiler'
p1925
(dp1926
g45
(dp1927
g8
S'_Library_Python_2_7_site-packages_django_db_models_sql_compiler.html'
p1928
sg10
S'/Library/Python/2.7/site-packages/django/db/models/sql/compiler'
p1929
sg12
g13
(g14
g15
NtRp1930
(dp1931
g18
I1
sg19
I0
sg20
I653
sg21
I0
sg22
I0
sg23
I360
sg24
I0
sbssg51
S'\x7f0B\xe9\x91^\xab,%`\xed=L\\5\x94'
p1932
ssS'_Library_Python_2_7_site-packages_django_contrib_staticfiles_views'
p1933
(dp1934
g6
(dp1935
g56
S'_Library_Python_2_7_site-packages_django_contrib_staticfiles_views.html'
p1936
sg58
S'/Library/Python/2.7/site-packages/django/contrib/staticfiles/views'
p1937
sg60
g13
(g14
g15
NtRp1938
(dp1939
g18
I1
sg19
I0
sg20
I19
sg21
I0
sg22
I0
sg23
I10
sg24
I0
sbssg25
S'Vs\xc8u\t8L5\x1d\x00\x8b\x0c&\xbd  '
p1940
ssS'_Library_Python_2_7_site-packages_django_contrib_contenttypes_models'
p1941
(dp1942
g45
(dp1943
g8
S'_Library_Python_2_7_site-packages_django_contrib_contenttypes_models.html'
p1944
sg10
S'/Library/Python/2.7/site-packages/django/contrib/contenttypes/models'
p1945
sg12
g13
(g14
g15
NtRp1946
(dp1947
g18
I1
sg19
I0
sg20
I91
sg21
I0
sg22
I0
sg23
I45
sg24
I0
sbssg51
S'\xa2X\xbdIa\x05\x16m\xea%\xd8\x1e\x81\xa2\xc2\xa1'
p1948
ssS'_Library_Python_2_7_site-packages_south_models'
p1949
(dp1950
g45
(dp1951
g8
S'_Library_Python_2_7_site-packages_south_models.html'
p1952
sg10
S'/Library/Python/2.7/site-packages/south/models'
p1953
sg12
g13
(g14
g15
NtRp1954
(dp1955
g18
I1
sg19
I0
sg20
I21
sg21
I0
sg22
I0
sg23
I11
sg24
I0
sbssg51
S'\x0b\x1b\xa5\x01\x13\xbe\x84\xa8\xdf \xb2+\xdf\xbf\xcc\xe2'
p1956
ssS'_Library_Python_2_7_site-packages_django_db_backends_postgresql_psycopg2_operations'
p1957
(dp1958
g6
(dp1959
g8
S'_Library_Python_2_7_site-packages_django_db_backends_postgresql_psycopg2_operations.html'
p1960
sg10
S'/Library/Python/2.7/site-packages/django/db/backends/postgresql_psycopg2/operations'
p1961
sg12
g13
(g14
g15
NtRp1962
(dp1963
g18
I1
sg19
I0
sg20
I99
sg21
I0
sg22
I0
sg23
I44
sg24
I0
sbssg25
S'x\xbd~\xe7>R\xf1\xf3\n\xe0&\xfb\x10"\xf40'
p1964
ssS'_Library_Python_2_7_site-packages_django_utils_ipv6'
p1965
(dp1966
g6
(dp1967
g56
S'_Library_Python_2_7_site-packages_django_utils_ipv6.html'
p1968
sg58
S'/Library/Python/2.7/site-packages/django/utils/ipv6'
p1969
sg60
g13
(g14
g15
NtRp1970
(dp1971
g18
I1
sg19
I0
sg20
I107
sg21
I0
sg22
I0
sg23
I100
sg24
I0
sbssg25
S'J^YM\xe4\x01\xa3\xee\xad\x9chj"c\x15~'
p1972
ssS'_Library_Python_2_7_site-packages_django_middleware_csrf'
p1973
(dp1974
g45
(dp1975
g8
S'_Library_Python_2_7_site-packages_django_middleware_csrf.html'
p1976
sg10
S'/Library/Python/2.7/site-packages/django/middleware/csrf'
p1977
sg12
g13
(g14
g15
NtRp1978
(dp1979
g18
I1
sg19
I0
sg20
I82
sg21
I0
sg22
I0
sg23
I58
sg24
I0
sbssg51
S'M\xd3.z\x18\xb9\x8d\xbf\x0bU6\xb8D\x06\xca\x04'
p1980
ssS'_Library_Python_2_7_site-packages_django_contrib_auth_tokens'
p1981
(dp1982
g45
(dp1983
g8
S'_Library_Python_2_7_site-packages_django_contrib_auth_tokens.html'
p1984
sg10
S'/Library/Python/2.7/site-packages/django/contrib/auth/tokens'
p1985
sg12
g13
(g14
g15
NtRp1986
(dp1987
g18
I1
sg19
I0
sg20
I33
sg21
I0
sg22
I0
sg23
I22
sg24
I0
sbssg51
S'\xd5\x0c3\xaaa\x07\xe1\x06.\xfe\xeaP\xc3b\xdb\x96'
p1988
ssS'_Library_Python_2_7_site-packages_pytz_exceptions'
p1989
(dp1990
g6
(dp1991
g56
S'_Library_Python_2_7_site-packages_pytz_exceptions.html'
p1992
sg58
S'/Library/Python/2.7/site-packages/pytz/exceptions'
p1993
sg60
g13
(g14
g15
NtRp1994
(dp1995
g18
I1
sg19
I0
sg20
I6
sg21
I0
sg22
I0
sg23
I0
sg24
I0
sbssg25
S'\xca\xbadT#j\x8b\xb1Q\x18(s\xf5>\x99\xe1'
p1996
ssS'_Library_Python_2_7_site-packages_django_contrib_contenttypes_views'
p1997
(dp1998
g45
(dp1999
g8
S'_Library_Python_2_7_site-packages_django_contrib_contenttypes_views.html'
p2000
sg10
S'/Library/Python/2.7/site-packages/django/contrib/contenttypes/views'
p2001
sg12
g13
(g14
g15
NtRp2002
(dp2003
g18
I1
sg19
I0
sg20
I49
sg21
I0
sg22
I0
sg23
I43
sg24
I0
sbssg51
S'\x9a\x02]\x07#\xb5\x9e\x0c\xa1\xd2\x93\x89^\xeeF\xa7'
p2004
ssS'_Library_Python_2_7_site-packages_django_core_mail___init__'
p2005
(dp2006
g6
(dp2007
g56
S'_Library_Python_2_7_site-packages_django_core_mail___init__.html'
p2008
sg58
S'/Library/Python/2.7/site-packages/django/core/mail/__init__'
p2009
sg60
g13
(g14
g15
NtRp2010
(dp2011
g18
I1
sg19
I0
sg20
I38
sg21
I0
sg22
I0
sg23
I28
sg24
I0
sbssg25
S'-\x89\xe2MN\xf5\x8f\xb6\x13\x12\x0c\xa7V\xa2#\xa2'
p2012
ssS'_Library_Python_2_7_site-packages_django_core_management_validation'
p2013
(dp2014
g45
(dp2015
g8
S'_Library_Python_2_7_site-packages_django_core_management_validation.html'
p2016
sg10
S'/Library/Python/2.7/site-packages/django/core/management/validation'
p2017
sg12
g13
(g14
g15
NtRp2018
(dp2019
g18
I1
sg19
I0
sg20
I213
sg21
I0
sg22
I0
sg23
I102
sg24
I0
sbssg51
S'jgI&\x003\xd19ZmWEx\xdc:~'
p2020
ssS'_Library_Python_2_7_site-packages_django_core_files_uploadhandler'
p2021
(dp2022
g6
(dp2023
g56
S'_Library_Python_2_7_site-packages_django_core_files_uploadhandler.html'
p2024
sg58
S'/Library/Python/2.7/site-packages/django/core/files/uploadhandler'
p2025
sg60
g13
(g14
g15
NtRp2026
(dp2027
g18
I1
sg19
I0
sg20
I89
sg21
I0
sg22
I0
sg23
I54
sg24
I0
sbssg25
S'\xd7\x85G\xd1\xdc3<\xf5\xe9\xd6UF?\xc2\x90\xde'
p2028
ssS'_Library_Python_2_7_site-packages_django_contrib_auth_models'
p2029
(dp2030
g45
(dp2031
g8
S'_Library_Python_2_7_site-packages_django_contrib_auth_models.html'
p2032
sg10
S'/Library/Python/2.7/site-packages/django/contrib/auth/models'
p2033
sg12
g13
(g14
g15
NtRp2034
(dp2035
g18
I1
sg19
I0
sg20
I244
sg21
I0
sg22
I0
sg23
I129
sg24
I0
sbssg51
S'\xb9/yoz\'SU\xdf\xe0\xb0\xa6\xcdD"\xc6'
p2036
ssS'_Library_Python_2_7_site-packages_django_contrib_auth_management___init__'
p2037
(dp2038
g45
(dp2039
g8
S'_Library_Python_2_7_site-packages_django_contrib_auth_management___init__.html'
p2040
sg10
S'/Library/Python/2.7/site-packages/django/contrib/auth/management/__init__'
p2041
sg12
g13
(g14
g15
NtRp2042
(dp2043
g18
I1
sg19
I0
sg20
I64
sg21
I0
sg22
I0
sg23
I30
sg24
I0
sbssg51
S'\xe0\xdb"?K/\x90\x8cms\xbfq\xf5\x04=\xc4'
p2044
ssS'_Library_Python_2_7_site-packages_south_utils_datetime_utils'
p2045
(dp2046
g45
(dp2047
g8
S'_Library_Python_2_7_site-packages_south_utils_datetime_utils.html'
p2048
sg10
S'/Library/Python/2.7/site-packages/south/utils/datetime_utils'
p2049
sg12
g13
(g14
g15
NtRp2050
(dp2051
g18
I1
sg19
I0
sg20
I13
sg21
I0
sg22
I0
sg23
I5
sg24
I0
sbssg51
S'#\xd4%\xc1\x13b\xbe\xdc\x97\xcbi\xabX\x00\xa2\xa7'
p2052
ssS'_Library_Python_2_7_site-packages_django_template_loaders___init__'
p2053
(dp2054
g6
(dp2055
g56
S'_Library_Python_2_7_site-packages_django_template_loaders___init__.html'
p2056
sg58
S'/Library/Python/2.7/site-packages/django/template/loaders/__init__'
p2057
sg60
g13
(g14
g15
NtRp2058
(dp2059
g18
I1
sg19
I0
sg20
I0
sg21
I0
sg22
I0
sg23
I0
sg24
I0
sbssg25
S'\xb0\xc8pN\xaf>\xa0\xbaz\x144\xe0A9\xb8?'
p2060
ssS'_Library_Python_2_7_site-packages_django_http_multipartparser'
p2061
(dp2062
g6
(dp2063
g56
S'_Library_Python_2_7_site-packages_django_http_multipartparser.html'
p2064
sg58
S'/Library/Python/2.7/site-packages/django/http/multipartparser'
p2065
sg60
g13
(g14
g15
NtRp2066
(dp2067
g18
I1
sg19
I0
sg20
I337
sg21
I0
sg22
I0
sg23
I288
sg24
I0
sbssg25
S'\xd2\xb9 \x03\xe5*`\xbd*\x88\xd9I\x92\xb4~\xbb'
p2068
ssS'_Library_Python_2_7_site-packages_pytz_tzinfo'
p2069
(dp2070
g6
(dp2071
g8
S'_Library_Python_2_7_site-packages_pytz_tzinfo.html'
p2072
sg10
S'/Library/Python/2.7/site-packages/pytz/tzinfo'
p2073
sg12
g13
(g14
g15
NtRp2074
(dp2075
g18
I1
sg19
I0
sg20
I178
sg21
I0
sg22
I0
sg23
I79
sg24
I0
sbssg25
S"\xa3\xd9iA@\xe8c\x0b\xc1V\xb0]'5\xd0\x9c"
p2076
ssS'_Library_Python_2_7_site-packages_django_contrib_admin_helpers'
p2077
(dp2078
g45
(dp2079
g8
S'_Library_Python_2_7_site-packages_django_contrib_admin_helpers.html'
p2080
sg10
S'/Library/Python/2.7/site-packages/django/contrib/admin/helpers'
p2081
sg12
g13
(g14
g15
NtRp2082
(dp2083
g18
I1
sg19
I0
sg20
I245
sg21
I0
sg22
I0
sg23
I182
sg24
I0
sbssg51
S'2\x07\xb3\xfcP!\xc7\x02\xd7\xd9"\xf4\xab\xfd\xbfX'
p2084
ssS'_Library_Python_2_7_site-packages_django_core_servers_basehttp'
p2085
(dp2086
g6
(dp2087
g56
S'_Library_Python_2_7_site-packages_django_core_servers_basehttp.html'
p2088
sg58
S'/Library/Python/2.7/site-packages/django/core/servers/basehttp'
p2089
sg60
g13
(g14
g15
NtRp2090
(dp2091
g18
I1
sg19
I0
sg20
I142
sg21
I0
sg22
I0
sg23
I103
sg24
I0
sbssg25
S'\xdc\x86;\x06\x84B\xf8\xf4\xb2-F\xf8\x7f\x05\xcb\xf0'
p2092
ssS'_Library_Python_2_7_site-packages_django_contrib_admin_filters'
p2093
(dp2094
g45
(dp2095
g8
S'_Library_Python_2_7_site-packages_django_contrib_admin_filters.html'
p2096
sg10
S'/Library/Python/2.7/site-packages/django/contrib/admin/filters'
p2097
sg12
g13
(g14
g15
NtRp2098
(dp2099
g18
I1
sg19
I0
sg20
I187
sg21
I0
sg22
I0
sg23
I126
sg24
I0
sbssg51
S'\xaa\xce@\xb7\xca\xc7\xa3\x11F\x02\xb9\xff\xef\xe5\xf61'
p2100
ssS'_Library_Python_2_7_site-packages_django_core_cache_backends_db'
p2101
(dp2102
g45
(dp2103
g8
S'_Library_Python_2_7_site-packages_django_core_cache_backends_db.html'
p2104
sg10
S'/Library/Python/2.7/site-packages/django/core/cache/backends/db'
p2105
sg12
g13
(g14
g15
NtRp2106
(dp2107
g18
I1
sg19
I0
sg20
I127
sg21
I0
sg22
I0
sg23
I103
sg24
I0
sbssg51
S"\xee\x8a'\xb6\x8d\x06\x8ca\t\x1c\x9dE\x8b\x854H"
p2108
sssS'version'
p2109
S'3.6'
p2110
sS'settings'
p2111
S'3\xcf\xa1\x19.\x88o$\x8cA\xde\xbd\xcd\x06\xa1\x0f'
p2112
sS'format'
p2113
I1
s.