(dp1
S'files'
p2
(dp3
S'_Library_Python_2_7_site-packages_django_utils_decorators'
p4
(dp5
S'index'
p6
(dp7
S'html_filename'
p8
S'_Library_Python_2_7_site-packages_django_utils_decorators.html'
p9
sS'name'
p10
S'/Library/Python/2.7/site-packages/django/utils/decorators'
p11
sS'nums'
p12
ccopy_reg
_reconstructor
p13
(ccoverage.results
Numbers
p14
c__builtin__
object
p15
NtRp16
(dp17
S'n_files'
p18
I1
sS'n_branches'
p19
I0
sS'n_statements'
p20
I59
sS'n_excluded'
p21
I0
sS'n_partial_branches'
p22
I0
sS'n_missing'
p23
I33
sS'n_missing_branches'
p24
I0
sbssS'hash'
p25
S'\xd4C\xaf\x8d\xf9z (\xa8J9\xf4\x84\x8eHg'
p26
ssS'_Library_Python_2_7_site-packages_django_db_models_query'
p27
(dp28
g6
(dp29
g8
S'_Library_Python_2_7_site-packages_django_db_models_query.html'
p30
sg10
S'/Library/Python/2.7/site-packages/django/db/models/query'
p31
sg12
g13
(g14
g15
NtRp32
(dp33
g18
I1
sg19
I0
sg20
I925
sg21
I0
sg22
I0
sg23
I613
sg24
I0
sbssg25
S'\x0b\x08\xfe\xda\x92\xe6\x98 :7\x89:RkG\x82'
p34
ssS'_Library_Python_2_7_site-packages_django_db_models_sql_compiler'
p35
(dp36
S'index'
p37
(dp38
g8
S'_Library_Python_2_7_site-packages_django_db_models_sql_compiler.html'
p39
sg10
S'/Library/Python/2.7/site-packages/django/db/models/sql/compiler'
p40
sg12
g13
(g14
g15
NtRp41
(dp42
g18
I1
sg19
I0
sg20
I653
sg21
I0
sg22
I0
sg23
I360
sg24
I0
sbssS'hash'
p43
S'\x7f0B\xe9\x91^\xab,%`\xed=L\\5\x94'
p44
ssS'_Library_Python_2_7_site-packages_django_core_files_temp'
p45
(dp46
g6
(dp47
S'html_filename'
p48
S'_Library_Python_2_7_site-packages_django_core_files_temp.html'
p49
sS'name'
p50
S'/Library/Python/2.7/site-packages/django/core/files/temp'
p51
sS'nums'
p52
g13
(g14
g15
NtRp53
(dp54
g18
I1
sg19
I0
sg20
I28
sg21
I0
sg22
I0
sg23
I21
sg24
I0
sbssg25
S'\x14%Z\x18\x8e\x18K\xa3Y\x1f\xa7\x988\xdc)X'
p55
ssS'_Library_Python_2_7_site-packages_django_db_models_manager'
p56
(dp57
g6
(dp58
g8
S'_Library_Python_2_7_site-packages_django_db_models_manager.html'
p59
sg10
S'/Library/Python/2.7/site-packages/django/db/models/manager'
p60
sg12
g13
(g14
g15
NtRp61
(dp62
g18
I1
sg19
I0
sg20
I139
sg21
I0
sg22
I0
sg23
I43
sg24
I0
sbssg25
S'\xe7}j\xe7\xaa&]\xcf\x87\xccb\xe5\x98mhb'
p63
ssS'_Library_Python_2_7_site-packages_south_migration_migrators'
p64
(dp65
g37
(dp66
g8
S'_Library_Python_2_7_site-packages_south_migration_migrators.html'
p67
sg10
S'/Library/Python/2.7/site-packages/south/migration/migrators'
p68
sg12
g13
(g14
g15
NtRp69
(dp70
g18
I1
sg19
I0
sg20
I231
sg21
I0
sg22
I0
sg23
I165
sg24
I0
sbssg43
S'!\xbe\x94\xc9o\x81\x91\x17\xd2\x10\xbf\x1b\n\xf4\x18\x98'
p71
ssS'_Library_Python_2_7_site-packages_django_utils_dates'
p72
(dp73
g6
(dp74
g48
S'_Library_Python_2_7_site-packages_django_utils_dates.html'
p75
sg50
S'/Library/Python/2.7/site-packages/django/utils/dates'
p76
sg52
g13
(g14
g15
NtRp77
(dp78
g18
I1
sg19
I0
sg20
I9
sg21
I0
sg22
I0
sg23
I0
sg24
I0
sbssg25
S'\xed\xe1n\x81\x12\xc1\xc6\x8b\xd8\x98O4:mTA'
p79
ssS'_Library_Python_2_7_site-packages_django_db_models_sql_subqueries'
p80
(dp81
g6
(dp82
g8
S'_Library_Python_2_7_site-packages_django_db_models_sql_subqueries.html'
p83
sg10
S'/Library/Python/2.7/site-packages/django/db/models/sql/subqueries'
p84
sg12
g13
(g14
g15
NtRp85
(dp86
g18
I1
sg19
I0
sg20
I113
sg21
I0
sg22
I0
sg23
I60
sg24
I0
sbssg25
S"(\xa1\xff\x97%'\x7fG)\x08\xd4<\xf0\xa1'1"
p87
ssS'_Library_Python_2_7_site-packages_django_contrib_staticfiles_finders'
p88
(dp89
g6
(dp90
g48
S'_Library_Python_2_7_site-packages_django_contrib_staticfiles_finders.html'
p91
sg50
S'/Library/Python/2.7/site-packages/django/contrib/staticfiles/finders'
p92
sg52
g13
(g14
g15
NtRp93
(dp94
g18
I1
sg19
I0
sg20
I158
sg21
I0
sg22
I0
sg23
I121
sg24
I0
sbssg25
S'\xa8\nv\xabZ\xf0a.\xaf\x0b\xa78\xba\n\xa2\x9b'
p95
ssS'_Library_Python_2_7_site-packages_django_db_models_aggregates'
p96
(dp97
g6
(dp98
g48
S'_Library_Python_2_7_site-packages_django_db_models_aggregates.html'
p99
sg50
S'/Library/Python/2.7/site-packages/django/db/models/aggregates'
p100
sg52
g13
(g14
g15
NtRp101
(dp102
g18
I1
sg19
I0
sg20
I25
sg21
I0
sg22
I0
sg23
I6
sg24
I0
sbssg25
S'TO\x1e/\xbc\x9c\x17\xc0\xd4\xad\xd9\xae\xc4\\\xa4I'
p103
ssS'_Library_Python_2_7_site-packages_django_db_backends_postgresql_psycopg2_version'
p104
(dp105
g6
(dp106
g8
S'_Library_Python_2_7_site-packages_django_db_backends_postgresql_psycopg2_version.html'
p107
sg10
S'/Library/Python/2.7/site-packages/django/db/backends/postgresql_psycopg2/version'
p108
sg12
g13
(g14
g15
NtRp109
(dp110
g18
I1
sg19
I0
sg20
I14
sg21
I0
sg22
I0
sg23
I8
sg24
I0
sbssg25
S'\xa8n\xb3&\xe2\xd0\x98\x7f\xee#\x05\x97\xa4\xb9\xf54'
p111
ssS'_Library_Python_2_7_site-packages_south_management_commands___init__'
p112
(dp113
g37
(dp114
g8
S'_Library_Python_2_7_site-packages_south_management_commands___init__.html'
p115
sg10
S'/Library/Python/2.7/site-packages/south/management/commands/__init__'
p116
sg12
g13
(g14
g15
NtRp117
(dp118
g18
I1
sg19
I0
sg20
I18
sg21
I0
sg22
I0
sg23
I1
sg24
I0
sbssg43
S'b&]\x8bu\x13\xcde\x13\xe0\xdc1\xc1\xe6B|'
p119
ssS'_Library_Python_2_7_site-packages_django_core_management_sql'
p120
(dp121
g37
(dp122
g8
S'_Library_Python_2_7_site-packages_django_core_management_sql.html'
p123
sg10
S'/Library/Python/2.7/site-packages/django/core/management/sql'
p124
sg12
g13
(g14
g15
NtRp125
(dp126
g18
I1
sg19
I0
sg20
I107
sg21
I0
sg22
I0
sg23
I76
sg24
I0
sbssg43
S'\xf7v;\xcd\x12\xa3\xdc\x13\x8a\x89\xe5l\xe3\xcc`\x9d'
p127
ssS'_Library_Python_2_7_site-packages_django_contrib_auth_hashers'
p128
(dp129
g37
(dp130
g8
S'_Library_Python_2_7_site-packages_django_contrib_auth_hashers.html'
p131
sg10
S'/Library/Python/2.7/site-packages/django/contrib/auth/hashers'
p132
sg12
g13
(g14
g15
NtRp133
(dp134
g18
I1
sg19
I0
sg20
I200
sg21
I0
sg22
I0
sg23
I134
sg24
I0
sbssg43
S':\x81\xf2h\xfaUD\xd8\xa9\xd3K\xbaz\xceY\xf6'
p135
ssS'_Library_Python_2_7_site-packages_django_test_simple'
p136
(dp137
g6
(dp138
g8
S'_Library_Python_2_7_site-packages_django_test_simple.html'
p139
sg10
S'/Library/Python/2.7/site-packages/django/test/simple'
p140
sg12
g13
(g14
g15
NtRp141
(dp142
g18
I1
sg19
I0
sg20
I198
sg21
I0
sg22
I0
sg23
I72
sg24
I0
sbssg25
S'I\xab\xadE\xf3\x13)\x18\x98,\xde\x9b\x9b\x13tB'
p143
ssS'_Library_Python_2_7_site-packages_django_utils_tzinfo'
p144
(dp145
g6
(dp146
g48
S'_Library_Python_2_7_site-packages_django_utils_tzinfo.html'
p147
sg50
S'/Library/Python/2.7/site-packages/django/utils/tzinfo'
p148
sg52
g13
(g14
g15
NtRp149
(dp150
g18
I1
sg19
I0
sg20
I52
sg21
I0
sg22
I0
sg23
I34
sg24
I0
sbssg25
S'J\x85\xf4\xb5CA45\x13xif\xcd\x822M'
p151
ssS'_Library_Python_2_7_site-packages_south_management_commands_syncdb'
p152
(dp153
g37
(dp154
g8
S'_Library_Python_2_7_site-packages_south_management_commands_syncdb.html'
p155
sg10
S'/Library/Python/2.7/site-packages/south/management/commands/syncdb'
p156
sg12
g13
(g14
g15
NtRp157
(dp158
g18
I1
sg19
I0
sg20
I65
sg21
I0
sg22
I0
sg23
I13
sg24
I0
sbssg43
S'\r\xf5\n\xc4U-\x96X\xea]\xed\xf4-\xa0\xb5 '
p159
ssS'_Library_Python_2_7_site-packages_south_management_commands_migrate'
p160
(dp161
g37
(dp162
g8
S'_Library_Python_2_7_site-packages_south_management_commands_migrate.html'
p163
sg10
S'/Library/Python/2.7/site-packages/south/management/commands/migrate'
p164
sg12
g13
(g14
g15
NtRp165
(dp166
g18
I1
sg19
I0
sg20
I123
sg21
I0
sg22
I0
sg23
I91
sg24
I0
sbssg43
S'd\xc5=\xaf\xd6G\xbaJ\x1c\xc0\xce]k\xa8\x18\xa1'
p167
ssS'_Library_Python_2_7_site-packages_django_views_static'
p168
(dp169
g6
(dp170
g48
S'_Library_Python_2_7_site-packages_django_views_static.html'
p171
sg50
S'/Library/Python/2.7/site-packages/django/views/static'
p172
sg52
g13
(g14
g15
NtRp173
(dp174
g18
I1
sg19
I0
sg20
I74
sg21
I0
sg22
I0
sg23
I58
sg24
I0
sbssg25
S'\xc03WiA\xf43pq\xf8\xbc\x92?\xc6~\xa2'
p175
ssS'_Library_Python_2_7_site-packages_django_test_client'
p176
(dp177
g6
(dp178
g48
S'_Library_Python_2_7_site-packages_django_test_client.html'
p179
sg50
S'/Library/Python/2.7/site-packages/django/test/client'
p180
sg52
g13
(g14
g15
NtRp181
(dp182
g18
I1
sg19
I0
sg20
I260
sg21
I0
sg22
I0
sg23
I195
sg24
I0
sbssg25
S'O\xed`)\xcf.z\x08\x02\xa4\x82\x15f\x7f\x0e}'
p183
ssS'_Library_Python_2_7_site-packages_django_db_models_fields_proxy'
p184
(dp185
g6
(dp186
g48
S'_Library_Python_2_7_site-packages_django_db_models_fields_proxy.html'
p187
sg50
S'/Library/Python/2.7/site-packages/django/db/models/fields/proxy'
p188
sg52
g13
(g14
g15
NtRp189
(dp190
g18
I1
sg19
I0
sg20
I6
sg21
I0
sg22
I0
sg23
I3
sg24
I0
sbssg25
S'\xaf:\xd7\xa5\xadun\x1b\xb7\x141\x81\x80j\x94\xe6'
p191
ssS'_Library_Python_2_7_site-packages_django_db_models_fields_files'
p192
(dp193
g6
(dp194
g48
S'_Library_Python_2_7_site-packages_django_db_models_fields_files.html'
p195
sg50
S'/Library/Python/2.7/site-packages/django/db/models/fields/files'
p196
sg52
g13
(g14
g15
NtRp197
(dp198
g18
I1
sg19
I0
sg20
I203
sg21
I0
sg22
I0
sg23
I136
sg24
I0
sbssg25
S'\xf4\xb4\x1e?\xfe\x16\xa2[\xe6\x86\xd1\x06\xc4\xd8\x1cn'
p199
ssS'_Library_Python_2_7_site-packages_django_contrib_staticfiles_models'
p200
(dp201
g37
(dp202
g8
S'_Library_Python_2_7_site-packages_django_contrib_staticfiles_models.html'
p203
sg10
S'/Library/Python/2.7/site-packages/django/contrib/staticfiles/models'
p204
sg12
g13
(g14
g15
NtRp205
(dp206
g18
I1
sg19
I0
sg20
I0
sg21
I0
sg22
I0
sg23
I0
sg24
I0
sbssg43
S'\xb0\xc8pN\xaf>\xa0\xbaz\x144\xe0A9\xb8?'
p207
ssS'_Library_Python_2_7_site-packages_django___init__'
p208
(dp209
g6
(dp210
g48
S'_Library_Python_2_7_site-packages_django___init__.html'
p211
sg50
S'/Library/Python/2.7/site-packages/django/__init__'
p212
sg52
g13
(g14
g15
NtRp213
(dp214
g18
I1
sg19
I0
sg20
I18
sg21
I0
sg22
I0
sg23
I6
sg24
I0
sbssg25
S'\xf0\x13?\xd9\xba.\xecb\x02\xbc\xc7\x99)\xd7:\xea'
p215
ssS'_Library_Python_2_7_site-packages_django_db_backends_signals'
p216
(dp217
g6
(dp218
g48
S'_Library_Python_2_7_site-packages_django_db_backends_signals.html'
p219
sg50
S'/Library/Python/2.7/site-packages/django/db/backends/signals'
p220
sg52
g13
(g14
g15
NtRp221
(dp222
g18
I1
sg19
I0
sg20
I2
sg21
I0
sg22
I0
sg23
I0
sg24
I0
sbssg25
S'\xac\xe8\xc0\xe9\x8a\xd9d\xcc\x03\xc1\x89\xd4\xde\xa8x<'
p223
ssS'_Library_Python_2_7_site-packages_django_utils_datetime_safe'
p224
(dp225
g6
(dp226
g48
S'_Library_Python_2_7_site-packages_django_utils_datetime_safe.html'
p227
sg50
S'/Library/Python/2.7/site-packages/django/utils/datetime_safe'
p228
sg52
g13
(g14
g15
NtRp229
(dp230
g18
I1
sg19
I0
sg20
I56
sg21
I0
sg22
I0
sg23
I42
sg24
I0
sbssg25
S'\xcf\x16v\x83I\x1c\x906G\x91=\xec\x94\xfdf\xbe'
p231
ssS'_Library_Python_2_7_site-packages_django_conf_locale___init__'
p232
(dp233
g37
(dp234
g8
S'_Library_Python_2_7_site-packages_django_conf_locale___init__.html'
p235
sg10
S'/Library/Python/2.7/site-packages/django/conf/locale/__init__'
p236
sg12
g13
(g14
g15
NtRp237
(dp238
g18
I1
sg19
I0
sg20
I1
sg21
I0
sg22
I0
sg23
I0
sg24
I0
sbssg43
S'\xca\x13\xff\x014\xc8\xe6I\xcb\xd3B<uIk\xbe'
p239
ssS'_Library_Python_2_7_site-packages_django_utils_simplejson___init__'
p240
(dp241
g6
(dp242
g48
S'_Library_Python_2_7_site-packages_django_utils_simplejson___init__.html'
p243
sg50
S'/Library/Python/2.7/site-packages/django/utils/simplejson/__init__'
p244
sg52
g13
(g14
g15
NtRp245
(dp246
g18
I1
sg19
I0
sg20
I54
sg21
I0
sg22
I0
sg23
I39
sg24
I0
sbssg25
S"\xe5$x;'\x91@\x12\x06\xab)\x0c\x93\xca\xbde"
p247
ssS'_Library_Python_2_7_site-packages_django_core_management_commands_flush'
p248
(dp249
g37
(dp250
g8
S'_Library_Python_2_7_site-packages_django_core_management_commands_flush.html'
p251
sg10
S'/Library/Python/2.7/site-packages/django/core/management/commands/flush'
p252
sg12
g13
(g14
g15
NtRp253
(dp254
g18
I1
sg19
I0
sg20
I43
sg21
I0
sg22
I0
sg23
I31
sg24
I0
sbssg43
S'#jK\xce\x08\xd5\x8a\x8b\xac\xc6\x8c\x97\rC\xe0\x08'
p255
ssS'_Library_Python_2_7_site-packages_django_contrib_admin_forms'
p256
(dp257
g37
(dp258
g8
S'_Library_Python_2_7_site-packages_django_contrib_admin_forms.html'
p259
sg10
S'/Library/Python/2.7/site-packages/django/contrib/admin/forms'
p260
sg12
g13
(g14
g15
NtRp261
(dp262
g18
I1
sg19
I0
sg20
I27
sg21
I0
sg22
I0
sg23
I18
sg24
I0
sbssg43
S'\xde\xbf\x04\xd5\xeb\xcbdH\xcc\x8d\xbb\n\xcd\xd1\xa0\x98'
p263
ssS'_Library_Python_2_7_site-packages_django_db_backends___init__'
p264
(dp265
g6
(dp266
g8
S'_Library_Python_2_7_site-packages_django_db_backends___init__.html'
p267
sg10
S'/Library/Python/2.7/site-packages/django/db/backends/__init__'
p268
sg12
g13
(g14
g15
NtRp269
(dp270
g18
I1
sg19
I0
sg20
I428
sg21
I0
sg22
I0
sg23
I166
sg24
I0
sbssg25
S'\xc6\xcf=Y\xc1\xd5\xad V8\xf4\xd8M\x04s\x97'
p271
ssS'_Library_Python_2_7_site-packages_django_core_serializers___init__'
p272
(dp273
g37
(dp274
g8
S'_Library_Python_2_7_site-packages_django_core_serializers___init__.html'
p275
sg10
S'/Library/Python/2.7/site-packages/django/core/serializers/__init__'
p276
sg12
g13
(g14
g15
NtRp277
(dp278
g18
I1
sg19
I0
sg20
I58
sg21
I0
sg22
I0
sg23
I40
sg24
I0
sbssg43
S'\x89\xbaB\x85\x82\xf4\n3d!d\xbf\xab\xe9e\x1a'
p279
ssS'_Library_Python_2_7_site-packages_django_utils___init__'
p280
(dp281
g6
(dp282
g48
S'_Library_Python_2_7_site-packages_django_utils___init__.html'
p283
sg50
S'/Library/Python/2.7/site-packages/django/utils/__init__'
p284
sg52
g13
(g14
g15
NtRp285
(dp286
g18
I1
sg19
I0
sg20
I0
sg21
I0
sg22
I0
sg23
I0
sg24
I0
sbssg25
S'\xb0\xc8pN\xaf>\xa0\xbaz\x144\xe0A9\xb8?'
p287
ssS'_Library_Python_2_7_site-packages_django_utils_cache'
p288
(dp289
g37
(dp290
g8
S'_Library_Python_2_7_site-packages_django_utils_cache.html'
p291
sg10
S'/Library/Python/2.7/site-packages/django/utils/cache'
p292
sg12
g13
(g14
g15
NtRp293
(dp294
g18
I1
sg19
I0
sg20
I124
sg21
I0
sg22
I0
sg23
I101
sg24
I0
sbssg43
S'qc4\xc9\x18\xe4\x19"D\x96\xf9\x19\x0e\xac\xe3\xea'
p295
ssS'_Library_Python_2_7_site-packages_django_utils_timezone'
p296
(dp297
g6
(dp298
g8
S'_Library_Python_2_7_site-packages_django_utils_timezone.html'
p299
sg10
S'/Library/Python/2.7/site-packages/django/utils/timezone'
p300
sg12
g13
(g14
g15
NtRp301
(dp302
g18
I1
sg19
I0
sg20
I110
sg21
I0
sg22
I0
sg23
I63
sg24
I0
sbssg25
S'b\x8f\xd3fy\xd8\xd9\xd8\xc5d6\x00\xa3e\xdf\xac'
p303
ssS'carpoolapp_models'
p304
(dp305
g37
(dp306
g8
S'carpoolapp_models.html'
p307
sg10
S'carpoolapp/models'
p308
sg12
g13
(g14
g15
NtRp309
(dp310
g18
I1
sg19
I0
sg20
I157
sg21
I0
sg22
I0
sg23
I45
sg24
I0
sbssg43
S'\xd7\x1c?7\xcau \xe4o\xd1\xe7\x80\x8dd\x8a\xac'
p311
ssS'_Library_Python_2_7_site-packages_django_core_files_utils'
p312
(dp313
g6
(dp314
g48
S'_Library_Python_2_7_site-packages_django_core_files_utils.html'
p315
sg50
S'/Library/Python/2.7/site-packages/django/core/files/utils'
p316
sg52
g13
(g14
g15
NtRp317
(dp318
g18
I1
sg19
I0
sg20
I19
sg21
I0
sg22
I0
sg23
I1
sg24
I0
sbssg25
S'\x91@)\xe4(\x81\xd6\xb8\x9b\x16\xc4\xeeh\x11e\xff'
p319
ssS'_Library_Python_2_7_site-packages_django_db_models_options'
p320
(dp321
g6
(dp322
g8
S'_Library_Python_2_7_site-packages_django_db_models_options.html'
p323
sg10
S'/Library/Python/2.7/site-packages/django/db/models/options'
p324
sg12
g13
(g14
g15
NtRp325
(dp326
g18
I1
sg19
I0
sg20
I319
sg21
I0
sg22
I0
sg23
I84
sg24
I0
sbssg25
S'\xb1\x18\xee\x00\x1a\xb9<3B\x12\xd2\xd3\x19D+\xa4'
p327
ssS'_Library_Python_2_7_site-packages_django_db_models_sql_query'
p328
(dp329
g6
(dp330
g8
S'_Library_Python_2_7_site-packages_django_db_models_sql_query.html'
p331
sg10
S'/Library/Python/2.7/site-packages/django/db/models/sql/query'
p332
sg12
g13
(g14
g15
NtRp333
(dp334
g18
I1
sg19
I0
sg20
I1041
sg21
I0
sg22
I0
sg23
I579
sg24
I0
sbssg25
S'\x89l\x00\xca\x18|\xc3\x1d\xc3-\n*\x87l\x06\x1e'
p335
ssS'_Library_Python_2_7_site-packages_django_db_backends_util'
p336
(dp337
g6
(dp338
g8
S'_Library_Python_2_7_site-packages_django_db_backends_util.html'
p339
sg10
S'/Library/Python/2.7/site-packages/django/db/backends/util'
p340
sg12
g13
(g14
g15
NtRp341
(dp342
g18
I1
sg19
I0
sg20
I93
sg21
I0
sg22
I0
sg23
I62
sg24
I0
sbssg25
S'\x9cGE\xe0r\xef]p\x05\xd5K\xd6\x92j\x90\x9d'
p343
ssS'_Library_Python_2_7_site-packages_south___init__'
p344
(dp345
g37
(dp346
g8
S'_Library_Python_2_7_site-packages_south___init__.html'
p347
sg10
S'/Library/Python/2.7/site-packages/south/__init__'
p348
sg12
g13
(g14
g15
NtRp349
(dp350
g18
I1
sg19
I0
sg20
I2
sg21
I0
sg22
I0
sg23
I0
sg24
I0
sbssg43
S'2P\xd7RK.\x97\xb6\xc8\xb4\xc183\x03\xb2\x13'
p351
ssS'carpoolapp___init__'
p352
(dp353
g37
(dp354
g8
S'carpoolapp___init__.html'
p355
sg10
S'carpoolapp/__init__'
p356
sg12
g13
(g14
g15
NtRp357
(dp358
g18
I1
sg19
I0
sg20
I0
sg21
I0
sg22
I0
sg23
I0
sg24
I0
sbssg43
S'\xb0\xc8pN\xaf>\xa0\xbaz\x144\xe0A9\xb8?'
p359
ssS'_Library_Python_2_7_site-packages_django_template_base'
p360
(dp361
g6
(dp362
g8
S'_Library_Python_2_7_site-packages_django_template_base.html'
p363
sg10
S'/Library/Python/2.7/site-packages/django/template/base'
p364
sg12
g13
(g14
g15
NtRp365
(dp366
g18
I1
sg19
I0
sg20
I770
sg21
I0
sg22
I0
sg23
I557
sg24
I0
sbssg25
S'\xe3\x8b\xabY\x12\xaa\xad\xea\x89t\xb4o+f\x05\x15'
p367
ssS'_Library_Python_2_7_site-packages_django_utils_timesince'
p368
(dp369
g6
(dp370
g48
S'_Library_Python_2_7_site-packages_django_utils_timesince.html'
p371
sg50
S'/Library/Python/2.7/site-packages/django/utils/timesince'
p372
sg52
g13
(g14
g15
NtRp373
(dp374
g18
I1
sg19
I0
sg20
I28
sg21
I0
sg22
I0
sg23
I23
sg24
I0
sbssg25
S'\xfd1-5\xb5\xd0-~\xd5u\xc2\xb4/\xe6"0'
p375
ssS'_Library_Python_2_7_site-packages_django_forms_widgets'
p376
(dp377
g6
(dp378
g8
S'_Library_Python_2_7_site-packages_django_forms_widgets.html'
p379
sg10
S'/Library/Python/2.7/site-packages/django/forms/widgets'
p380
sg12
g13
(g14
g15
NtRp381
(dp382
g18
I1
sg19
I0
sg20
I559
sg21
I0
sg22
I0
sg23
I381
sg24
I0
sbssg25
S'D\xb0[]\x8a\x00\x86\xc8\xfe\xa2\x0f\x92\x9e\x8d\x8b3'
p383
ssS'_Library_Python_2_7_site-packages_django_contrib_sites_models'
p384
(dp385
g37
(dp386
g8
S'_Library_Python_2_7_site-packages_django_contrib_sites_models.html'
p387
sg10
S'/Library/Python/2.7/site-packages/django/contrib/sites/models'
p388
sg12
g13
(g14
g15
NtRp389
(dp390
g18
I1
sg19
I0
sg20
I55
sg21
I0
sg22
I0
sg23
I28
sg24
I0
sbssg43
S"\xea\x872\xf1'e3H\x04\xc9\x8d\x18;WZg"
p391
ssS'_Library_Python_2_7_site-packages_django_core_management_validation'
p392
(dp393
g37
(dp394
g8
S'_Library_Python_2_7_site-packages_django_core_management_validation.html'
p395
sg10
S'/Library/Python/2.7/site-packages/django/core/management/validation'
p396
sg12
g13
(g14
g15
NtRp397
(dp398
g18
I1
sg19
I0
sg20
I213
sg21
I0
sg22
I0
sg23
I102
sg24
I0
sbssg43
S'jgI&\x003\xd19ZmWEx\xdc:~'
p399
ssS'_Library_Python_2_7_site-packages_django_core_urlresolvers'
p400
(dp401
g6
(dp402
g48
S'_Library_Python_2_7_site-packages_django_core_urlresolvers.html'
p403
sg50
S'/Library/Python/2.7/site-packages/django/core/urlresolvers'
p404
sg52
g13
(g14
g15
NtRp405
(dp406
g18
I1
sg19
I0
sg20
I339
sg21
I0
sg22
I0
sg23
I269
sg24
I0
sbssg25
S'\n\xe9\xc0\x1f\x92Y\xa4\xbb\xb7\xdc!/\x03\xfdZ%'
p407
ssS'_Library_Python_2_7_site-packages_django_core_cache___init__'
p408
(dp409
g6
(dp410
g48
S'_Library_Python_2_7_site-packages_django_core_cache___init__.html'
p411
sg50
S'/Library/Python/2.7/site-packages/django/core/cache/__init__'
p412
sg52
g13
(g14
g15
NtRp413
(dp414
g18
I1
sg19
I0
sg20
I83
sg21
I0
sg22
I0
sg23
I29
sg24
I0
sbssg25
S'\x03J\xd1\xea9s5\xa2\x1c\xd2\x9d|J\xbeu\xb9'
p415
ssS'_Library_Python_2_7_site-packages_django_dispatch_saferef'
p416
(dp417
g6
(dp418
g48
S'_Library_Python_2_7_site-packages_django_dispatch_saferef.html'
p419
sg50
S'/Library/Python/2.7/site-packages/django/dispatch/saferef'
p420
sg52
g13
(g14
g15
NtRp421
(dp422
g18
I1
sg19
I0
sg20
I80
sg21
I0
sg22
I0
sg23
I59
sg24
I0
sbssg25
S'\xb8\xa2)1-\x80o\x8bm\x1e\x0bO\xe5\x12*\xd8'
p423
ssS'_Library_Python_2_7_site-packages_django_conf___init__'
p424
(dp425
g6
(dp426
g48
S'_Library_Python_2_7_site-packages_django_conf___init__.html'
p427
sg50
S'/Library/Python/2.7/site-packages/django/conf/__init__'
p428
sg52
g13
(g14
g15
NtRp429
(dp430
g18
I1
sg19
I0
sg20
I85
sg21
I0
sg22
I0
sg23
I28
sg24
I0
sbssg25
S'\xde\x01%5C\xac\xc9\xac\xb3\x10T\x7f`\xf7,r'
p431
ssS'_Library_Python_2_7_site-packages_south_migration_base'
p432
(dp433
g37
(dp434
g8
S'_Library_Python_2_7_site-packages_south_migration_base.html'
p435
sg10
S'/Library/Python/2.7/site-packages/south/migration/base'
p436
sg12
g13
(g14
g15
NtRp437
(dp438
g18
I1
sg19
I0
sg20
I274
sg21
I0
sg22
I0
sg23
I167
sg24
I0
sbssg43
S'\xd1\xc0z\xbd\xb1;=\x0b\xe8\x96\xfbSeL\xab\x0e'
p439
ssS'_Library_Python_2_7_site-packages_django_core_files_move'
p440
(dp441
g6
(dp442
g48
S'_Library_Python_2_7_site-packages_django_core_files_move.html'
p443
sg50
S'/Library/Python/2.7/site-packages/django/core/files/move'
p444
sg52
g13
(g14
g15
NtRp445
(dp446
g18
I1
sg19
I0
sg20
I47
sg21
I0
sg22
I0
sg23
I40
sg24
I0
sbssg25
S'y\\\xb7\x8a\xe3\xc5u\x9bK\xa2(CK\x07Q\x90'
p447
ssS'_Library_Python_2_7_site-packages_django_test__doctest'
p448
(dp449
g6
(dp450
g8
S'_Library_Python_2_7_site-packages_django_test__doctest.html'
p451
sg10
S'/Library/Python/2.7/site-packages/django/test/_doctest'
p452
sg12
g13
(g14
g15
NtRp453
(dp454
g18
I1
sg19
I0
sg20
I896
sg21
I0
sg22
I0
sg23
I632
sg24
I0
sbssg25
S'S\x1f\x1c\x895\x89\xbd\xcdt_Av\xc7\xbew\xe1'
p455
ssS'_Library_Python_2_7_site-packages_django_template___init__'
p456
(dp457
g6
(dp458
g48
S'_Library_Python_2_7_site-packages_django_template___init__.html'
p459
sg50
S'/Library/Python/2.7/site-packages/django/template/__init__'
p460
sg52
g13
(g14
g15
NtRp461
(dp462
g18
I1
sg19
I0
sg20
I6
sg21
I0
sg22
I0
sg23
I0
sg24
I0
sbssg25
S'\xb6\xa0l\x13\xa8q\x87\r\xa8\xea\xdd\x99\xef\xf5k\xd3'
p463
ssS'_Library_Python_2_7_site-packages_django_middleware_cache'
p464
(dp465
g37
(dp466
g8
S'_Library_Python_2_7_site-packages_django_middleware_cache.html'
p467
sg10
S'/Library/Python/2.7/site-packages/django/middleware/cache'
p468
sg12
g13
(g14
g15
NtRp469
(dp470
g18
I1
sg19
I0
sg20
I91
sg21
I0
sg22
I0
sg23
I78
sg24
I0
sbssg43
S'j\xd2\xba\xdeY|T\xd2\xe2\x10\x1c\x7f\xe4m\x0c\x02'
p471
ssS'_Library_Python_2_7_site-packages_django_forms_util'
p472
(dp473
g6
(dp474
g48
S'_Library_Python_2_7_site-packages_django_forms_util.html'
p475
sg50
S'/Library/Python/2.7/site-packages/django/forms/util'
p476
sg52
g13
(g14
g15
NtRp477
(dp478
g18
I1
sg19
I0
sg20
I41
sg21
I0
sg22
I0
sg23
I22
sg24
I0
sbssg25
S'\xd5\xdd\xf1\x0c1\x8a\rz"\xf1\xc5\'q\xb3EH'
p479
ssS'_Library_Python_2_7_site-packages_django_utils_termcolors'
p480
(dp481
g6
(dp482
g48
S'_Library_Python_2_7_site-packages_django_utils_termcolors.html'
p483
sg50
S'/Library/Python/2.7/site-packages/django/utils/termcolors'
p484
sg52
g13
(g14
g15
NtRp485
(dp486
g18
I1
sg19
I0
sg20
I56
sg21
I0
sg22
I0
sg23
I40
sg24
I0
sbssg25
S')\xd7\xec/\xe0)\xeb\xed\xa3\\\xca\xca\xc8aI\xa8'
p487
ssS'_Library_Python_2_7_site-packages_django_contrib_sites___init__'
p488
(dp489
g37
(dp490
g8
S'_Library_Python_2_7_site-packages_django_contrib_sites___init__.html'
p491
sg10
S'/Library/Python/2.7/site-packages/django/contrib/sites/__init__'
p492
sg12
g13
(g14
g15
NtRp493
(dp494
g18
I1
sg19
I0
sg20
I0
sg21
I0
sg22
I0
sg23
I0
sg24
I0
sbssg43
S'\xb0\xc8pN\xaf>\xa0\xbaz\x144\xe0A9\xb8?'
p495
ssS'_Library_Python_2_7_site-packages_django_contrib_admin_widgets'
p496
(dp497
g37
(dp498
g8
S'_Library_Python_2_7_site-packages_django_contrib_admin_widgets.html'
p499
sg10
S'/Library/Python/2.7/site-packages/django/contrib/admin/widgets'
p500
sg12
g13
(g14
g15
NtRp501
(dp502
g18
I1
sg19
I0
sg20
I211
sg21
I0
sg22
I0
sg23
I148
sg24
I0
sbssg43
S'\xd8:v\xfea\x15\xe1\x01B\x8b\x16\x81\xff\xc7Q\x13'
p503
ssS'_Library_Python_2_7_site-packages_django_utils_baseconv'
p504
(dp505
g6
(dp506
g48
S'_Library_Python_2_7_site-packages_django_utils_baseconv.html'
p507
sg50
S'/Library/Python/2.7/site-packages/django/utils/baseconv'
p508
sg52
g13
(g14
g15
NtRp509
(dp510
g18
I1
sg19
I0
sg20
I48
sg21
I0
sg22
I0
sg23
I25
sg24
I0
sbssg25
S'1\xe8\xf6U\x98C\xe4\x99\x17*\xe3\xe1\x86\xeej\x0b'
p511
ssS'_Library_Python_2_7_site-packages_django_db___init__'
p512
(dp513
g6
(dp514
g48
S'_Library_Python_2_7_site-packages_django_db___init__.html'
p515
sg50
S'/Library/Python/2.7/site-packages/django/db/__init__'
p516
sg52
g13
(g14
g15
NtRp517
(dp518
g18
I1
sg19
I0
sg20
I32
sg21
I0
sg22
I0
sg23
I12
sg24
I0
sbssg25
S'\xbf\x07\xee\x9b\xb06\xa4@\xc5H\xcf\xed&\xbf\xc7\xd2'
p519
ssS'_Library_Python_2_7_site-packages_django_utils_functional'
p520
(dp521
g6
(dp522
g8
S'_Library_Python_2_7_site-packages_django_utils_functional.html'
p523
sg10
S'/Library/Python/2.7/site-packages/django/utils/functional'
p524
sg12
g13
(g14
g15
NtRp525
(dp526
g18
I1
sg19
I0
sg20
I168
sg21
I0
sg22
I0
sg23
I67
sg24
I0
sbssg25
S'\xcd\xf6c\x16\xb0\x06b\xb1\x95\xe3\xeb^\x807\xf3/'
p527
ssS'carpoolapp_views'
p528
(dp529
g37
(dp530
g8
S'carpoolapp_views.html'
p531
sg10
S'carpoolapp/views'
p532
sg12
g13
(g14
g15
NtRp533
(dp534
g18
I1
sg19
I0
sg20
I734
sg21
I0
sg22
I0
sg23
I464
sg24
I0
sbssg43
S'V\xd9\xfa\xb6\x91\x9c\xa9;\xe9\xc7\xf8\xc0\r\xe8\x7f\x9b'
p535
ssS'_Library_Python_2_7_site-packages_django_views_debug'
p536
(dp537
g6
(dp538
g48
S'_Library_Python_2_7_site-packages_django_views_debug.html'
p539
sg50
S'/Library/Python/2.7/site-packages/django/views/debug'
p540
sg52
g13
(g14
g15
NtRp541
(dp542
g18
I1
sg19
I0
sg20
I274
sg21
I0
sg22
I0
sg23
I230
sg24
I0
sbssg25
S'E\x1f\x8e\xc1[\xc0\xa1\xf0{\xa5;G!T\xff\x9f'
p543
ssS'_Library_Python_2_7_site-packages_django_contrib_admin_actions'
p544
(dp545
g37
(dp546
g8
S'_Library_Python_2_7_site-packages_django_contrib_admin_actions.html'
p547
sg10
S'/Library/Python/2.7/site-packages/django/contrib/admin/actions'
p548
sg12
g13
(g14
g15
NtRp549
(dp550
g18
I1
sg19
I0
sg20
I34
sg21
I0
sg22
I0
sg23
I25
sg24
I0
sbssg43
S'!\xc3\xbf\x11\xd1\xcc\x7fa\xf0\x1d\xaep\xafI\xf5\x0b'
p551
ssS'_Library_Python_2_7_site-packages_django_contrib_contenttypes___init__'
p552
(dp553
g37
(dp554
g8
S'_Library_Python_2_7_site-packages_django_contrib_contenttypes___init__.html'
p555
sg10
S'/Library/Python/2.7/site-packages/django/contrib/contenttypes/__init__'
p556
sg12
g13
(g14
g15
NtRp557
(dp558
g18
I1
sg19
I0
sg20
I0
sg21
I0
sg22
I0
sg23
I0
sg24
I0
sbssg43
S'\xb0\xc8pN\xaf>\xa0\xbaz\x144\xe0A9\xb8?'
p559
ssS'_Library_Python_2_7_site-packages_django_core_handlers___init__'
p560
(dp561
g6
(dp562
g48
S'_Library_Python_2_7_site-packages_django_core_handlers___init__.html'
p563
sg50
S'/Library/Python/2.7/site-packages/django/core/handlers/__init__'
p564
sg52
g13
(g14
g15
NtRp565
(dp566
g18
I1
sg19
I0
sg20
I0
sg21
I0
sg22
I0
sg23
I0
sg24
I0
sbssg25
S'\xb0\xc8pN\xaf>\xa0\xbaz\x144\xe0A9\xb8?'
p567
ssS'_Library_Python_2_7_site-packages_django_db_models_deletion'
p568
(dp569
g6
(dp570
g8
S'_Library_Python_2_7_site-packages_django_db_models_deletion.html'
p571
sg10
S'/Library/Python/2.7/site-packages/django/db/models/deletion'
p572
sg12
g13
(g14
g15
NtRp573
(dp574
g18
I1
sg19
I0
sg20
I146
sg21
I0
sg22
I0
sg23
I48
sg24
I0
sbssg25
S'O\xa9\xe8F\xedG\xb0\x88\xf2XJ\x88R\xbc.!'
p575
ssS'_Library_Python_2_7_site-packages_django_contrib_auth_forms'
p576
(dp577
g37
(dp578
g8
S'_Library_Python_2_7_site-packages_django_contrib_auth_forms.html'
p579
sg10
S'/Library/Python/2.7/site-packages/django/contrib/auth/forms'
p580
sg12
g13
(g14
g15
NtRp581
(dp582
g18
I1
sg19
I0
sg20
I175
sg21
I0
sg22
I0
sg23
I103
sg24
I0
sbssg43
S'\x91\xff\xe6\xf0u\x92\x88\\a\xd6fR\xb5\xf8,E'
p583
ssS'_Library_Python_2_7_site-packages_django_contrib_admin_templatetags___init__'
p584
(dp585
g37
(dp586
g8
S'_Library_Python_2_7_site-packages_django_contrib_admin_templatetags___init__.html'
p587
sg10
S'/Library/Python/2.7/site-packages/django/contrib/admin/templatetags/__init__'
p588
sg12
g13
(g14
g15
NtRp589
(dp590
g18
I1
sg19
I0
sg20
I0
sg21
I0
sg22
I0
sg23
I0
sg24
I0
sbssg43
S'\xb0\xc8pN\xaf>\xa0\xbaz\x144\xe0A9\xb8?'
p591
ssS'_Library_Python_2_7_site-packages_django_contrib_admin___init__'
p592
(dp593
g37
(dp594
g8
S'_Library_Python_2_7_site-packages_django_contrib_admin___init__.html'
p595
sg10
S'/Library/Python/2.7/site-packages/django/contrib/admin/__init__'
p596
sg12
g13
(g14
g15
NtRp597
(dp598
g18
I1
sg19
I0
sg20
I19
sg21
I0
sg22
I0
sg23
I13
sg24
I0
sbssg43
S'yXLFz\xa7\xfe#\x11\xea+\xc9\x1dR"\xfc'
p599
ssS'_Library_Python_2_7_site-packages_south_logger'
p600
(dp601
g37
(dp602
g8
S'_Library_Python_2_7_site-packages_south_logger.html'
p603
sg10
S'/Library/Python/2.7/site-packages/south/logger'
p604
sg12
g13
(g14
g15
NtRp605
(dp606
g18
I1
sg19
I0
sg20
I26
sg21
I0
sg22
I0
sg23
I14
sg24
I0
sbssg43
S'\xbdZM{\x9f\xd1\xfe\xb2\xa9D\xf0\xe2c,\xdf\xee'
p607
ssS'_Library_Python_2_7_site-packages_django_utils_text'
p608
(dp609
g6
(dp610
g48
S'_Library_Python_2_7_site-packages_django_utils_text.html'
p611
sg50
S'/Library/Python/2.7/site-packages/django/utils/text'
p612
sg52
g13
(g14
g15
NtRp613
(dp614
g18
I1
sg19
I0
sg20
I210
sg21
I0
sg22
I0
sg23
I158
sg24
I0
sbssg25
S'\'\x8f\xf8?\xbc\xc41"\xb0\x17\x14V"\x98\x1a\x8e'
p615
ssS'_Library_Python_2_7_site-packages_django_core_signals'
p616
(dp617
g6
(dp618
g48
S'_Library_Python_2_7_site-packages_django_core_signals.html'
p619
sg50
S'/Library/Python/2.7/site-packages/django/core/signals'
p620
sg52
g13
(g14
g15
NtRp621
(dp622
g18
I1
sg19
I0
sg20
I4
sg21
I0
sg22
I0
sg23
I0
sg24
I0
sbssg25
S'\xa8\x92\x82\x13=\x82/\x06\xba\xb2\xa6\xad\xc4o\x81\xc2'
p623
ssS'_Library_Python_2_7_site-packages_django_template_loader_tags'
p624
(dp625
g6
(dp626
g48
S'_Library_Python_2_7_site-packages_django_template_loader_tags.html'
p627
sg50
S'/Library/Python/2.7/site-packages/django/template/loader_tags'
p628
sg52
g13
(g14
g15
NtRp629
(dp630
g18
I1
sg19
I0
sg20
I177
sg21
I0
sg22
I0
sg23
I140
sg24
I0
sbssg25
S'+\x06\xf7\x8aT\x17\x9c\xfcr\x06&\x07\xe8a\t\xc5'
p631
ssS'_Library_Python_2_7_site-packages_django_core_paginator'
p632
(dp633
g37
(dp634
g8
S'_Library_Python_2_7_site-packages_django_core_paginator.html'
p635
sg10
S'/Library/Python/2.7/site-packages/django/core/paginator'
p636
sg12
g13
(g14
g15
NtRp637
(dp638
g18
I1
sg19
I0
sg20
I103
sg21
I0
sg22
I0
sg23
I69
sg24
I0
sbssg43
S'l\x81\xf4\xe4\xf0\xa1\xe9\x101\xd8\x90y\xed\xdb_\x81'
p639
ssS'carpool___init__'
p640
(dp641
g6
(dp642
g48
S'carpool___init__.html'
p643
sg50
S'carpool/__init__'
p644
sg52
g13
(g14
g15
NtRp645
(dp646
g18
I1
sg19
I0
sg20
I0
sg21
I0
sg22
I0
sg23
I0
sg24
I0
sbssg25
S'\xb0\xc8pN\xaf>\xa0\xbaz\x144\xe0A9\xb8?'
p647
ssS'_Library_Python_2_7_site-packages_django_core_management___init__'
p648
(dp649
g6
(dp650
g8
S'_Library_Python_2_7_site-packages_django_core_management___init__.html'
p651
sg10
S'/Library/Python/2.7/site-packages/django/core/management/__init__'
p652
sg12
g13
(g14
g15
NtRp653
(dp654
g18
I1
sg19
I0
sg20
I203
sg21
I0
sg22
I0
sg23
I99
sg24
I0
sbssg25
S'\x92k\xdb\x99\x1b;\xc8c\xc3j\x14\x8b\xa6\xb2\xda\xac'
p655
ssS'_Library_Python_2_7_site-packages_django_utils_tree'
p656
(dp657
g6
(dp658
g8
S'_Library_Python_2_7_site-packages_django_utils_tree.html'
p659
sg10
S'/Library/Python/2.7/site-packages/django/utils/tree'
p660
sg12
g13
(g14
g15
NtRp661
(dp662
g18
I1
sg19
I0
sg20
I62
sg21
I0
sg22
I0
sg23
I18
sg24
I0
sbssg25
S'5I\xa85\xa0#Y\x00\xce\xe3\xc4\xb0=7\xaa\x8c'
p663
ssS'_Library_Python_2_7_site-packages_django_db_models_sql___init__'
p664
(dp665
g6
(dp666
g48
S'_Library_Python_2_7_site-packages_django_db_models_sql___init__.html'
p667
sg50
S'/Library/Python/2.7/site-packages/django/db/models/sql/__init__'
p668
sg52
g13
(g14
g15
NtRp669
(dp670
g18
I1
sg19
I0
sg20
I6
sg21
I0
sg22
I0
sg23
I0
sg24
I0
sbssg25
S'\xea\xf8\xff\x94\xe8\x06\xd7@N\x8e\xb9\x9b)&=f'
p671
ssS'_Library_Python_2_7_site-packages_django_forms_formsets'
p672
(dp673
g6
(dp674
g48
S'_Library_Python_2_7_site-packages_django_forms_formsets.html'
p675
sg50
S'/Library/Python/2.7/site-packages/django/forms/formsets'
p676
sg52
g13
(g14
g15
NtRp677
(dp678
g18
I1
sg19
I0
sg20
I216
sg21
I0
sg22
I0
sg23
I155
sg24
I0
sbssg25
S'U]O\xd9_\xeb\n<EfSe\xd0b\x17\xfd'
p679
ssS'_Library_Python_2_7_site-packages_django_contrib_messages_constants'
p680
(dp681
g37
(dp682
g8
S'_Library_Python_2_7_site-packages_django_contrib_messages_constants.html'
p683
sg10
S'/Library/Python/2.7/site-packages/django/contrib/messages/constants'
p684
sg12
g13
(g14
g15
NtRp685
(dp686
g18
I1
sg19
I0
sg20
I6
sg21
I0
sg22
I0
sg23
I0
sg24
I0
sbssg43
S'\xe2n\xbf/\x11\x9a\xf2\xc6\xa4\x8f~\xd2\x91y\xd4\xda'
p687
ssS'_Library_Python_2_7_site-packages_django_core___init__'
p688
(dp689
g6
(dp690
g48
S'_Library_Python_2_7_site-packages_django_core___init__.html'
p691
sg50
S'/Library/Python/2.7/site-packages/django/core/__init__'
p692
sg52
g13
(g14
g15
NtRp693
(dp694
g18
I1
sg19
I0
sg20
I0
sg21
I0
sg22
I0
sg23
I0
sg24
I0
sbssg25
S'\xb0\xc8pN\xaf>\xa0\xbaz\x144\xe0A9\xb8?'
p695
ssS'_Library_Python_2_7_site-packages_django_contrib_auth___init__'
p696
(dp697
g6
(dp698
g48
S'_Library_Python_2_7_site-packages_django_contrib_auth___init__.html'
p699
sg50
S'/Library/Python/2.7/site-packages/django/contrib/auth/__init__'
p700
sg52
g13
(g14
g15
NtRp701
(dp702
g18
I1
sg19
I0
sg20
I73
sg21
I0
sg22
I0
sg23
I60
sg24
I0
sbssg25
S'B_M\x9d\x87\xec\xba\x84W\x9b\xf6\x96\xf9oC\x9c'
p703
ssS'_Library_Python_2_7_site-packages_south_hacks___init__'
p704
(dp705
g37
(dp706
g8
S'_Library_Python_2_7_site-packages_south_hacks___init__.html'
p707
sg10
S'/Library/Python/2.7/site-packages/south/hacks/__init__'
p708
sg12
g13
(g14
g15
NtRp709
(dp710
g18
I1
sg19
I0
sg20
I2
sg21
I0
sg22
I0
sg23
I0
sg24
I0
sbssg43
S'\xe8V3k\xb0\xad\xbb\xda\xbeP\x9d]y\xd9\xfcT'
p711
ssS'carpoolapp_testUtils'
p712
(dp713
g37
(dp714
g8
S'carpoolapp_testUtils.html'
p715
sg10
S'carpoolapp/testUtils'
p716
sg12
g13
(g14
g15
NtRp717
(dp718
g18
I1
sg19
I0
sg20
I55
sg21
I0
sg22
I0
sg23
I0
sg24
I0
sbssg43
S'\xc2\x04YV\x8d6\x8d\xfe\x90\x87>W3z\x1c\xec'
p719
ssS'_Library_Python_2_7_site-packages_django_core_management_commands_syncdb'
p720
(dp721
g37
(dp722
g8
S'_Library_Python_2_7_site-packages_django_core_management_commands_syncdb.html'
p723
sg10
S'/Library/Python/2.7/site-packages/django/core/management/commands/syncdb'
p724
sg12
g13
(g14
g15
NtRp725
(dp726
g18
I1
sg19
I0
sg20
I100
sg21
I0
sg22
I0
sg23
I25
sg24
I0
sbssg43
S'\x8b.\xe7\xcb\xf35\xd5\xb0\xef/\xd5w\xc3\xf4I\xe9'
p727
ssS'_Library_Python_2_7_site-packages_django_db_models_sql_constants'
p728
(dp729
g6
(dp730
g48
S'_Library_Python_2_7_site-packages_django_db_models_sql_constants.html'
p731
sg50
S'/Library/Python/2.7/site-packages/django/db/models/sql/constants'
p732
sg52
g13
(g14
g15
NtRp733
(dp734
g18
I1
sg19
I0
sg20
I15
sg21
I0
sg22
I0
sg23
I0
sg24
I0
sbssg25
S'_\xa8i4X\x9e\xb0\tKL\xa8\xac8"\x1a\x13'
p735
ssS'_Library_Python_2_7_site-packages_django_http_utils'
p736
(dp737
g6
(dp738
g48
S'_Library_Python_2_7_site-packages_django_http_utils.html'
p739
sg50
S'/Library/Python/2.7/site-packages/django/http/utils'
p740
sg52
g13
(g14
g15
NtRp741
(dp742
g18
I1
sg19
I0
sg20
I39
sg21
I0
sg22
I0
sg23
I35
sg24
I0
sbssg25
S"\xbb\xc3'\xa8C\x18g\x9cz\x03V\xe9i\xd4'Y"
p743
ssS'_Library_Python_2_7_site-packages_django_db_models_fields_subclassing'
p744
(dp745
g6
(dp746
g48
S'_Library_Python_2_7_site-packages_django_db_models_fields_subclassing.html'
p747
sg50
S'/Library/Python/2.7/site-packages/django/db/models/fields/subclassing'
p748
sg52
g13
(g14
g15
NtRp749
(dp750
g18
I1
sg19
I0
sg20
I21
sg21
I0
sg22
I0
sg23
I14
sg24
I0
sbssg25
S'\x94\xfa\xe1\x9f\xf6\xcb\xa6\xb1N\xc5v\xa4\xcb\x9e\xd0n'
p751
ssS'_Library_Python_2_7_site-packages_django_core_handlers_base'
p752
(dp753
g6
(dp754
g48
S'_Library_Python_2_7_site-packages_django_core_handlers_base.html'
p755
sg50
S'/Library/Python/2.7/site-packages/django/core/handlers/base'
p756
sg52
g13
(g14
g15
NtRp757
(dp758
g18
I1
sg19
I0
sg20
I151
sg21
I0
sg22
I0
sg23
I136
sg24
I0
sbssg25
S'\xdad\xee\x14\x17\x9bxc\xbc\xbd@:}Z\x18\xe1'
p759
ssS'_Library_Python_2_7_site-packages_django_utils_itercompat'
p760
(dp761
g6
(dp762
g48
S'_Library_Python_2_7_site-packages_django_utils_itercompat.html'
p763
sg50
S'/Library/Python/2.7/site-packages/django/utils/itercompat'
p764
sg52
g13
(g14
g15
NtRp765
(dp766
g18
I1
sg19
I0
sg20
I24
sg21
I0
sg22
I0
sg23
I15
sg24
I0
sbssg25
S'OXMhC\xbe8\xb9E{b\x17w\xbf\xa2~'
p767
ssS'_Library_Python_2_7_site-packages_django_template_loader'
p768
(dp769
g6
(dp770
g8
S'_Library_Python_2_7_site-packages_django_template_loader.html'
p771
sg10
S'/Library/Python/2.7/site-packages/django/template/loader'
p772
sg12
g13
(g14
g15
NtRp773
(dp774
g18
I1
sg19
I0
sg20
I104
sg21
I0
sg22
I0
sg23
I80
sg24
I0
sbssg25
S'}*y(\xae\xf9\x12\x11\xd0\xee\xad\xd5\x89\xe9\x9e\xea'
p775
ssS'_Library_Python_2_7_site-packages_django_forms___init__'
p776
(dp777
g6
(dp778
g48
S'_Library_Python_2_7_site-packages_django_forms___init__.html'
p779
sg50
S'/Library/Python/2.7/site-packages/django/forms/__init__'
p780
sg52
g13
(g14
g15
NtRp781
(dp782
g18
I1
sg19
I0
sg20
I6
sg21
I0
sg22
I0
sg23
I0
sg24
I0
sbssg25
S"\xfb\x98'\xfe<\x95\xf2Q\xfe,\xaeF\t[\xfeP"
p783
ssS'_Library_Python_2_7_site-packages_django_contrib_sessions_backends___init__'
p784
(dp785
g37
(dp786
g8
S'_Library_Python_2_7_site-packages_django_contrib_sessions_backends___init__.html'
p787
sg10
S'/Library/Python/2.7/site-packages/django/contrib/sessions/backends/__init__'
p788
sg12
g13
(g14
g15
NtRp789
(dp790
g18
I1
sg19
I0
sg20
I0
sg21
I0
sg22
I0
sg23
I0
sg24
I0
sbssg43
S'\xb0\xc8pN\xaf>\xa0\xbaz\x144\xe0A9\xb8?'
p791
ssS'_Library_Python_2_7_site-packages_south_management_commands_test'
p792
(dp793
g37
(dp794
g8
S'_Library_Python_2_7_site-packages_south_management_commands_test.html'
p795
sg10
S'/Library/Python/2.7/site-packages/south/management/commands/test'
p796
sg12
g13
(g14
g15
NtRp797
(dp798
g18
I1
sg19
I0
sg20
I6
sg21
I0
sg22
I0
sg23
I0
sg24
I0
sbssg43
S"\x98'+\xf5\x95\xb5zx\xee\xd4\x1f\xc1\xe6\xc8\xb3\xfd"
p799
ssS'_Library_Python_2_7_site-packages_psycopg2_extensions'
p800
(dp801
g6
(dp802
g48
S'_Library_Python_2_7_site-packages_psycopg2_extensions.html'
p803
sg50
S'/Library/Python/2.7/site-packages/psycopg2/extensions'
p804
sg52
g13
(g14
g15
NtRp805
(dp806
g18
I1
sg19
I0
sg20
I84
sg21
I0
sg22
I0
sg23
I22
sg24
I0
sbssg25
S'L\xf2+\x0b\x89\x9d\xf8"kV\xbc9\xa5\x8fkz'
p807
ssS'_Library_Python_2_7_site-packages_django_utils_html_parser'
p808
(dp809
g6
(dp810
g48
S'_Library_Python_2_7_site-packages_django_utils_html_parser.html'
p811
sg50
S'/Library/Python/2.7/site-packages/django/utils/html_parser'
p812
sg52
g13
(g14
g15
NtRp813
(dp814
g18
I1
sg19
I0
sg20
I79
sg21
I0
sg22
I0
sg23
I67
sg24
I0
sbssg25
S'\x97\xe2\x0cix\x9d\x1c\x1d\x822\xcb\xcf\xd5\xffO\xd4'
p815
ssS'_Library_Python_2_7_site-packages_django_core_signing'
p816
(dp817
g6
(dp818
g48
S'_Library_Python_2_7_site-packages_django_core_signing.html'
p819
sg50
S'/Library/Python/2.7/site-packages/django/core/signing'
p820
sg52
g13
(g14
g15
NtRp821
(dp822
g18
I1
sg19
I0
sg20
I92
sg21
I0
sg22
I0
sg23
I61
sg24
I0
sbssg25
S'\xb7\x1bS\x13Q\xb4\xf5k\x90\xf7hKv\xf0\xb8\x87'
p823
ssS'_Library_Python_2_7_site-packages_django_utils_translation___init__'
p824
(dp825
g6
(dp826
g8
S'_Library_Python_2_7_site-packages_django_utils_translation___init__.html'
p827
sg10
S'/Library/Python/2.7/site-packages/django/utils/translation/__init__'
p828
sg12
g13
(g14
g15
NtRp829
(dp830
g18
I1
sg19
I0
sg20
I86
sg21
I0
sg22
I0
sg23
I26
sg24
I0
sbssg25
S'\xda\xd8\xce\xd4\xc15\xcb*\xa5\xefV\\\x97\x87L\x0b'
p831
ssS'_Library_Python_2_7_site-packages_django_core_servers___init__'
p832
(dp833
g6
(dp834
g48
S'_Library_Python_2_7_site-packages_django_core_servers___init__.html'
p835
sg50
S'/Library/Python/2.7/site-packages/django/core/servers/__init__'
p836
sg52
g13
(g14
g15
NtRp837
(dp838
g18
I1
sg19
I0
sg20
I0
sg21
I0
sg22
I0
sg23
I0
sg24
I0
sbssg25
S'\xb0\xc8pN\xaf>\xa0\xbaz\x144\xe0A9\xb8?'
p839
ssS'_Library_Python_2_7_site-packages_django_contrib_admin_sites'
p840
(dp841
g37
(dp842
g8
S'_Library_Python_2_7_site-packages_django_contrib_admin_sites.html'
p843
sg10
S'/Library/Python/2.7/site-packages/django/contrib/admin/sites'
p844
sg12
g13
(g14
g15
NtRp845
(dp846
g18
I1
sg19
I0
sg20
I203
sg21
I0
sg22
I0
sg23
I146
sg24
I0
sbssg43
S'Mu\xc1\xf3\xa4\xd9D%Sd\xae\x1e\xcetA\x13'
p847
ssS'_Library_Python_2_7_site-packages_pytz_tzfile'
p848
(dp849
g6
(dp850
g8
S'_Library_Python_2_7_site-packages_pytz_tzfile.html'
p851
sg10
S'/Library/Python/2.7/site-packages/pytz/tzfile'
p852
sg12
g13
(g14
g15
NtRp853
(dp854
g18
I1
sg19
I0
sg20
I81
sg21
I0
sg22
I0
sg23
I18
sg24
I0
sbssg25
S'\xa5\xcd\\>\xec\x1f1p\x01\x0c\x86\x93\x16\x8bI\xb3'
p855
ssS'_Library_Python_2_7_site-packages_django_core_files_base'
p856
(dp857
g6
(dp858
g48
S'_Library_Python_2_7_site-packages_django_core_files_base.html'
p859
sg50
S'/Library/Python/2.7/site-packages/django/core/files/base'
p860
sg52
g13
(g14
g15
NtRp861
(dp862
g18
I1
sg19
I0
sg20
I90
sg21
I0
sg22
I0
sg23
I59
sg24
I0
sbssg25
S'w\x89\xd9X\xe9\xd8\xac\x9b\xd1\xb9\xbc\xa3\xe5\xa3\xa1x'
p863
ssS'_Library_Python_2_7_site-packages_django_core_management_commands_loaddata'
p864
(dp865
g37
(dp866
g8
S'_Library_Python_2_7_site-packages_django_core_management_commands_loaddata.html'
p867
sg10
S'/Library/Python/2.7/site-packages/django/core/management/commands/loaddata'
p868
sg12
g13
(g14
g15
NtRp869
(dp870
g18
I1
sg19
I0
sg20
I163
sg21
I0
sg22
I0
sg23
I141
sg24
I0
sbssg43
S'\xcb?\xf1\x84j\x90\x15\xefx\xfc8\x93+\xd4\x81)'
p871
ssS'_Library_Python_2_7_site-packages_django_template_smartif'
p872
(dp873
g6
(dp874
g48
S'_Library_Python_2_7_site-packages_django_template_smartif.html'
p875
sg50
S'/Library/Python/2.7/site-packages/django/template/smartif'
p876
sg52
g13
(g14
g15
NtRp877
(dp878
g18
I1
sg19
I0
sg20
I104
sg21
I0
sg22
I0
sg23
I61
sg24
I0
sbssg25
S'\xdd)I\xf1\xfb\xd4\xfe\x86hd0\x89\x8a|\xf9\x8a'
p879
ssS'_Library_Python_2_7_site-packages_django_db_models_sql_aggregates'
p880
(dp881
g6
(dp882
g48
S'_Library_Python_2_7_site-packages_django_db_models_sql_aggregates.html'
p883
sg50
S'/Library/Python/2.7/site-packages/django/db/models/sql/aggregates'
p884
sg52
g13
(g14
g15
NtRp885
(dp886
g18
I1
sg19
I0
sg20
I57
sg21
I0
sg22
I0
sg23
I27
sg24
I0
sbssg25
S'"\xd6\xd4\x0f\xa9\xc7/\xabr\x93@\x0b\x90p\xca\xdf'
p887
ssS'_Library_Python_2_7_site-packages_django_shortcuts___init__'
p888
(dp889
g37
(dp890
g8
S'_Library_Python_2_7_site-packages_django_shortcuts___init__.html'
p891
sg10
S'/Library/Python/2.7/site-packages/django/shortcuts/__init__'
p892
sg12
g13
(g14
g15
NtRp893
(dp894
g18
I1
sg19
I0
sg20
I52
sg21
I0
sg22
I0
sg23
I40
sg24
I0
sbssg43
S'\x0e\xab\xe7\xd7E\x98"9p\x14;\xae\x11@l\x7f'
p895
ssS'_Library_Python_2_7_site-packages_django_views_decorators_csrf'
p896
(dp897
g37
(dp898
g8
S'_Library_Python_2_7_site-packages_django_views_decorators_csrf.html'
p899
sg10
S'/Library/Python/2.7/site-packages/django/views/decorators/csrf'
p900
sg12
g13
(g14
g15
NtRp901
(dp902
g18
I1
sg19
I0
sg20
I34
sg21
I0
sg22
I0
sg23
I9
sg24
I0
sbssg43
S'*\xd8+Z\xa9\xf5\x97\xcf\x98o\x88\x910\xe1T\x96'
p903
ssS'_Library_Python_2_7_site-packages_pytz___init__'
p904
(dp905
g6
(dp906
g8
S'_Library_Python_2_7_site-packages_pytz___init__.html'
p907
sg10
S'/Library/Python/2.7/site-packages/pytz/__init__'
p908
sg12
g13
(g14
g15
NtRp909
(dp910
g18
I1
sg19
I0
sg20
I206
sg21
I0
sg22
I0
sg23
I105
sg24
I0
sbssg25
S"\xd0z\xad'}\xf1\x02P\xcao@\xad\xac4\xd9\x1d"
p911
ssS'_Library_Python_2_7_site-packages_django_contrib_sites_management'
p912
(dp913
g37
(dp914
g8
S'_Library_Python_2_7_site-packages_django_contrib_sites_management.html'
p915
sg10
S'/Library/Python/2.7/site-packages/django/contrib/sites/management'
p916
sg12
g13
(g14
g15
NtRp917
(dp918
g18
I1
sg19
I0
sg20
I20
sg21
I0
sg22
I0
sg23
I2
sg24
I0
sbssg43
S'\xe1\xdc;QH^g.v\x17\x19\x0e\xad\xd9\x96\xdc'
p919
ssS'_Library_Python_2_7_site-packages_django_core_cache_backends_base'
p920
(dp921
g6
(dp922
g48
S'_Library_Python_2_7_site-packages_django_core_cache_backends_base.html'
p923
sg50
S'/Library/Python/2.7/site-packages/django/core/cache/backends/base'
p924
sg52
g13
(g14
g15
NtRp925
(dp926
g18
I1
sg19
I0
sg20
I99
sg21
I0
sg22
I0
sg23
I54
sg24
I0
sbssg25
S'#J\xfe\x1c\xfd\x80\xd1t9\x81\xdc\x9b\xcf\xc9\xd6\xeb'
p927
ssS'_Library_Python_2_7_site-packages_django_utils_encoding'
p928
(dp929
g6
(dp930
g8
S'_Library_Python_2_7_site-packages_django_utils_encoding.html'
p931
sg10
S'/Library/Python/2.7/site-packages/django/utils/encoding'
p932
sg12
g13
(g14
g15
NtRp933
(dp934
g18
I1
sg19
I0
sg20
I82
sg21
I0
sg22
I0
sg23
I34
sg24
I0
sbssg25
S'\xe5]\x9e(\xfc\x0bk\x90\xbf\n\xc8\xb0T\x16c\xe3'
p935
ssS'_Library_Python_2_7_site-packages_django_db_backends_postgresql_psycopg2___init__'
p936
(dp937
g6
(dp938
g48
S'_Library_Python_2_7_site-packages_django_db_backends_postgresql_psycopg2___init__.html'
p939
sg50
S'/Library/Python/2.7/site-packages/django/db/backends/postgresql_psycopg2/__init__'
p940
sg52
g13
(g14
g15
NtRp941
(dp942
g18
I1
sg19
I0
sg20
I0
sg21
I0
sg22
I0
sg23
I0
sg24
I0
sbssg25
S'\xb0\xc8pN\xaf>\xa0\xbaz\x144\xe0A9\xb8?'
p943
ssS'_Library_Python_2_7_site-packages_django_template_context'
p944
(dp945
g6
(dp946
g48
S'_Library_Python_2_7_site-packages_django_template_context.html'
p947
sg50
S'/Library/Python/2.7/site-packages/django/template/context'
p948
sg52
g13
(g14
g15
NtRp949
(dp950
g18
I1
sg19
I0
sg20
I111
sg21
I0
sg22
I0
sg23
I78
sg24
I0
sbssg25
S"\x9b\xe5\x82$\xa9\x97\xdeD\x9f'6\n\xa2\xdcU\xb5"
p951
ssS'_Library_Python_2_7_site-packages_django_template_loaders_cached'
p952
(dp953
g6
(dp954
g48
S'_Library_Python_2_7_site-packages_django_template_loaders_cached.html'
p955
sg50
S'/Library/Python/2.7/site-packages/django/template/loaders/cached'
p956
sg52
g13
(g14
g15
NtRp957
(dp958
g18
I1
sg19
I0
sg20
I39
sg21
I0
sg22
I0
sg23
I29
sg24
I0
sbssg25
S'\xbd\x94\xffb;\xa88z\x13\xeezM[\x94x\xb4'
p959
ssS'_Library_Python_2_7_site-packages_django_utils_formats'
p960
(dp961
g6
(dp962
g8
S'_Library_Python_2_7_site-packages_django_utils_formats.html'
p963
sg10
S'/Library/Python/2.7/site-packages/django/utils/formats'
p964
sg12
g13
(g14
g15
NtRp965
(dp966
g18
I1
sg19
I0
sg20
I108
sg21
I0
sg22
I0
sg23
I54
sg24
I0
sbssg25
S'R\x02|\xdd[\xba\xaet\xb11\x03\xbb\xf9\x0f\x1b\xe2'
p967
ssS'_Library_Python_2_7_site-packages_django_db_utils'
p968
(dp969
g6
(dp970
g8
S'_Library_Python_2_7_site-packages_django_db_utils.html'
p971
sg10
S'/Library/Python/2.7/site-packages/django/db/utils'
p972
sg12
g13
(g14
g15
NtRp973
(dp974
g18
I1
sg19
I0
sg20
I120
sg21
I0
sg22
I0
sg23
I58
sg24
I0
sbssg25
S'Sv\xb3q\x8e\xc4p\xf3\xddK\xa8I\x86\xb1\xee\xa9'
p975
ssS'_Library_Python_2_7_site-packages_django_core_management_commands___init__'
p976
(dp977
g6
(dp978
g48
S'_Library_Python_2_7_site-packages_django_core_management_commands___init__.html'
p979
sg50
S'/Library/Python/2.7/site-packages/django/core/management/commands/__init__'
p980
sg52
g13
(g14
g15
NtRp981
(dp982
g18
I1
sg19
I0
sg20
I0
sg21
I0
sg22
I0
sg23
I0
sg24
I0
sbssg25
S'\xb0\xc8pN\xaf>\xa0\xbaz\x144\xe0A9\xb8?'
p983
ssS'_Library_Python_2_7_site-packages_django_db_models_fields_related'
p984
(dp985
g6
(dp986
g8
S'_Library_Python_2_7_site-packages_django_db_models_fields_related.html'
p987
sg10
S'/Library/Python/2.7/site-packages/django/db/models/fields/related'
p988
sg12
g13
(g14
g15
NtRp989
(dp990
g18
I1
sg19
I0
sg20
I713
sg21
I0
sg22
I0
sg23
I406
sg24
I0
sbssg25
S'\x8e0\x9alt\xa6n\x8c\xc04 \x85D\xd6n;'
p991
ssS'_Library_Python_2_7_site-packages_django_utils_numberformat'
p992
(dp993
g6
(dp994
g48
S'_Library_Python_2_7_site-packages_django_utils_numberformat.html'
p995
sg50
S'/Library/Python/2.7/site-packages/django/utils/numberformat'
p996
sg52
g13
(g14
g15
NtRp997
(dp998
g18
I1
sg19
I0
sg20
I31
sg21
I0
sg22
I0
sg23
I28
sg24
I0
sbssg25
S't\x93m\x81b\xf9\x03K\xc5\xb4a\xde\xfff \xd7'
p999
ssS'_Library_Python_2_7_site-packages_django_contrib_admin_options'
p1000
(dp1001
g37
(dp1002
g8
S'_Library_Python_2_7_site-packages_django_contrib_admin_options.html'
p1003
sg10
S'/Library/Python/2.7/site-packages/django/contrib/admin/options'
p1004
sg12
g13
(g14
g15
NtRp1005
(dp1006
g18
I1
sg19
I0
sg20
I735
sg21
I0
sg22
I0
sg23
I575
sg24
I0
sbssg43
S'\xc8\x08r%t\xb5\x9d}<\x1eQ\x8ezF\\\x9c'
p1007
ssS'_Library_Python_2_7_site-packages_django_contrib___init__'
p1008
(dp1009
g6
(dp1010
g48
S'_Library_Python_2_7_site-packages_django_contrib___init__.html'
p1011
sg50
S'/Library/Python/2.7/site-packages/django/contrib/__init__'
p1012
sg52
g13
(g14
g15
NtRp1013
(dp1014
g18
I1
sg19
I0
sg20
I0
sg21
I0
sg22
I0
sg23
I0
sg24
I0
sbssg25
S'\xb0\xc8pN\xaf>\xa0\xbaz\x144\xe0A9\xb8?'
p1015
ssS'_Library_Python_2_7_site-packages_django_contrib_admin_templatetags_admin_static'
p1016
(dp1017
g37
(dp1018
g8
S'_Library_Python_2_7_site-packages_django_contrib_admin_templatetags_admin_static.html'
p1019
sg10
S'/Library/Python/2.7/site-packages/django/contrib/admin/templatetags/admin_static'
p1020
sg12
g13
(g14
g15
NtRp1021
(dp1022
g18
I1
sg19
I0
sg20
I7
sg21
I0
sg22
I0
sg23
I1
sg24
I0
sbssg43
S'\x99{\xd7\xbc\xa3W\x085\xed$9\xd94r\xea\x15'
p1023
ssS'carpoolapp_testLib'
p1024
(dp1025
g37
(dp1026
g8
S'carpoolapp_testLib.html'
p1027
sg10
S'carpoolapp/testLib'
p1028
sg12
g13
(g14
g15
NtRp1029
(dp1030
g18
I1
sg19
I0
sg20
I80
sg21
I0
sg22
I0
sg23
I5
sg24
I0
sbssg43
S'\xc9*\x9a!\xfbM\x88\x0e\x8a\x19\xc3\xae\x01\x8f\xd7\xa4'
p1031
ssS'_Library_Python_2_7_site-packages_django_db_backends_postgresql_psycopg2_client'
p1032
(dp1033
g6
(dp1034
g48
S'_Library_Python_2_7_site-packages_django_db_backends_postgresql_psycopg2_client.html'
p1035
sg50
S'/Library/Python/2.7/site-packages/django/db/backends/postgresql_psycopg2/client'
p1036
sg52
g13
(g14
g15
NtRp1037
(dp1038
g18
I1
sg19
I0
sg20
I18
sg21
I0
sg22
I0
sg23
I12
sg24
I0
sbssg25
S'\xaa[\x13W\x00\x11m\xb4\xd2717LZ\x00M'
p1039
ssS'_Library_Python_2_7_site-packages_south_migration___init__'
p1040
(dp1041
g37
(dp1042
g8
S'_Library_Python_2_7_site-packages_south_migration___init__.html'
p1043
sg10
S'/Library/Python/2.7/site-packages/south/migration/__init__'
p1044
sg12
g13
(g14
g15
NtRp1045
(dp1046
g18
I1
sg19
I0
sg20
I152
sg21
I0
sg22
I0
sg23
I129
sg24
I0
sbssg43
S'\xd2X\xf6S\x03\xd9\x1a}\x1f\xad0X\x14FI\x99'
p1047
ssS'_Library_Python_2_7_site-packages_django_dispatch_dispatcher'
p1048
(dp1049
g6
(dp1050
g8
S'_Library_Python_2_7_site-packages_django_dispatch_dispatcher.html'
p1051
sg10
S'/Library/Python/2.7/site-packages/django/dispatch/dispatcher'
p1052
sg12
g13
(g14
g15
NtRp1053
(dp1054
g18
I1
sg19
I0
sg20
I101
sg21
I0
sg22
I0
sg23
I45
sg24
I0
sbssg25
S'S\xca\xfe\x8e\xc3Q\r\xc6K\xabIi\x11\xda\x9e#'
p1055
ssS'_Library_Python_2_7_site-packages_django_views_decorators_cache'
p1056
(dp1057
g37
(dp1058
g8
S'_Library_Python_2_7_site-packages_django_views_decorators_cache.html'
p1059
sg10
S'/Library/Python/2.7/site-packages/django/views/decorators/cache'
p1060
sg12
g13
(g14
g15
NtRp1061
(dp1062
g18
I1
sg19
I0
sg20
I40
sg21
I0
sg22
I0
sg23
I31
sg24
I0
sbssg43
S'\x02B\x80\x13a\x16\x1dq\xc1oy\xd0\x0e\x1c\x7fW'
p1063
ssS'_Library_Python_2_7_site-packages_psycopg2___init__'
p1064
(dp1065
g6
(dp1066
g8
S'_Library_Python_2_7_site-packages_psycopg2___init__.html'
p1067
sg10
S'/Library/Python/2.7/site-packages/psycopg2/__init__'
p1068
sg12
g13
(g14
g15
NtRp1069
(dp1070
g18
I1
sg19
I0
sg20
I60
sg21
I0
sg22
I0
sg23
I13
sg24
I0
sbssg25
S'\xbe\x94$\x91cq\x9a\xf0\xb56\x8e\xcaw\xc7{X'
p1071
ssS'carpoolapp_googlemaps'
p1072
(dp1073
g37
(dp1074
g8
S'carpoolapp_googlemaps.html'
p1075
sg10
S'carpoolapp/googlemaps'
p1076
sg12
g13
(g14
g15
NtRp1077
(dp1078
g18
I1
sg19
I0
sg20
I106
sg21
I0
sg22
I0
sg23
I69
sg24
I0
sbssg43
S'%\x94\x00\xfa\xf9\xbc\xc2b\xd7\xda\xb8\x15I\xdc\xbe!'
p1079
ssS'_Library_Python_2_7_site-packages_django_dispatch___init__'
p1080
(dp1081
g6
(dp1082
g48
S'_Library_Python_2_7_site-packages_django_dispatch___init__.html'
p1083
sg50
S'/Library/Python/2.7/site-packages/django/dispatch/__init__'
p1084
sg52
g13
(g14
g15
NtRp1085
(dp1086
g18
I1
sg19
I0
sg20
I1
sg21
I0
sg22
I0
sg23
I0
sg24
I0
sbssg25
S'\xe9$\xa4\xf3k\xc7$G\xbe^\x9e5~A\x94\xd1'
p1087
ssS'_Library_Python_2_7_site-packages_django_db_models_sql_datastructures'
p1088
(dp1089
g6
(dp1090
g48
S'_Library_Python_2_7_site-packages_django_db_models_sql_datastructures.html'
p1091
sg50
S'/Library/Python/2.7/site-packages/django/db/models/sql/datastructures'
p1092
sg52
g13
(g14
g15
NtRp1093
(dp1094
g18
I1
sg19
I0
sg20
I25
sg21
I0
sg22
I0
sg23
I11
sg24
I0
sbssg25
S"\xab\x99\\\xa2\x90\x03\x16\xdf\xd8p\x82'\xa1\xd3\x8ct"
p1095
ssS'_Library_Python_2_7_site-packages_django_utils_unittest___init__'
p1096
(dp1097
g6
(dp1098
g48
S'_Library_Python_2_7_site-packages_django_utils_unittest___init__.html'
p1099
sg50
S'/Library/Python/2.7/site-packages/django/utils/unittest/__init__'
p1100
sg52
g13
(g14
g15
NtRp1101
(dp1102
g18
I1
sg19
I0
sg20
I23
sg21
I0
sg22
I0
sg23
I17
sg24
I0
sbssg25
S'\xccP\x9c\xf4\x9b(\x7f#1\xb9\xe3X7\xb4\xe6B'
p1103
ssS'_Library_Python_2_7_site-packages_django_db_transaction'
p1104
(dp1105
g6
(dp1106
g8
S'_Library_Python_2_7_site-packages_django_db_transaction.html'
p1107
sg10
S'/Library/Python/2.7/site-packages/django/db/transaction'
p1108
sg12
g13
(g14
g15
NtRp1109
(dp1110
g18
I1
sg19
I0
sg20
I131
sg21
I0
sg22
I0
sg23
I70
sg24
I0
sbssg25
S'M\xc23e\xb0y\xd0\xa21\xb6M>A*u\x15'
p1111
ssS'_Library_Python_2_7_site-packages_django_db_models_related'
p1112
(dp1113
g6
(dp1114
g8
S'_Library_Python_2_7_site-packages_django_db_models_related.html'
p1115
sg10
S'/Library/Python/2.7/site-packages/django/db/models/related'
p1116
sg12
g13
(g14
g15
NtRp1117
(dp1118
g18
I1
sg19
I0
sg20
I41
sg21
I0
sg22
I0
sg23
I17
sg24
I0
sbssg25
S'\x01\xed\xbb\xef\xa5\xbe\xb0\xfd\xe7\x006\xbd\xc1=\x9a)'
p1119
ssS'manage'
p1120
(dp1121
g6
(dp1122
g48
S'manage.html'
p1123
sg50
g1120
sg52
g13
(g14
g15
NtRp1124
(dp1125
g18
I1
sg19
I0
sg20
I6
sg21
I0
sg22
I0
sg23
I0
sg24
I0
sbssg25
S'\x80\x94\xf5\xd5\x11\x194\xbd$\xa6%\xe1e\x0c\x17\x15'
p1126
ssS'_Library_Python_2_7_site-packages_django_utils_datastructures'
p1127
(dp1128
g6
(dp1129
g8
S'_Library_Python_2_7_site-packages_django_utils_datastructures.html'
p1130
sg10
S'/Library/Python/2.7/site-packages/django/utils/datastructures'
p1131
sg12
g13
(g14
g15
NtRp1132
(dp1133
g18
I1
sg19
I0
sg20
I292
sg21
I0
sg22
I0
sg23
I159
sg24
I0
sbssg25
S'[\x14E\xb4\xb6\xa5\x99\xe8ge\x9b/\x1e<ww'
p1134
ssS'_Library_Python_2_7_site-packages_django_db_models_sql_where'
p1135
(dp1136
g6
(dp1137
g8
S'_Library_Python_2_7_site-packages_django_db_models_sql_where.html'
p1138
sg10
S'/Library/Python/2.7/site-packages/django/db/models/sql/where'
p1139
sg12
g13
(g14
g15
NtRp1140
(dp1141
g18
I1
sg19
I0
sg20
I198
sg21
I0
sg22
I0
sg23
I84
sg24
I0
sbssg25
S'E\xec\x84\xdf\xd2vAu\x19\x01g\xd7\xb1H\xf1\x8e'
p1142
ssS'_Library_Python_2_7_site-packages_django_core_cache_backends_locmem'
p1143
(dp1144
g6
(dp1145
g48
S'_Library_Python_2_7_site-packages_django_core_cache_backends_locmem.html'
p1146
sg50
S'/Library/Python/2.7/site-packages/django/core/cache/backends/locmem'
p1147
sg52
g13
(g14
g15
NtRp1148
(dp1149
g18
I1
sg19
I0
sg20
I120
sg21
I0
sg22
I0
sg23
I93
sg24
I0
sbssg25
S"*\x1f\x1f<\x8b\x1f\x18\xc9zxN\x18S\xa9'\x91"
p1150
ssS'_Library_Python_2_7_site-packages_django_db_models_fields___init__'
p1151
(dp1152
g6
(dp1153
g8
S'_Library_Python_2_7_site-packages_django_db_models_fields___init__.html'
p1154
sg10
S'/Library/Python/2.7/site-packages/django/db/models/fields/__init__'
p1155
sg12
g13
(g14
g15
NtRp1156
(dp1157
g18
I1
sg19
I0
sg20
I778
sg21
I0
sg22
I0
sg23
I374
sg24
I0
sbssg25
S'\x8b1_\xf7\xf1\xbcv\x94\x804\xf8\xa4n6II'
p1158
ssS'_Library_Python_2_7_site-packages_django_utils_synch'
p1159
(dp1160
g6
(dp1161
g48
S'_Library_Python_2_7_site-packages_django_utils_synch.html'
p1162
sg50
S'/Library/Python/2.7/site-packages/django/utils/synch'
p1163
sg52
g13
(g14
g15
NtRp1164
(dp1165
g18
I1
sg19
I0
sg20
I60
sg21
I0
sg22
I0
sg23
I41
sg24
I0
sbssg25
S'\xda\xed\xb8;\x18\xf0IL\xc7`[\xdd\xd9\xde\xb4e'
p1166
ssS'_Library_Python_2_7_site-packages_south_db_generic'
p1167
(dp1168
g37
(dp1169
g8
S'_Library_Python_2_7_site-packages_south_db_generic.html'
p1170
sg10
S'/Library/Python/2.7/site-packages/south/db/generic'
p1171
sg12
g13
(g14
g15
NtRp1172
(dp1173
g18
I1
sg19
I0
sg20
I569
sg21
I0
sg22
I0
sg23
I438
sg24
I0
sbssg43
S".^R\xe1\xa7'p\xecP*[\xa0\xb6\xa2\xfeL"
p1174
ssS'_Library_Python_2_7_site-packages_django_forms_models'
p1175
(dp1176
g6
(dp1177
g8
S'_Library_Python_2_7_site-packages_django_forms_models.html'
p1178
sg10
S'/Library/Python/2.7/site-packages/django/forms/models'
p1179
sg12
g13
(g14
g15
NtRp1180
(dp1181
g18
I1
sg19
I0
sg20
I584
sg21
I0
sg22
I0
sg23
I432
sg24
I0
sbssg25
S'Y\x10\x19\xdb\xc87\xc9\nq\x81\xd2i\xaa\x90S\x1e'
p1182
ssS'_Library_Python_2_7_site-packages_django_contrib_sessions___init__'
p1183
(dp1184
g37
(dp1185
g8
S'_Library_Python_2_7_site-packages_django_contrib_sessions___init__.html'
p1186
sg10
S'/Library/Python/2.7/site-packages/django/contrib/sessions/__init__'
p1187
sg12
g13
(g14
g15
NtRp1188
(dp1189
g18
I1
sg19
I0
sg20
I0
sg21
I0
sg22
I0
sg23
I0
sg24
I0
sbssg43
S'\xb0\xc8pN\xaf>\xa0\xbaz\x144\xe0A9\xb8?'
p1190
ssS'_Library_Python_2_7_site-packages_django_utils_http'
p1191
(dp1192
g6
(dp1193
g48
S'_Library_Python_2_7_site-packages_django_utils_http.html'
p1194
sg50
S'/Library/Python/2.7/site-packages/django/utils/http'
p1195
sg52
g13
(g14
g15
NtRp1196
(dp1197
g18
I1
sg19
I0
sg20
I115
sg21
I0
sg22
I0
sg23
I74
sg24
I0
sbssg25
S"\x81\x9f&\xec\x13\x05\x0b\xce\x99\x8a\xa4\x82'`\xf2\x9c"
p1198
ssS'_Library_Python_2_7_site-packages_django_test_utils'
p1199
(dp1200
g6
(dp1201
g8
S'_Library_Python_2_7_site-packages_django_test_utils.html'
p1202
sg10
S'/Library/Python/2.7/site-packages/django/test/utils'
p1203
sg12
g13
(g14
g15
NtRp1204
(dp1205
g18
I1
sg19
I0
sg20
I121
sg21
I0
sg22
I0
sg23
I69
sg24
I0
sbssg25
S'H\xee\x01\x07}\xa41T\xf8t\xe0\r\x00\xba{\xad'
p1206
ssS'_Library_Python_2_7_site-packages_django_utils_safestring'
p1207
(dp1208
g6
(dp1209
g8
S'_Library_Python_2_7_site-packages_django_utils_safestring.html'
p1210
sg10
S'/Library/Python/2.7/site-packages/django/utils/safestring'
p1211
sg12
g13
(g14
g15
NtRp1212
(dp1213
g18
I1
sg19
I0
sg20
I57
sg21
I0
sg22
I0
sg23
I31
sg24
I0
sbssg25
S'\xd5\x8c/m\x01p\xe3\x00b\xa4\xcf\xe1\xbe\x0c\xa2a'
p1214
ssS'_Library_Python_2_7_site-packages_django_db_models_loading'
p1215
(dp1216
g6
(dp1217
g8
S'_Library_Python_2_7_site-packages_django_db_models_loading.html'
p1218
sg10
S'/Library/Python/2.7/site-packages/django/db/models/loading'
p1219
sg12
g13
(g14
g15
NtRp1220
(dp1221
g18
I1
sg19
I0
sg20
I119
sg21
I0
sg22
I0
sg23
I21
sg24
I0
sbssg25
S"\xf9\xacF\xab\x13j\xfe'|\xc6\x90\xea\x97]q\xb3"
p1222
ssS'_Library_Python_2_7_site-packages_django_conf_global_settings'
p1223
(dp1224
g6
(dp1225
g48
S'_Library_Python_2_7_site-packages_django_conf_global_settings.html'
p1226
sg50
S'/Library/Python/2.7/site-packages/django/conf/global_settings'
p1227
sg52
g13
(g14
g15
NtRp1228
(dp1229
g18
I1
sg19
I0
sg20
I118
sg21
I0
sg22
I0
sg23
I0
sg24
I0
sbssg25
S'\xba\x06~\xde\x10?\xd3q\xeb#i&\x19H\xe2l'
p1230
ssS'_Library_Python_2_7_site-packages_django_contrib_messages___init__'
p1231
(dp1232
g37
(dp1233
g8
S'_Library_Python_2_7_site-packages_django_contrib_messages___init__.html'
p1234
sg10
S'/Library/Python/2.7/site-packages/django/contrib/messages/__init__'
p1235
sg12
g13
(g14
g15
NtRp1236
(dp1237
g18
I1
sg19
I0
sg20
I3
sg21
I0
sg22
I0
sg23
I0
sg24
I0
sbssg43
S'\x01~\xb7\xc9ZD\xe5N\xc3\x01\xc2\x94u\x0b`\x9e'
p1238
ssS'_Library_Python_2_7_site-packages_django_contrib_sessions_backends_base'
p1239
(dp1240
g37
(dp1241
g8
S'_Library_Python_2_7_site-packages_django_contrib_sessions_backends_base.html'
p1242
sg10
S'/Library/Python/2.7/site-packages/django/contrib/sessions/backends/base'
p1243
sg12
g13
(g14
g15
NtRp1244
(dp1245
g18
I1
sg19
I0
sg20
I160
sg21
I0
sg22
I0
sg23
I104
sg24
I0
sbssg43
S'r\x1ed\xed\xe2u\x92g\xd3}\xf3\x7f\xae:AK'
p1246
ssS'_Library_Python_2_7_site-packages_django_core_management_color'
p1247
(dp1248
g6
(dp1249
g8
S'_Library_Python_2_7_site-packages_django_core_management_color.html'
p1250
sg10
S'/Library/Python/2.7/site-packages/django/core/management/color'
p1251
sg12
g13
(g14
g15
NtRp1252
(dp1253
g18
I1
sg19
I0
sg20
I28
sg21
I0
sg22
I0
sg23
I3
sg24
I0
sbssg25
S'\x1f\x18m\xdf\x9b&\x90\xbe\xf5\x15C\x10\x8e\x16\xcd\xc4'
p1254
ssS'_Library_Python_2_7_site-packages_django_core_serializers_python'
p1255
(dp1256
g37
(dp1257
g8
S'_Library_Python_2_7_site-packages_django_core_serializers_python.html'
p1258
sg10
S'/Library/Python/2.7/site-packages/django/core/serializers/python'
p1259
sg12
g13
(g14
g15
NtRp1260
(dp1261
g18
I1
sg19
I0
sg20
I78
sg21
I0
sg22
I0
sg23
I62
sg24
I0
sbssg43
S'\xe1\xe7\x12\xa2\xca\xdc\xf5\xa3DW\x8f\x1b\x816H\xe3'
p1262
ssS'_Library_Python_2_7_site-packages_django_contrib_messages_api'
p1263
(dp1264
g37
(dp1265
g8
S'_Library_Python_2_7_site-packages_django_contrib_messages_api.html'
p1266
sg10
S'/Library/Python/2.7/site-packages/django/contrib/messages/api'
p1267
sg12
g13
(g14
g15
NtRp1268
(dp1269
g18
I1
sg19
I0
sg20
I34
sg21
I0
sg22
I0
sg23
I20
sg24
I0
sbssg43
S'i\xb5\x8fk2\x89\xf2JF0\xfa\xd1z\x05\xaf\xe5'
p1270
ssS'_Library_Python_2_7_site-packages_django_utils_dateparse'
p1271
(dp1272
g6
(dp1273
g48
S'_Library_Python_2_7_site-packages_django_utils_dateparse.html'
p1274
sg50
S'/Library/Python/2.7/site-packages/django/utils/dateparse'
p1275
sg52
g13
(g14
g15
NtRp1276
(dp1277
g18
I1
sg19
I0
sg20
I37
sg21
I0
sg22
I0
sg23
I27
sg24
I0
sbssg25
S'\xf9]\xb0\xe3\xc6\x83\xc7\xfa\x95\x83<<\x8e0\xa2\x11'
p1278
ssS'_Library_Python_2_7_site-packages_south_management___init__'
p1279
(dp1280
g37
(dp1281
g8
S'_Library_Python_2_7_site-packages_south_management___init__.html'
p1282
sg10
S'/Library/Python/2.7/site-packages/south/management/__init__'
p1283
sg12
g13
(g14
g15
NtRp1284
(dp1285
g18
I1
sg19
I0
sg20
I0
sg21
I0
sg22
I0
sg23
I0
sg24
I0
sbssg43
S'\xb0\xc8pN\xaf>\xa0\xbaz\x144\xe0A9\xb8?'
p1286
ssS'_Library_Python_2_7_site-packages_django_views___init__'
p1287
(dp1288
g6
(dp1289
g48
S'_Library_Python_2_7_site-packages_django_views___init__.html'
p1290
sg50
S'/Library/Python/2.7/site-packages/django/views/__init__'
p1291
sg52
g13
(g14
g15
NtRp1292
(dp1293
g18
I1
sg19
I0
sg20
I0
sg21
I0
sg22
I0
sg23
I0
sg24
I0
sbssg25
S'\xb0\xc8pN\xaf>\xa0\xbaz\x144\xe0A9\xb8?'
p1294
ssS'_Library_Python_2_7_site-packages_django_utils_ipv6'
p1295
(dp1296
g6
(dp1297
g48
S'_Library_Python_2_7_site-packages_django_utils_ipv6.html'
p1298
sg50
S'/Library/Python/2.7/site-packages/django/utils/ipv6'
p1299
sg52
g13
(g14
g15
NtRp1300
(dp1301
g18
I1
sg19
I0
sg20
I107
sg21
I0
sg22
I0
sg23
I100
sg24
I0
sbssg25
S'J^YM\xe4\x01\xa3\xee\xad\x9chj"c\x15~'
p1302
ssS'_Library_Python_2_7_site-packages_django_contrib_sessions_backends_db'
p1303
(dp1304
g37
(dp1305
g8
S'_Library_Python_2_7_site-packages_django_contrib_sessions_backends_db.html'
p1306
sg10
S'/Library/Python/2.7/site-packages/django/contrib/sessions/backends/db'
p1307
sg12
g13
(g14
g15
NtRp1308
(dp1309
g18
I1
sg19
I0
sg20
I48
sg21
I0
sg22
I0
sg23
I35
sg24
I0
sbssg43
S'\xa8\xfcSLV\x1eW\x07\x8e\x07\xe0H\xb4\xfd\xb2\xaa'
p1310
ssS'_Library_Python_2_7_site-packages_django_core_handlers_wsgi'
p1311
(dp1312
g6
(dp1313
g48
S'_Library_Python_2_7_site-packages_django_core_handlers_wsgi.html'
p1314
sg50
S'/Library/Python/2.7/site-packages/django/core/handlers/wsgi'
p1315
sg52
g13
(g14
g15
NtRp1316
(dp1317
g18
I1
sg19
I0
sg20
I142
sg21
I0
sg22
I0
sg23
I103
sg24
I0
sbssg25
S'\xa83\xcc]\xf1\xe5\xea,\xf9m+\xb2l\x89&V'
p1318
ssS'_Library_Python_2_7_site-packages_django_template_loaders_app_directories'
p1319
(dp1320
g37
(dp1321
g8
S'_Library_Python_2_7_site-packages_django_template_loaders_app_directories.html'
p1322
sg10
S'/Library/Python/2.7/site-packages/django/template/loaders/app_directories'
p1323
sg12
g13
(g14
g15
NtRp1324
(dp1325
g18
I1
sg19
I0
sg20
I42
sg21
I0
sg22
I0
sg23
I20
sg24
I0
sbssg43
S'\x0b=hb\xe7\xba\x95^\r\x85\xe1ja]rL'
p1326
ssS'_Library_Python_2_7_site-packages_django_core_management_commands_test'
p1327
(dp1328
g6
(dp1329
g8
S'_Library_Python_2_7_site-packages_django_core_management_commands_test.html'
p1330
sg10
S'/Library/Python/2.7/site-packages/django/core/management/commands/test'
p1331
sg12
g13
(g14
g15
NtRp1332
(dp1333
g18
I1
sg19
I0
sg20
I37
sg21
I0
sg22
I0
sg23
I4
sg24
I0
sbssg25
S'^\xb8bT\xfa8\xb5\x8b\xeb\xbcGa\xf9\xf2v\xe3'
p1334
ssS'_Library_Python_2_7_site-packages_django_views_decorators___init__'
p1335
(dp1336
g37
(dp1337
g8
S'_Library_Python_2_7_site-packages_django_views_decorators___init__.html'
p1338
sg10
S'/Library/Python/2.7/site-packages/django/views/decorators/__init__'
p1339
sg12
g13
(g14
g15
NtRp1340
(dp1341
g18
I1
sg19
I0
sg20
I0
sg21
I0
sg22
I0
sg23
I0
sg24
I0
sbssg43
S'\xb0\xc8pN\xaf>\xa0\xbaz\x144\xe0A9\xb8?'
p1342
ssS'_Library_Python_2_7_site-packages_django_contrib_staticfiles_templatetags_staticfiles'
p1343
(dp1344
g37
(dp1345
g8
S'_Library_Python_2_7_site-packages_django_contrib_staticfiles_templatetags_staticfiles.html'
p1346
sg10
S'/Library/Python/2.7/site-packages/django/contrib/staticfiles/templatetags/staticfiles'
p1347
sg12
g13
(g14
g15
NtRp1348
(dp1349
g18
I1
sg19
I0
sg20
I5
sg21
I0
sg22
I0
sg23
I1
sg24
I0
sbssg43
S'\x83Er\x85\xa40\xc8\x00]b\x13\xde%\xb7\xc7\xc2'
p1350
ssS'_Library_Python_2_7_site-packages_django_utils_dateformat'
p1351
(dp1352
g6
(dp1353
g48
S'_Library_Python_2_7_site-packages_django_utils_dateformat.html'
p1354
sg50
S'/Library/Python/2.7/site-packages/django/utils/dateformat'
p1355
sg52
g13
(g14
g15
NtRp1356
(dp1357
g18
I1
sg19
I0
sg20
I179
sg21
I0
sg22
I0
sg23
I119
sg24
I0
sbssg25
S'\xdc\xcf>\x08@dl\xf9\xb7\x16\x8bmQ\x05\x80?'
p1358
ssS'_Library_Python_2_7_site-packages_django_contrib_staticfiles_utils'
p1359
(dp1360
g6
(dp1361
g48
S'_Library_Python_2_7_site-packages_django_contrib_staticfiles_utils.html'
p1362
sg50
S'/Library/Python/2.7/site-packages/django/contrib/staticfiles/utils'
p1363
sg52
g13
(g14
g15
NtRp1364
(dp1365
g18
I1
sg19
I0
sg20
I37
sg21
I0
sg22
I0
sg23
I30
sg24
I0
sbssg25
S'Q\x99\xe3\x98\xf4\xbc\tTg\xbc\xed\xbd\\\xf9Q\xdd'
p1366
ssS'_Library_Python_2_7_site-packages_django_contrib_staticfiles_storage'
p1367
(dp1368
g6
(dp1369
g48
S'_Library_Python_2_7_site-packages_django_contrib_staticfiles_storage.html'
p1370
sg50
S'/Library/Python/2.7/site-packages/django/contrib/staticfiles/storage'
p1371
sg52
g13
(g14
g15
NtRp1372
(dp1373
g18
I1
sg19
I0
sg20
I160
sg21
I0
sg22
I0
sg23
I123
sg24
I0
sbssg25
S'\xaa\r\x86\xab~\xed\x19m\xcd\x7f\xc7\xc9\xd2up\x99'
p1374
ssS'_Library_Python_2_7_site-packages_dj_database_url'
p1375
(dp1376
g6
(dp1377
g48
S'_Library_Python_2_7_site-packages_dj_database_url.html'
p1378
sg50
S'/Library/Python/2.7/site-packages/dj_database_url'
p1379
sg52
g13
(g14
g15
NtRp1380
(dp1381
g18
I1
sg19
I0
sg20
I28
sg21
I0
sg22
I0
sg23
I15
sg24
I0
sbssg25
S'\xdd\xd7\xce\xa7\xb2\x1b\xe3zmb\xa2(\x13x\xc9\xba'
p1382
ssS'carpool_settings'
p1383
(dp1384
g6
(dp1385
g8
S'carpool_settings.html'
p1386
sg10
S'carpool/settings'
p1387
sg12
g13
(g14
g15
NtRp1388
(dp1389
g18
I1
sg19
I0
sg20
I33
sg21
I0
sg22
I0
sg23
I0
sg24
I0
sbssg25
S'f\xe9\xd1OsQ\xecz4\x11\xc4\x89\x9e\xbd\x8f\xca'
p1390
ssS'_Library_Python_2_7_site-packages_django_db_models_sql_expressions'
p1391
(dp1392
g6
(dp1393
g48
S'_Library_Python_2_7_site-packages_django_db_models_sql_expressions.html'
p1394
sg50
S'/Library/Python/2.7/site-packages/django/db/models/sql/expressions'
p1395
sg52
g13
(g14
g15
NtRp1396
(dp1397
g18
I1
sg19
I0
sg20
I61
sg21
I0
sg22
I0
sg23
I48
sg24
I0
sbssg25
S'g\x06[\x98\xcbA\xf39\xba=F\xdf\xd4\x8dJ\x9f'
p1398
ssS'_Library_Python_2_7_site-packages_django_http___init__'
p1399
(dp1400
g6
(dp1401
g8
S'_Library_Python_2_7_site-packages_django_http___init__.html'
p1402
sg10
S'/Library/Python/2.7/site-packages/django/http/__init__'
p1403
sg12
g13
(g14
g15
NtRp1404
(dp1405
g18
I1
sg19
I0
sg20
I496
sg21
I0
sg22
I0
sg23
I316
sg24
I0
sbssg25
S'\xfe\x98v\xc5\xc6C\xa0:a\xcc\xd2oF\xbcy\x9a'
p1406
ssS'_Library_Python_2_7_site-packages_south_signals'
p1407
(dp1408
g37
(dp1409
g8
S'_Library_Python_2_7_site-packages_south_signals.html'
p1410
sg10
S'/Library/Python/2.7/site-packages/south/signals'
p1411
sg12
g13
(g14
g15
NtRp1412
(dp1413
g18
I1
sg19
I0
sg20
I5
sg21
I0
sg22
I0
sg23
I0
sg24
I0
sbssg43
S']\x7fp!\xd57kP\xa7oZjp4\x8eu'
p1414
ssS'_Library_Python_2_7_site-packages_south_db_postgresql_psycopg2'
p1415
(dp1416
g37
(dp1417
g8
S'_Library_Python_2_7_site-packages_south_db_postgresql_psycopg2.html'
p1418
sg10
S'/Library/Python/2.7/site-packages/south/db/postgresql_psycopg2'
p1419
sg12
g13
(g14
g15
NtRp1420
(dp1421
g18
I1
sg19
I0
sg20
I44
sg21
I0
sg22
I0
sg23
I31
sg24
I0
sbssg43
S'<e\x82\xd9\xff\xa2\xf6\xe9R\x98N9\x06\xecF\xe4'
p1422
ssS'_Library_Python_2_7_site-packages_django_core_validators'
p1423
(dp1424
g6
(dp1425
g8
S'_Library_Python_2_7_site-packages_django_core_validators.html'
p1426
sg10
S'/Library/Python/2.7/site-packages/django/core/validators'
p1427
sg12
g13
(g14
g15
NtRp1428
(dp1429
g18
I1
sg19
I0
sg20
I157
sg21
I0
sg22
I0
sg23
I86
sg24
I0
sbssg25
S'\xf3\xf8\xd1\x02\x01\xf0\x8a\xe3D\x8a?hk\x87s\x83'
p1430
ssS'_Library_Python_2_7_site-packages_django_test_html'
p1431
(dp1432
g6
(dp1433
g48
S'_Library_Python_2_7_site-packages_django_test_html.html'
p1434
sg50
S'/Library/Python/2.7/site-packages/django/test/html'
p1435
sg52
g13
(g14
g15
NtRp1436
(dp1437
g18
I1
sg19
I0
sg20
I160
sg21
I0
sg22
I0
sg23
I126
sg24
I0
sbssg25
S'\x94\x99a\xaf\xa6\x83\xd3\xab\xe4\xc2h`$\xab\xde\xbb'
p1438
ssS'_Library_Python_2_7_site-packages_django_forms_forms'
p1439
(dp1440
g6
(dp1441
g48
S'_Library_Python_2_7_site-packages_django_forms_forms.html'
p1442
sg50
S'/Library/Python/2.7/site-packages/django/forms/forms'
p1443
sg52
g13
(g14
g15
NtRp1444
(dp1445
g18
I1
sg19
I0
sg20
I280
sg21
I0
sg22
I0
sg23
I196
sg24
I0
sbssg25
S'\x140\xadHhu71\x9e$\xd4\x11\xc0e\tC'
p1446
ssS'_Library_Python_2_7_site-packages_django_core_management_base'
p1447
(dp1448
g6
(dp1449
g8
S'_Library_Python_2_7_site-packages_django_core_management_base.html'
p1450
sg10
S'/Library/Python/2.7/site-packages/django/core/management/base'
p1451
sg12
g13
(g14
g15
NtRp1452
(dp1453
g18
I1
sg19
I0
sg20
I133
sg21
I0
sg22
I0
sg23
I55
sg24
I0
sbssg25
S'f\xaa\x9c\xe0\xadk\x16V7\xc1\xa5\x99\x06S~\xb5'
p1454
ssS'_Library_Python_2_7_site-packages_django_contrib_messages_models'
p1455
(dp1456
g37
(dp1457
g8
S'_Library_Python_2_7_site-packages_django_contrib_messages_models.html'
p1458
sg10
S'/Library/Python/2.7/site-packages/django/contrib/messages/models'
p1459
sg12
g13
(g14
g15
NtRp1460
(dp1461
g18
I1
sg19
I0
sg20
I0
sg21
I0
sg22
I0
sg23
I0
sg24
I0
sbssg43
S'}\xf8)\x98N\x1e\xef\xd8Ky\x9f\x03d\x14L\xac'
p1462
ssS'_Library_Python_2_7_site-packages_django_core_files_storage'
p1463
(dp1464
g6
(dp1465
g48
S'_Library_Python_2_7_site-packages_django_core_files_storage.html'
p1466
sg50
S'/Library/Python/2.7/site-packages/django/core/files/storage'
p1467
sg52
g13
(g14
g15
NtRp1468
(dp1469
g18
I1
sg19
I0
sg20
I150
sg21
I0
sg22
I0
sg23
I104
sg24
I0
sbssg25
S'G\xe6\x06\xdc\xdb#\xe2EAMn~]\x1d\xe8\xb8'
p1470
ssS'_Library_Python_2_7_site-packages_django_db_models___init__'
p1471
(dp1472
g6
(dp1473
g48
S'_Library_Python_2_7_site-packages_django_db_models___init__.html'
p1474
sg50
S'/Library/Python/2.7/site-packages/django/db/models/__init__'
p1475
sg52
g13
(g14
g15
NtRp1476
(dp1477
g18
I1
sg19
I0
sg20
I23
sg21
I0
sg22
I0
sg23
I5
sg24
I0
sbssg25
S'B\xac\xe1\xdaQ\x957k\x0e\xba`\x9f\xd0\xa2\xd87'
p1478
ssS'_Library_Python_2_7_site-packages_django_forms_fields'
p1479
(dp1480
g6
(dp1481
g8
S'_Library_Python_2_7_site-packages_django_forms_fields.html'
p1482
sg10
S'/Library/Python/2.7/site-packages/django/forms/fields'
p1483
sg12
g13
(g14
g15
NtRp1484
(dp1485
g18
I1
sg19
I0
sg20
I585
sg21
I0
sg22
I0
sg23
I381
sg24
I0
sbssg25
S'^\xd0-\x02o\xb8\x1d\xa2n;<\x87\x1c"V\xb5'
p1486
ssS'_Library_Python_2_7_site-packages_django_core_serializers_base'
p1487
(dp1488
g37
(dp1489
g8
S'_Library_Python_2_7_site-packages_django_core_serializers_base.html'
p1490
sg10
S'/Library/Python/2.7/site-packages/django/core/serializers/base'
p1491
sg12
g13
(g14
g15
NtRp1492
(dp1493
g18
I1
sg19
I0
sg20
I74
sg21
I0
sg22
I0
sg23
I46
sg24
I0
sbssg43
S'\xfca\xe3x\xd1\xc5\x90\x8b\xcd\x06T\x1frS\xb1P'
p1494
ssS'_Library_Python_2_7_site-packages_django_utils__os'
p1495
(dp1496
g6
(dp1497
g48
S'_Library_Python_2_7_site-packages_django_utils__os.html'
p1498
sg50
S'/Library/Python/2.7/site-packages/django/utils/_os'
p1499
sg52
g13
(g14
g15
NtRp1500
(dp1501
g18
I1
sg19
I0
sg20
I32
sg21
I0
sg22
I0
sg23
I19
sg24
I0
sbssg25
S'\x00\x87*\xe1Z\xd9w\xa9\xefK\xab/\xb8P4\xe7'
p1502
ssS'_Library_Python_2_7_site-packages_django_utils_html'
p1503
(dp1504
g6
(dp1505
g48
S'_Library_Python_2_7_site-packages_django_utils_html.html'
p1506
sg50
S'/Library/Python/2.7/site-packages/django/utils/html'
p1507
sg52
g13
(g14
g15
NtRp1508
(dp1509
g18
I1
sg19
I0
sg20
I133
sg21
I0
sg22
I0
sg23
I89
sg24
I0
sbssg25
S'\x16y \nh\x14<P\x87\x1b0\x11\xeeh]\xec'
p1510
ssS'_Library_Python_2_7_site-packages_django_utils_crypto'
p1511
(dp1512
g6
(dp1513
g48
S'_Library_Python_2_7_site-packages_django_utils_crypto.html'
p1514
sg50
S'/Library/Python/2.7/site-packages/django/utils/crypto'
p1515
sg52
g13
(g14
g15
NtRp1516
(dp1517
g18
I1
sg19
I0
sg20
I68
sg21
I0
sg22
I0
sg23
I48
sg24
I0
sbssg25
S'\xa3\xc5}l\x04ww\x01\xe1\xf0$\xbc\x1dW\xe7\x06'
p1518
ssS'_Library_Python_2_7_site-packages_django_core_files_images'
p1519
(dp1520
g6
(dp1521
g48
S'_Library_Python_2_7_site-packages_django_core_files_images.html'
p1522
sg50
S'/Library/Python/2.7/site-packages/django/core/files/images'
p1523
sg52
g13
(g14
g15
NtRp1524
(dp1525
g18
I1
sg19
I0
sg20
I40
sg21
I0
sg22
I0
sg23
I32
sg24
I0
sbssg25
S'\xcf\x19\xca\xed\xd0\x9f\xdd\x00\xc0\xb9\xceq\xff\xa6JJ'
p1526
ssS'_Library_Python_2_7_site-packages_django_core_files___init__'
p1527
(dp1528
g6
(dp1529
g48
S'_Library_Python_2_7_site-packages_django_core_files___init__.html'
p1530
sg50
S'/Library/Python/2.7/site-packages/django/core/files/__init__'
p1531
sg52
g13
(g14
g15
NtRp1532
(dp1533
g18
I1
sg19
I0
sg20
I1
sg21
I0
sg22
I0
sg23
I0
sg24
I0
sbssg25
S"\xa1\xbfiA'\x85B\x1e\xd8\xe0\x91\xe3\xf7\x86\x81\xb2"
p1534
ssS'_Library_Python_2_7_site-packages_django_db_models_base'
p1535
(dp1536
g6
(dp1537
g8
S'_Library_Python_2_7_site-packages_django_db_models_base.html'
p1538
sg10
S'/Library/Python/2.7/site-packages/django/db/models/base'
p1539
sg12
g13
(g14
g15
NtRp1540
(dp1541
g18
I1
sg19
I0
sg20
I501
sg21
I0
sg22
I0
sg23
I292
sg24
I0
sbssg25
S')\x1b8}\x0f\xcbg\n3Y\x12jb\x9a\xb2\xb0'
p1542
ssS'_Library_Python_2_7_site-packages_validate_email'
p1543
(dp1544
g37
(dp1545
g8
S'_Library_Python_2_7_site-packages_validate_email.html'
p1546
sg10
S'/Library/Python/2.7/site-packages/validate_email'
p1547
sg12
g13
(g14
g15
NtRp1548
(dp1549
g18
I1
sg19
I0
sg20
I59
sg21
I0
sg22
I0
sg23
I20
sg24
I0
sbssg43
S"A\xf01\x95PU\x06O\xe7\x85\x05\xbe'\x15h\x87"
p1550
ssS'_Library_Python_2_7_site-packages_django_conf_locale_en_formats'
p1551
(dp1552
g37
(dp1553
g8
S'_Library_Python_2_7_site-packages_django_conf_locale_en_formats.html'
p1554
sg10
S'/Library/Python/2.7/site-packages/django/conf/locale/en/formats'
p1555
sg12
g13
(g14
g15
NtRp1556
(dp1557
g18
I1
sg19
I0
sg20
I14
sg21
I0
sg22
I0
sg23
I0
sg24
I0
sbssg43
S"\x93\xc2\xcc\x9d\xd2\x99\xd1G=\xce'\xb0K\x93#R"
p1558
ssS'_Library_Python_2_7_site-packages_django_template_defaultfilters'
p1559
(dp1560
g6
(dp1561
g48
S'_Library_Python_2_7_site-packages_django_template_defaultfilters.html'
p1562
sg50
S'/Library/Python/2.7/site-packages/django/template/defaultfilters'
p1563
sg52
g13
(g14
g15
NtRp1564
(dp1565
g18
I1
sg19
I0
sg20
I457
sg21
I0
sg22
I0
sg23
I326
sg24
I0
sbssg25
S'\xb8\xee\x1e9\xb8a\x93\xb8\xec\xec\xd2\x124A\xc8&'
p1566
ssS'_Library_Python_2_7_site-packages_django_test___init__'
p1567
(dp1568
g6
(dp1569
g48
S'_Library_Python_2_7_site-packages_django_test___init__.html'
p1570
sg50
S'/Library/Python/2.7/site-packages/django/test/__init__'
p1571
sg52
g13
(g14
g15
NtRp1572
(dp1573
g18
I1
sg19
I0
sg20
I3
sg21
I0
sg22
I0
sg23
I0
sg24
I0
sbssg25
S'~\xbeB^\xffy\x92\x8f\x9e\xd7\xdc\xd8\xa1\xe5\xe0\x03'
p1574
ssS'_Library_Python_2_7_site-packages_django_contrib_staticfiles_management___init__'
p1575
(dp1576
g37
(dp1577
g8
S'_Library_Python_2_7_site-packages_django_contrib_staticfiles_management___init__.html'
p1578
sg10
S'/Library/Python/2.7/site-packages/django/contrib/staticfiles/management/__init__'
p1579
sg12
g13
(g14
g15
NtRp1580
(dp1581
g18
I1
sg19
I0
sg20
I0
sg21
I0
sg22
I0
sg23
I0
sg24
I0
sbssg43
S'\xb0\xc8pN\xaf>\xa0\xbaz\x144\xe0A9\xb8?'
p1582
ssS'_Library_Python_2_7_site-packages_south_hacks_django_1_0'
p1583
(dp1584
g37
(dp1585
g8
S'_Library_Python_2_7_site-packages_south_hacks_django_1_0.html'
p1586
sg10
S'/Library/Python/2.7/site-packages/south/hacks/django_1_0'
p1587
sg12
g13
(g14
g15
NtRp1588
(dp1589
g18
I1
sg19
I0
sg20
I48
sg21
I0
sg22
I0
sg23
I20
sg24
I0
sbssg43
S'\xcf\xe2\xeeD\x8d-\xcd\x0e,\x91\xad\x8b1)\xfd\x9a'
p1590
ssS'_Library_Python_2_7_site-packages_django_test_signals'
p1591
(dp1592
g6
(dp1593
g48
S'_Library_Python_2_7_site-packages_django_test_signals.html'
p1594
sg50
S'/Library/Python/2.7/site-packages/django/test/signals'
p1595
sg52
g13
(g14
g15
NtRp1596
(dp1597
g18
I1
sg19
I0
sg20
I17
sg21
I0
sg22
I0
sg23
I10
sg24
I0
sbssg25
S'6\xfb\xb9q?8\xcb\x90\x15G}\x9b\x9b\x8d\x82\x9d'
p1598
ssS'_Library_Python_2_7_site-packages_django_contrib_auth_signals'
p1599
(dp1600
g6
(dp1601
g48
S'_Library_Python_2_7_site-packages_django_contrib_auth_signals.html'
p1602
sg50
S'/Library/Python/2.7/site-packages/django/contrib/auth/signals'
p1603
sg52
g13
(g14
g15
NtRp1604
(dp1605
g18
I1
sg19
I0
sg20
I3
sg21
I0
sg22
I0
sg23
I0
sg24
I0
sbssg25
S'\x13\x17\x85\x98\x81\r`\x1b~4\x04;\x16\x9b%L'
p1606
ssS'_Library_Python_2_7_site-packages_django_core_wsgi'
p1607
(dp1608
g6
(dp1609
g48
S'_Library_Python_2_7_site-packages_django_core_wsgi.html'
p1610
sg50
S'/Library/Python/2.7/site-packages/django/core/wsgi'
p1611
sg52
g13
(g14
g15
NtRp1612
(dp1613
g18
I1
sg19
I0
sg20
I3
sg21
I0
sg22
I0
sg23
I1
sg24
I0
sbssg25
S' \x0e\x1b\xd1D\xd0\x13<c\x84?v\xdf\xd1\xf8\x84'
p1614
ssS'_Library_Python_2_7_site-packages_django_test_testcases'
p1615
(dp1616
g6
(dp1617
g48
S'_Library_Python_2_7_site-packages_django_test_testcases.html'
p1618
sg50
S'/Library/Python/2.7/site-packages/django/test/testcases'
p1619
sg52
g13
(g14
g15
NtRp1620
(dp1621
g18
I1
sg19
I0
sg20
I583
sg21
I0
sg22
I0
sg23
I456
sg24
I0
sbssg25
S'\xe0\xb8]0>\xf2\x13@\xaf\xc3\xf4.vl[\xd3'
p1622
ssS'_Library_Python_2_7_site-packages_django_contrib_staticfiles___init__'
p1623
(dp1624
g6
(dp1625
g48
S'_Library_Python_2_7_site-packages_django_contrib_staticfiles___init__.html'
p1626
sg50
S'/Library/Python/2.7/site-packages/django/contrib/staticfiles/__init__'
p1627
sg52
g13
(g14
g15
NtRp1628
(dp1629
g18
I1
sg19
I0
sg20
I0
sg21
I0
sg22
I0
sg23
I0
sg24
I0
sbssg25
S'\xb0\xc8pN\xaf>\xa0\xbaz\x144\xe0A9\xb8?'
p1630
ssS'_Library_Python_2_7_site-packages_django_contrib_contenttypes_views'
p1631
(dp1632
g37
(dp1633
g8
S'_Library_Python_2_7_site-packages_django_contrib_contenttypes_views.html'
p1634
sg10
S'/Library/Python/2.7/site-packages/django/contrib/contenttypes/views'
p1635
sg12
g13
(g14
g15
NtRp1636
(dp1637
g18
I1
sg19
I0
sg20
I49
sg21
I0
sg22
I0
sg23
I43
sg24
I0
sbssg43
S'\x9a\x02]\x07#\xb5\x9e\x0c\xa1\xd2\x93\x89^\xeeF\xa7'
p1638
ssS'_Library_Python_2_7_site-packages_django_utils_regex_helper'
p1639
(dp1640
g6
(dp1641
g48
S'_Library_Python_2_7_site-packages_django_utils_regex_helper.html'
p1642
sg50
S'/Library/Python/2.7/site-packages/django/utils/regex_helper'
p1643
sg52
g13
(g14
g15
NtRp1644
(dp1645
g18
I1
sg19
I0
sg20
I185
sg21
I0
sg22
I0
sg23
I175
sg24
I0
sbssg25
S'2\x17q\n3`<\x0f\xce\x8az\xb4\xd1\xc7s7'
p1646
ssS'_Library_Python_2_7_site-packages_south_orm'
p1647
(dp1648
g37
(dp1649
g8
S'_Library_Python_2_7_site-packages_south_orm.html'
p1650
sg10
S'/Library/Python/2.7/site-packages/south/orm'
p1651
sg12
g13
(g14
g15
NtRp1652
(dp1653
g18
I1
sg19
I0
sg20
I210
sg21
I0
sg22
I0
sg23
I179
sg24
I0
sbssg43
S"^\x14Q\xcf\x19\x196'\xdf\x8a\xc2VI\xc2n:"
p1654
ssS'_Library_Python_2_7_site-packages_django_core_mail_utils'
p1655
(dp1656
g6
(dp1657
g48
S'_Library_Python_2_7_site-packages_django_core_mail_utils.html'
p1658
sg50
S'/Library/Python/2.7/site-packages/django/core/mail/utils'
p1659
sg52
g13
(g14
g15
NtRp1660
(dp1661
g18
I1
sg19
I0
sg20
I9
sg21
I0
sg22
I0
sg23
I4
sg24
I0
sbssg25
S'q\x8f\x86\xa8\x10\xa1\x04\x98^\x0e\xe8\x93\xb7X\xaan'
p1662
ssS'_Library_Python_2_7_site-packages_django_utils_importlib'
p1663
(dp1664
g6
(dp1665
g48
S'_Library_Python_2_7_site-packages_django_utils_importlib.html'
p1666
sg50
S'/Library/Python/2.7/site-packages/django/utils/importlib'
p1667
sg52
g13
(g14
g15
NtRp1668
(dp1669
g18
I1
sg19
I0
sg20
I23
sg21
I0
sg22
I0
sg23
I6
sg24
I0
sbssg25
S'\xba\x10A\xccg\xac\xd0\xe2\xb9QBQ3\x8d\xc0\x01'
p1670
ssS'_Library_Python_2_7_site-packages_django_middleware___init__'
p1671
(dp1672
g37
(dp1673
g8
S'_Library_Python_2_7_site-packages_django_middleware___init__.html'
p1674
sg10
S'/Library/Python/2.7/site-packages/django/middleware/__init__'
p1675
sg12
g13
(g14
g15
NtRp1676
(dp1677
g18
I1
sg19
I0
sg20
I0
sg21
I0
sg22
I0
sg23
I0
sg24
I0
sbssg43
S'\xb0\xc8pN\xaf>\xa0\xbaz\x144\xe0A9\xb8?'
p1678
ssS'_Library_Python_2_7_site-packages_django_utils_unittest_util'
p1679
(dp1680
g6
(dp1681
g48
S'_Library_Python_2_7_site-packages_django_utils_unittest_util.html'
p1682
sg50
S'/Library/Python/2.7/site-packages/django/utils/unittest/util'
p1683
sg52
g13
(g14
g15
NtRp1684
(dp1685
g18
I1
sg19
I0
sg20
I74
sg21
I0
sg22
I0
sg23
I67
sg24
I0
sbssg25
S'\xb2x_,\x84YY\x16\x91\xcb5(\xe8\x1c<\t'
p1686
ssS'_Library_Python_2_7_site-packages_django_conf_locale_en___init__'
p1687
(dp1688
g37
(dp1689
g8
S'_Library_Python_2_7_site-packages_django_conf_locale_en___init__.html'
p1690
sg10
S'/Library/Python/2.7/site-packages/django/conf/locale/en/__init__'
p1691
sg12
g13
(g14
g15
NtRp1692
(dp1693
g18
I1
sg19
I0
sg20
I0
sg21
I0
sg22
I0
sg23
I0
sg24
I0
sbssg43
S'\xb0\xc8pN\xaf>\xa0\xbaz\x144\xe0A9\xb8?'
p1694
ssS'_Library_Python_2_7_site-packages_django_contrib_sessions_models'
p1695
(dp1696
g37
(dp1697
g8
S'_Library_Python_2_7_site-packages_django_contrib_sessions_models.html'
p1698
sg10
S'/Library/Python/2.7/site-packages/django/contrib/sessions/models'
p1699
sg12
g13
(g14
g15
NtRp1700
(dp1701
g18
I1
sg19
I0
sg20
I23
sg21
I0
sg22
I0
sg23
I7
sg24
I0
sbssg43
S'< \xef\x96\xa0\x8c\xd8\xe9~\n\xbb7\xe7U\xf3['
p1702
ssS'_Library_Python_2_7_site-packages_django_db_backends_postgresql_psycopg2_base'
p1703
(dp1704
g6
(dp1705
g8
S'_Library_Python_2_7_site-packages_django_db_backends_postgresql_psycopg2_base.html'
p1706
sg10
S'/Library/Python/2.7/site-packages/django/db/backends/postgresql_psycopg2/base'
p1707
sg12
g13
(g14
g15
NtRp1708
(dp1709
g18
I1
sg19
I0
sg20
I154
sg21
I0
sg22
I0
sg23
I38
sg24
I0
sbssg25
S'\xc3M\xf871\x9f$\xe8\x91\x10?W\xe7\xf3\xc4U'
p1710
ssS'_Library_Python_2_7_site-packages_django_contrib_staticfiles_views'
p1711
(dp1712
g6
(dp1713
g48
S'_Library_Python_2_7_site-packages_django_contrib_staticfiles_views.html'
p1714
sg50
S'/Library/Python/2.7/site-packages/django/contrib/staticfiles/views'
p1715
sg52
g13
(g14
g15
NtRp1716
(dp1717
g18
I1
sg19
I0
sg20
I19
sg21
I0
sg22
I0
sg23
I10
sg24
I0
sbssg25
S'Vs\xc8u\t8L5\x1d\x00\x8b\x0c&\xbd  '
p1718
ssS'_Library_Python_2_7_site-packages_django_db_backends_postgresql_psycopg2_introspection'
p1719
(dp1720
g6
(dp1721
g8
S'_Library_Python_2_7_site-packages_django_db_backends_postgresql_psycopg2_introspection.html'
p1722
sg10
S'/Library/Python/2.7/site-packages/django/db/backends/postgresql_psycopg2/introspection'
p1723
sg12
g13
(g14
g15
NtRp1724
(dp1725
g18
I1
sg19
I0
sg20
I25
sg21
I0
sg22
I0
sg23
I16
sg24
I0
sbssg25
S'\x92\xd68\x82%\xc0\xc8\xbc\xe9\xa5\xfb\x07\xf9\t5\x87'
p1726
ssS'_Library_Python_2_7_site-packages_django_template_defaulttags'
p1727
(dp1728
g6
(dp1729
g48
S'_Library_Python_2_7_site-packages_django_template_defaulttags.html'
p1730
sg50
S'/Library/Python/2.7/site-packages/django/template/defaulttags'
p1731
sg52
g13
(g14
g15
NtRp1732
(dp1733
g18
I1
sg19
I0
sg20
I613
sg21
I0
sg22
I0
sg23
I502
sg24
I0
sbssg25
S'g\xf1\x83\xf1&T\x08e2f\x06\xb2*A@\x87'
p1734
ssS'_Library_Python_2_7_site-packages_django_contrib_contenttypes_management'
p1735
(dp1736
g37
(dp1737
g8
S'_Library_Python_2_7_site-packages_django_contrib_contenttypes_management.html'
p1738
sg10
S'/Library/Python/2.7/site-packages/django/contrib/contenttypes/management'
p1739
sg12
g13
(g14
g15
NtRp1740
(dp1741
g18
I1
sg19
I0
sg20
I34
sg21
I0
sg22
I0
sg23
I16
sg24
I0
sbssg43
S'\xd2\xa7CS\xcd\x03C\xa7\x93\x97MR0>\x84e'
p1742
ssS'_Library_Python_2_7_site-packages_django_contrib_messages_storage___init__'
p1743
(dp1744
g37
(dp1745
g8
S'_Library_Python_2_7_site-packages_django_contrib_messages_storage___init__.html'
p1746
sg10
S'/Library/Python/2.7/site-packages/django/contrib/messages/storage/__init__'
p1747
sg12
g13
(g14
g15
NtRp1748
(dp1749
g18
I1
sg19
I0
sg20
I18
sg21
I0
sg22
I0
sg23
I13
sg24
I0
sbssg43
S'\xa0\t\xb5\xe9\x01S\x15\\f\x1d\xb6\xd2t\x937\x8a'
p1750
ssS'_Library_Python_2_7_site-packages_django_contrib_admin_models'
p1751
(dp1752
g37
(dp1753
g8
S'_Library_Python_2_7_site-packages_django_contrib_admin_models.html'
p1754
sg10
S'/Library/Python/2.7/site-packages/django/contrib/admin/models'
p1755
sg12
g13
(g14
g15
NtRp1756
(dp1757
g18
I1
sg19
I0
sg20
I50
sg21
I0
sg22
I0
sg23
I17
sg24
I0
sbssg43
S'\x01\x0byuK}\x1eM\xc7\xc6Yf\x8f=\xd3\xbf'
p1758
ssS'_Library_Python_2_7_site-packages_django_contrib_staticfiles_templatetags___init__'
p1759
(dp1760
g37
(dp1761
g8
S'_Library_Python_2_7_site-packages_django_contrib_staticfiles_templatetags___init__.html'
p1762
sg10
S'/Library/Python/2.7/site-packages/django/contrib/staticfiles/templatetags/__init__'
p1763
sg12
g13
(g14
g15
NtRp1764
(dp1765
g18
I1
sg19
I0
sg20
I0
sg21
I0
sg22
I0
sg23
I0
sg24
I0
sbssg43
S'\xb0\xc8pN\xaf>\xa0\xbaz\x144\xe0A9\xb8?'
p1766
ssS'_Library_Python_2_7_site-packages_django_contrib_admin_util'
p1767
(dp1768
g37
(dp1769
g8
S'_Library_Python_2_7_site-packages_django_contrib_admin_util.html'
p1770
sg10
S'/Library/Python/2.7/site-packages/django/contrib/admin/util'
p1771
sg12
g13
(g14
g15
NtRp1772
(dp1773
g18
I1
sg19
I0
sg20
I256
sg21
I0
sg22
I0
sg23
I217
sg24
I0
sbssg43
S'U\x0b\xcc\xa7dQ\x96k\x9bc\x9e\x19\xc7\x9f?b'
p1774
ssS'_Library_Python_2_7_site-packages_psycopg2_tz'
p1775
(dp1776
g6
(dp1777
g48
S'_Library_Python_2_7_site-packages_psycopg2_tz.html'
p1778
sg50
S'/Library/Python/2.7/site-packages/psycopg2/tz'
p1779
sg52
g13
(g14
g15
NtRp1780
(dp1781
g18
I1
sg19
I0
sg20
I61
sg21
I0
sg22
I0
sg23
I37
sg24
I0
sbssg25
S'\x8a\x91&\x8c\x99\xa5\xaa|k3l\xbe(\xb4\xfe8'
p1782
ssS'_Library_Python_2_7_site-packages_django_contrib_staticfiles_handlers'
p1783
(dp1784
g6
(dp1785
g48
S'_Library_Python_2_7_site-packages_django_contrib_staticfiles_handlers.html'
p1786
sg50
S'/Library/Python/2.7/site-packages/django/contrib/staticfiles/handlers'
p1787
sg52
g13
(g14
g15
NtRp1788
(dp1789
g18
I1
sg19
I0
sg20
I40
sg21
I0
sg22
I0
sg23
I25
sg24
I0
sbssg25
S'\xc9\xf1t\x83\xcf\x01k\x14\x7f1\xa8\xd7,\xaf\xb3}'
p1790
ssS'_Library_Python_2_7_site-packages_django_db_backends_postgresql_psycopg2_creation'
p1791
(dp1792
g6
(dp1793
g8
S'_Library_Python_2_7_site-packages_django_db_backends_postgresql_psycopg2_creation.html'
p1794
sg10
S'/Library/Python/2.7/site-packages/django/db/backends/postgresql_psycopg2/creation'
p1795
sg12
g13
(g14
g15
NtRp1796
(dp1797
g18
I1
sg19
I0
sg20
I35
sg21
I0
sg22
I0
sg23
I7
sg24
I0
sbssg25
S'\x9c\xa8\xd2\x1a\x05\xd1\xb7\x80\xeeS\x12\xaa\x1dnI\xee'
p1798
ssS'_Library_Python_2_7_site-packages_django_db_backends_creation'
p1799
(dp1800
g6
(dp1801
g8
S'_Library_Python_2_7_site-packages_django_db_backends_creation.html'
p1802
sg10
S'/Library/Python/2.7/site-packages/django/db/backends/creation'
p1803
sg12
g13
(g14
g15
NtRp1804
(dp1805
g18
I1
sg19
I0
sg20
I212
sg21
I0
sg22
I0
sg23
I72
sg24
I0
sbssg25
S'\xa8\xb3\x8c\xed\x02\x861r\x80\xb9|\xee\x89\xe6\xe1\xbc'
p1806
ssS'_Library_Python_2_7_site-packages_django_core_mail_message'
p1807
(dp1808
g6
(dp1809
g48
S'_Library_Python_2_7_site-packages_django_core_mail_message.html'
p1810
sg50
S'/Library/Python/2.7/site-packages/django/core/mail/message'
p1811
sg52
g13
(g14
g15
NtRp1812
(dp1813
g18
I1
sg19
I0
sg20
I210
sg21
I0
sg22
I0
sg23
I157
sg24
I0
sbssg25
S'\x05\xd4\xb5\xcf/\xd7O 6\xd2\x14\xcfYa\x0eS'
p1814
ssS'_Library_Python_2_7_site-packages_south_db___init__'
p1815
(dp1816
g37
(dp1817
g8
S'_Library_Python_2_7_site-packages_south_db___init__.html'
p1818
sg10
S'/Library/Python/2.7/site-packages/south/db/__init__'
p1819
sg12
g13
(g14
g15
NtRp1820
(dp1821
g18
I1
sg19
I0
sg20
I24
sg21
I0
sg22
I0
sg23
I9
sg24
I0
sbssg43
S'\xff\x0e\xb2\x8d\xb9x\xab1H}\\\x8e\x8f\xe5",'
p1822
ssS'_Library_Python_2_7_site-packages_django_core_cache_backends___init__'
p1823
(dp1824
g6
(dp1825
g48
S'_Library_Python_2_7_site-packages_django_core_cache_backends___init__.html'
p1826
sg50
S'/Library/Python/2.7/site-packages/django/core/cache/backends/__init__'
p1827
sg52
g13
(g14
g15
NtRp1828
(dp1829
g18
I1
sg19
I0
sg20
I0
sg21
I0
sg22
I0
sg23
I0
sg24
I0
sbssg25
S'\xb0\xc8pN\xaf>\xa0\xbaz\x144\xe0A9\xb8?'
p1830
ssS'_Library_Python_2_7_site-packages_south_exceptions'
p1831
(dp1832
g37
(dp1833
g8
S'_Library_Python_2_7_site-packages_south_exceptions.html'
p1834
sg10
S'/Library/Python/2.7/site-packages/south/exceptions'
p1835
sg12
g13
(g14
g15
NtRp1836
(dp1837
g18
I1
sg19
I0
sg20
I92
sg21
I0
sg22
I0
sg23
I42
sg24
I0
sbssg43
S"\xf6\xb5\xe7\xed\x83\xa5E\xca\x95\x13\x82 w'\xe1\x99"
p1838
ssS'_Library_Python_2_7_site-packages_south_migration_utils'
p1839
(dp1840
g37
(dp1841
g8
S'_Library_Python_2_7_site-packages_south_migration_utils.html'
p1842
sg10
S'/Library/Python/2.7/site-packages/south/migration/utils'
p1843
sg12
g13
(g14
g15
NtRp1844
(dp1845
g18
I1
sg19
I0
sg20
I55
sg21
I0
sg22
I0
sg23
I33
sg24
I0
sbssg43
S'\xad\xb9E\xb6\tu\xaa}\x8byA\xb9\xc60\xde8'
p1846
ssS'_Library_Python_2_7_site-packages_django_utils_translation_trans_real'
p1847
(dp1848
g6
(dp1849
g8
S'_Library_Python_2_7_site-packages_django_utils_translation_trans_real.html'
p1850
sg10
S'/Library/Python/2.7/site-packages/django/utils/translation/trans_real'
p1851
sg12
g13
(g14
g15
NtRp1852
(dp1853
g18
I1
sg19
I0
sg20
I365
sg21
I0
sg22
I0
sg23
I226
sg24
I0
sbssg25
S"\x14:\xab+qr&'\xc6\xd3\x0b\xac\x8b1^!"
p1854
ssS'_Library_Python_2_7_site-packages_django_core_exceptions'
p1855
(dp1856
g6
(dp1857
g48
S'_Library_Python_2_7_site-packages_django_core_exceptions.html'
p1858
sg50
S'/Library/Python/2.7/site-packages/django/core/exceptions'
p1859
sg52
g13
(g14
g15
NtRp1860
(dp1861
g18
I1
sg19
I0
sg20
I48
sg21
I0
sg22
I0
sg23
I24
sg24
I0
sbssg25
S'a\xe3\xad\nKH\xdek\xda\xd5\x03\x9fP\x15\xc6\xc6'
p1862
ssS'_Library_Python_2_7_site-packages_django_core_files_uploadedfile'
p1863
(dp1864
g6
(dp1865
g48
S'_Library_Python_2_7_site-packages_django_core_files_uploadedfile.html'
p1866
sg50
S'/Library/Python/2.7/site-packages/django/core/files/uploadedfile'
p1867
sg52
g13
(g14
g15
NtRp1868
(dp1869
g18
I1
sg19
I0
sg20
I63
sg21
I0
sg22
I0
sg23
I34
sg24
I0
sbssg25
S'yv\x0b\xbdw\xa4\xc6\xdf\xafC\xedY\xae\xd2\xc2\xda'
p1870
ssS'_Library_Python_2_7_site-packages_south_utils___init__'
p1871
(dp1872
g37
(dp1873
g8
S'_Library_Python_2_7_site-packages_south_utils___init__.html'
p1874
sg10
S'/Library/Python/2.7/site-packages/south/utils/__init__'
p1875
sg12
g13
(g14
g15
NtRp1876
(dp1877
g18
I1
sg19
I0
sg20
I38
sg21
I0
sg22
I0
sg23
I12
sg24
I0
sbssg43
S'[\\A\x96\xa4!\x1c\x83Uf\xdd\x08H\x10g\xca'
p1878
ssS'_Library_Python_2_7_site-packages_django_core_files_locks'
p1879
(dp1880
g6
(dp1881
g48
S'_Library_Python_2_7_site-packages_django_core_files_locks.html'
p1882
sg50
S'/Library/Python/2.7/site-packages/django/core/files/locks'
p1883
sg52
g13
(g14
g15
NtRp1884
(dp1885
g18
I1
sg19
I0
sg20
I40
sg21
I0
sg22
I0
sg23
I23
sg24
I0
sbssg25
S'\x18\xad\x19x\x91p\n\x1a\x14\xf5\x00\xd2\xaf\xb8\xfa\xc5'
p1886
ssS'carpoolapp_unitTest'
p1887
(dp1888
g37
(dp1889
g8
S'carpoolapp_unitTest.html'
p1890
sg10
S'carpoolapp/unitTest'
p1891
sg12
g13
(g14
g15
NtRp1892
(dp1893
g18
I1
sg19
I0
sg20
I319
sg21
I0
sg22
I0
sg23
I0
sg24
I0
sbssg43
S'\xef\x1df\x01\xa5\x84\xa4O?\xb4\xff\x11\xb1\xf3\x95\xaf'
p1894
ssS'carpoolapp_tests'
p1895
(dp1896
g37
(dp1897
g8
S'carpoolapp_tests.html'
p1898
sg10
S'carpoolapp/tests'
p1899
sg12
g13
(g14
g15
NtRp1900
(dp1901
g18
I1
sg19
I0
sg20
I218
sg21
I0
sg22
I0
sg23
I32
sg24
I0
sbssg43
S'\xaa\x80\x85\xa8A\x93\x16\xa4\xca\x1b\xdb\xc9D\xa1\nS'
p1902
ssS'_Library_Python_2_7_site-packages_django_core_serializers_json'
p1903
(dp1904
g37
(dp1905
g8
S'_Library_Python_2_7_site-packages_django_core_serializers_json.html'
p1906
sg10
S'/Library/Python/2.7/site-packages/django/core/serializers/json'
p1907
sg12
g13
(g14
g15
NtRp1908
(dp1909
g18
I1
sg19
I0
sg20
I50
sg21
I0
sg22
I0
sg23
I34
sg24
I0
sbssg43
S'.\x1c\xce;4\xae?\x05\xb3A|\xa2g\xb2B\x17'
p1910
ssS'_Library_Python_2_7_site-packages_django_template_response'
p1911
(dp1912
g37
(dp1913
g8
S'_Library_Python_2_7_site-packages_django_template_response.html'
p1914
sg10
S'/Library/Python/2.7/site-packages/django/template/response'
p1915
sg12
g13
(g14
g15
NtRp1916
(dp1917
g18
I1
sg19
I0
sg20
I72
sg21
I0
sg22
I0
sg23
I50
sg24
I0
sbssg43
S'\xb1\xac\xaba\xdcM\xb4\x07\xb1\xe5\xcb\xf3\x13&v\xf8'
p1918
ssS'_Library_Python_2_7_site-packages_django_db_models_signals'
p1919
(dp1920
g6
(dp1921
g48
S'_Library_Python_2_7_site-packages_django_db_models_signals.html'
p1922
sg50
S'/Library/Python/2.7/site-packages/django/db/models/signals'
p1923
sg52
g13
(g14
g15
NtRp1924
(dp1925
g18
I1
sg19
I0
sg20
I10
sg21
I0
sg22
I0
sg23
I0
sg24
I0
sbssg25
S'\xe2\x06\xfb\xdd\xac\xd4\xb2\xf8\\\x98T_\xb1W-\x19'
p1926
ssS'_Library_Python_2_7_site-packages_django_contrib_auth_management___init__'
p1927
(dp1928
g37
(dp1929
g8
S'_Library_Python_2_7_site-packages_django_contrib_auth_management___init__.html'
p1930
sg10
S'/Library/Python/2.7/site-packages/django/contrib/auth/management/__init__'
p1931
sg12
g13
(g14
g15
NtRp1932
(dp1933
g18
I1
sg19
I0
sg20
I64
sg21
I0
sg22
I0
sg23
I30
sg24
I0
sbssg43
S'\xe0\xdb"?K/\x90\x8cms\xbfq\xf5\x04=\xc4'
p1934
ssS'_Library_Python_2_7_site-packages_django_contrib_contenttypes_models'
p1935
(dp1936
g37
(dp1937
g8
S'_Library_Python_2_7_site-packages_django_contrib_contenttypes_models.html'
p1938
sg10
S'/Library/Python/2.7/site-packages/django/contrib/contenttypes/models'
p1939
sg12
g13
(g14
g15
NtRp1940
(dp1941
g18
I1
sg19
I0
sg20
I91
sg21
I0
sg22
I0
sg23
I45
sg24
I0
sbssg43
S'\xa2X\xbdIa\x05\x16m\xea%\xd8\x1e\x81\xa2\xc2\xa1'
p1942
ssS'_Library_Python_2_7_site-packages_south_models'
p1943
(dp1944
g37
(dp1945
g8
S'_Library_Python_2_7_site-packages_south_models.html'
p1946
sg10
S'/Library/Python/2.7/site-packages/south/models'
p1947
sg12
g13
(g14
g15
NtRp1948
(dp1949
g18
I1
sg19
I0
sg20
I21
sg21
I0
sg22
I0
sg23
I11
sg24
I0
sbssg43
S'\x0b\x1b\xa5\x01\x13\xbe\x84\xa8\xdf \xb2+\xdf\xbf\xcc\xe2'
p1950
ssS'_Library_Python_2_7_site-packages_django_db_backends_postgresql_psycopg2_operations'
p1951
(dp1952
g6
(dp1953
g8
S'_Library_Python_2_7_site-packages_django_db_backends_postgresql_psycopg2_operations.html'
p1954
sg10
S'/Library/Python/2.7/site-packages/django/db/backends/postgresql_psycopg2/operations'
p1955
sg12
g13
(g14
g15
NtRp1956
(dp1957
g18
I1
sg19
I0
sg20
I99
sg21
I0
sg22
I0
sg23
I44
sg24
I0
sbssg25
S'x\xbd~\xe7>R\xf1\xf3\n\xe0&\xfb\x10"\xf40'
p1958
ssS'_Library_Python_2_7_site-packages_django_utils_module_loading'
p1959
(dp1960
g6
(dp1961
g48
S'_Library_Python_2_7_site-packages_django_utils_module_loading.html'
p1962
sg50
S'/Library/Python/2.7/site-packages/django/utils/module_loading'
p1963
sg52
g13
(g14
g15
NtRp1964
(dp1965
g18
I1
sg19
I0
sg20
I48
sg21
I0
sg22
I0
sg23
I44
sg24
I0
sbssg25
S'\x81\xbe\xb4\xca\xff\xe8Z\x15]\x06\xfc\xf1\xc4\xd9\x9a;'
p1966
ssS'_Library_Python_2_7_site-packages_django_middleware_csrf'
p1967
(dp1968
g37
(dp1969
g8
S'_Library_Python_2_7_site-packages_django_middleware_csrf.html'
p1970
sg10
S'/Library/Python/2.7/site-packages/django/middleware/csrf'
p1971
sg12
g13
(g14
g15
NtRp1972
(dp1973
g18
I1
sg19
I0
sg20
I82
sg21
I0
sg22
I0
sg23
I58
sg24
I0
sbssg43
S'M\xd3.z\x18\xb9\x8d\xbf\x0bU6\xb8D\x06\xca\x04'
p1974
ssS'_Library_Python_2_7_site-packages_django_contrib_auth_tokens'
p1975
(dp1976
g37
(dp1977
g8
S'_Library_Python_2_7_site-packages_django_contrib_auth_tokens.html'
p1978
sg10
S'/Library/Python/2.7/site-packages/django/contrib/auth/tokens'
p1979
sg12
g13
(g14
g15
NtRp1980
(dp1981
g18
I1
sg19
I0
sg20
I33
sg21
I0
sg22
I0
sg23
I22
sg24
I0
sbssg43
S'\xd5\x0c3\xaaa\x07\xe1\x06.\xfe\xeaP\xc3b\xdb\x96'
p1982
ssS'_Library_Python_2_7_site-packages_pytz_exceptions'
p1983
(dp1984
g6
(dp1985
g48
S'_Library_Python_2_7_site-packages_pytz_exceptions.html'
p1986
sg50
S'/Library/Python/2.7/site-packages/pytz/exceptions'
p1987
sg52
g13
(g14
g15
NtRp1988
(dp1989
g18
I1
sg19
I0
sg20
I6
sg21
I0
sg22
I0
sg23
I0
sg24
I0
sbssg25
S'\xca\xbadT#j\x8b\xb1Q\x18(s\xf5>\x99\xe1'
p1990
ssS'_Library_Python_2_7_site-packages_django_db_models_query_utils'
p1991
(dp1992
g6
(dp1993
g8
S'_Library_Python_2_7_site-packages_django_db_models_query_utils.html'
p1994
sg10
S'/Library/Python/2.7/site-packages/django/db/models/query_utils'
p1995
sg12
g13
(g14
g15
NtRp1996
(dp1997
g18
I1
sg19
I0
sg20
I78
sg21
I0
sg22
I0
sg23
I53
sg24
I0
sbssg25
S'\x81r,\xe6%{i\xa9EW\xc8\x03\x0b\xe9\x80\xdd'
p1998
ssS'_Library_Python_2_7_site-packages_django_core_mail___init__'
p1999
(dp2000
g6
(dp2001
g48
S'_Library_Python_2_7_site-packages_django_core_mail___init__.html'
p2002
sg50
S'/Library/Python/2.7/site-packages/django/core/mail/__init__'
p2003
sg52
g13
(g14
g15
NtRp2004
(dp2005
g18
I1
sg19
I0
sg20
I38
sg21
I0
sg22
I0
sg23
I28
sg24
I0
sbssg25
S'-\x89\xe2MN\xf5\x8f\xb6\x13\x12\x0c\xa7V\xa2#\xa2'
p2006
ssS'_Library_Python_2_7_site-packages_django_utils_log'
p2007
(dp2008
g6
(dp2009
g48
S'_Library_Python_2_7_site-packages_django_utils_log.html'
p2010
sg50
S'/Library/Python/2.7/site-packages/django/utils/log'
p2011
sg52
g13
(g14
g15
NtRp2012
(dp2013
g18
I1
sg19
I0
sg20
I56
sg21
I0
sg22
I0
sg23
I32
sg24
I0
sbssg25
S'[\xb7U\xe3<\xd4\x88\x90wQ^\x06y%\xb8K'
p2014
ssS'_Library_Python_2_7_site-packages_django_core_files_uploadhandler'
p2015
(dp2016
g6
(dp2017
g48
S'_Library_Python_2_7_site-packages_django_core_files_uploadhandler.html'
p2018
sg50
S'/Library/Python/2.7/site-packages/django/core/files/uploadhandler'
p2019
sg52
g13
(g14
g15
NtRp2020
(dp2021
g18
I1
sg19
I0
sg20
I89
sg21
I0
sg22
I0
sg23
I54
sg24
I0
sbssg25
S'\xd7\x85G\xd1\xdc3<\xf5\xe9\xd6UF?\xc2\x90\xde'
p2022
ssS'_Library_Python_2_7_site-packages_django_contrib_auth_models'
p2023
(dp2024
g37
(dp2025
g8
S'_Library_Python_2_7_site-packages_django_contrib_auth_models.html'
p2026
sg10
S'/Library/Python/2.7/site-packages/django/contrib/auth/models'
p2027
sg12
g13
(g14
g15
NtRp2028
(dp2029
g18
I1
sg19
I0
sg20
I244
sg21
I0
sg22
I0
sg23
I129
sg24
I0
sbssg43
S'\xb9/yoz\'SU\xdf\xe0\xb0\xa6\xcdD"\xc6'
p2030
ssS'_Library_Python_2_7_site-packages_django_contrib_admin_filters'
p2031
(dp2032
g37
(dp2033
g8
S'_Library_Python_2_7_site-packages_django_contrib_admin_filters.html'
p2034
sg10
S'/Library/Python/2.7/site-packages/django/contrib/admin/filters'
p2035
sg12
g13
(g14
g15
NtRp2036
(dp2037
g18
I1
sg19
I0
sg20
I187
sg21
I0
sg22
I0
sg23
I126
sg24
I0
sbssg43
S'\xaa\xce@\xb7\xca\xc7\xa3\x11F\x02\xb9\xff\xef\xe5\xf61'
p2038
ssS'_Library_Python_2_7_site-packages_south_utils_datetime_utils'
p2039
(dp2040
g37
(dp2041
g8
S'_Library_Python_2_7_site-packages_south_utils_datetime_utils.html'
p2042
sg10
S'/Library/Python/2.7/site-packages/south/utils/datetime_utils'
p2043
sg12
g13
(g14
g15
NtRp2044
(dp2045
g18
I1
sg19
I0
sg20
I13
sg21
I0
sg22
I0
sg23
I5
sg24
I0
sbssg43
S'#\xd4%\xc1\x13b\xbe\xdc\x97\xcbi\xabX\x00\xa2\xa7'
p2046
ssS'_Library_Python_2_7_site-packages_django_template_loaders___init__'
p2047
(dp2048
g6
(dp2049
g48
S'_Library_Python_2_7_site-packages_django_template_loaders___init__.html'
p2050
sg50
S'/Library/Python/2.7/site-packages/django/template/loaders/__init__'
p2051
sg52
g13
(g14
g15
NtRp2052
(dp2053
g18
I1
sg19
I0
sg20
I0
sg21
I0
sg22
I0
sg23
I0
sg24
I0
sbssg25
S'\xb0\xc8pN\xaf>\xa0\xbaz\x144\xe0A9\xb8?'
p2054
ssS'_Library_Python_2_7_site-packages_django_http_multipartparser'
p2055
(dp2056
g6
(dp2057
g48
S'_Library_Python_2_7_site-packages_django_http_multipartparser.html'
p2058
sg50
S'/Library/Python/2.7/site-packages/django/http/multipartparser'
p2059
sg52
g13
(g14
g15
NtRp2060
(dp2061
g18
I1
sg19
I0
sg20
I337
sg21
I0
sg22
I0
sg23
I288
sg24
I0
sbssg25
S'\xd2\xb9 \x03\xe5*`\xbd*\x88\xd9I\x92\xb4~\xbb'
p2062
ssS'_Library_Python_2_7_site-packages_pytz_tzinfo'
p2063
(dp2064
g6
(dp2065
g8
S'_Library_Python_2_7_site-packages_pytz_tzinfo.html'
p2066
sg10
S'/Library/Python/2.7/site-packages/pytz/tzinfo'
p2067
sg12
g13
(g14
g15
NtRp2068
(dp2069
g18
I1
sg19
I0
sg20
I178
sg21
I0
sg22
I0
sg23
I79
sg24
I0
sbssg25
S"\xa3\xd9iA@\xe8c\x0b\xc1V\xb0]'5\xd0\x9c"
p2070
ssS'_Library_Python_2_7_site-packages_django_contrib_admin_helpers'
p2071
(dp2072
g37
(dp2073
g8
S'_Library_Python_2_7_site-packages_django_contrib_admin_helpers.html'
p2074
sg10
S'/Library/Python/2.7/site-packages/django/contrib/admin/helpers'
p2075
sg12
g13
(g14
g15
NtRp2076
(dp2077
g18
I1
sg19
I0
sg20
I245
sg21
I0
sg22
I0
sg23
I182
sg24
I0
sbssg43
S'2\x07\xb3\xfcP!\xc7\x02\xd7\xd9"\xf4\xab\xfd\xbfX'
p2078
ssS'_Library_Python_2_7_site-packages_django_core_servers_basehttp'
p2079
(dp2080
g6
(dp2081
g48
S'_Library_Python_2_7_site-packages_django_core_servers_basehttp.html'
p2082
sg50
S'/Library/Python/2.7/site-packages/django/core/servers/basehttp'
p2083
sg52
g13
(g14
g15
NtRp2084
(dp2085
g18
I1
sg19
I0
sg20
I142
sg21
I0
sg22
I0
sg23
I103
sg24
I0
sbssg25
S'\xdc\x86;\x06\x84B\xf8\xf4\xb2-F\xf8\x7f\x05\xcb\xf0'
p2086
ssS'_Library_Python_2_7_site-packages_django_db_models_expressions'
p2087
(dp2088
g6
(dp2089
g48
S'_Library_Python_2_7_site-packages_django_db_models_expressions.html'
p2090
sg50
S'/Library/Python/2.7/site-packages/django/db/models/expressions'
p2091
sg52
g13
(g14
g15
NtRp2092
(dp2093
g18
I1
sg19
I0
sg20
I80
sg21
I0
sg22
I0
sg23
I43
sg24
I0
sbssg25
S'mo\x1e\x15\xa0\xc1\x8a\x13\xf7\xaen\x81\xfc_\x0e\xa5'
p2094
ssS'_Library_Python_2_7_site-packages_django_core_cache_backends_db'
p2095
(dp2096
g37
(dp2097
g8
S'_Library_Python_2_7_site-packages_django_core_cache_backends_db.html'
p2098
sg10
S'/Library/Python/2.7/site-packages/django/core/cache/backends/db'
p2099
sg12
g13
(g14
g15
NtRp2100
(dp2101
g18
I1
sg19
I0
sg20
I127
sg21
I0
sg22
I0
sg23
I103
sg24
I0
sbssg43
S"\xee\x8a'\xb6\x8d\x06\x8ca\t\x1c\x9dE\x8b\x854H"
p2102
sssS'version'
p2103
S'3.6'
p2104
sS'settings'
p2105
S'3\xcf\xa1\x19.\x88o$\x8cA\xde\xbd\xcd\x06\xa1\x0f'
p2106
sS'format'
p2107
I1
s.