(dp1
S'files'
p2
(dp3
S'_Library_Python_2_7_site-packages_django_utils_decorators'
p4
(dp5
S'index'
p6
(dp7
S'html_filename'
p8
S'_Library_Python_2_7_site-packages_django_utils_decorators.html'
p9
sS'name'
p10
S'/Library/Python/2.7/site-packages/django/utils/decorators'
p11
sS'nums'
p12
ccopy_reg
_reconstructor
p13
(ccoverage.results
Numbers
p14
c__builtin__
object
p15
NtRp16
(dp17
S'n_files'
p18
I1
sS'n_branches'
p19
I0
sS'n_statements'
p20
I59
sS'n_excluded'
p21
I0
sS'n_partial_branches'
p22
I0
sS'n_missing'
p23
I33
sS'n_missing_branches'
p24
I0
sbssS'hash'
p25
S'\xd4C\xaf\x8d\xf9z (\xa8J9\xf4\x84\x8eHg'
p26
ssS'_Library_Python_2_7_site-packages_django_db_models_query'
p27
(dp28
g6
(dp29
S'html_filename'
p30
S'_Library_Python_2_7_site-packages_django_db_models_query.html'
p31
sS'name'
p32
S'/Library/Python/2.7/site-packages/django/db/models/query'
p33
sS'nums'
p34
g13
(g14
g15
NtRp35
(dp36
g18
I1
sg19
I0
sg20
I925
sg21
I0
sg22
I0
sg23
I608
sg24
I0
sbssg25
S'\xecl\x92\xec\x88W\x93\xa2\xc4\x06\xc1\x0c\xf2^\x92i'
p37
ssS'_Library_Python_2_7_site-packages_south_hacks_django_1_0'
p38
(dp39
S'index'
p40
(dp41
g8
S'_Library_Python_2_7_site-packages_south_hacks_django_1_0.html'
p42
sg10
S'/Library/Python/2.7/site-packages/south/hacks/django_1_0'
p43
sg12
g13
(g14
g15
NtRp44
(dp45
g18
I1
sg19
I0
sg20
I48
sg21
I0
sg22
I0
sg23
I20
sg24
I0
sbssS'hash'
p46
S'\xcf\xe2\xeeD\x8d-\xcd\x0e,\x91\xad\x8b1)\xfd\x9a'
p47
ssS'_Library_Python_2_7_site-packages_django_core_files_temp'
p48
(dp49
g6
(dp50
S'html_filename'
p51
S'_Library_Python_2_7_site-packages_django_core_files_temp.html'
p52
sS'name'
p53
S'/Library/Python/2.7/site-packages/django/core/files/temp'
p54
sS'nums'
p55
g13
(g14
g15
NtRp56
(dp57
g18
I1
sg19
I0
sg20
I28
sg21
I0
sg22
I0
sg23
I21
sg24
I0
sbssg25
S'\x14%Z\x18\x8e\x18K\xa3Y\x1f\xa7\x988\xdc)X'
p58
ssS'_Library_Python_2_7_site-packages_django_db_models_manager'
p59
(dp60
g6
(dp61
g8
S'_Library_Python_2_7_site-packages_django_db_models_manager.html'
p62
sg10
S'/Library/Python/2.7/site-packages/django/db/models/manager'
p63
sg12
g13
(g14
g15
NtRp64
(dp65
g18
I1
sg19
I0
sg20
I139
sg21
I0
sg22
I0
sg23
I43
sg24
I0
sbssg25
S'\xe7}j\xe7\xaa&]\xcf\x87\xccb\xe5\x98mhb'
p66
ssS'_Library_Python_2_7_site-packages_south_migration_migrators'
p67
(dp68
g40
(dp69
g8
S'_Library_Python_2_7_site-packages_south_migration_migrators.html'
p70
sg10
S'/Library/Python/2.7/site-packages/south/migration/migrators'
p71
sg12
g13
(g14
g15
NtRp72
(dp73
g18
I1
sg19
I0
sg20
I231
sg21
I0
sg22
I0
sg23
I165
sg24
I0
sbssg46
S'!\xbe\x94\xc9o\x81\x91\x17\xd2\x10\xbf\x1b\n\xf4\x18\x98'
p74
ssS'_Library_Python_2_7_site-packages_django_utils_dates'
p75
(dp76
g6
(dp77
g51
S'_Library_Python_2_7_site-packages_django_utils_dates.html'
p78
sg53
S'/Library/Python/2.7/site-packages/django/utils/dates'
p79
sg55
g13
(g14
g15
NtRp80
(dp81
g18
I1
sg19
I0
sg20
I9
sg21
I0
sg22
I0
sg23
I0
sg24
I0
sbssg25
S'\xed\xe1n\x81\x12\xc1\xc6\x8b\xd8\x98O4:mTA'
p82
ssS'_Library_Python_2_7_site-packages_django_db_models_sql_subqueries'
p83
(dp84
g6
(dp85
g30
S'_Library_Python_2_7_site-packages_django_db_models_sql_subqueries.html'
p86
sg32
S'/Library/Python/2.7/site-packages/django/db/models/sql/subqueries'
p87
sg34
g13
(g14
g15
NtRp88
(dp89
g18
I1
sg19
I0
sg20
I113
sg21
I0
sg22
I0
sg23
I52
sg24
I0
sbssg25
S"\x10\t\x91\xd9'+\xb4\x07\x05\x91\xa2QI\x04\xc4\x98"
p90
ssS'_Library_Python_2_7_site-packages_south_management_commands_migrate'
p91
(dp92
g40
(dp93
g8
S'_Library_Python_2_7_site-packages_south_management_commands_migrate.html'
p94
sg10
S'/Library/Python/2.7/site-packages/south/management/commands/migrate'
p95
sg12
g13
(g14
g15
NtRp96
(dp97
g18
I1
sg19
I0
sg20
I123
sg21
I0
sg22
I0
sg23
I91
sg24
I0
sbssg46
S'd\xc5=\xaf\xd6G\xbaJ\x1c\xc0\xce]k\xa8\x18\xa1'
p98
ssS'_Library_Python_2_7_site-packages_django_db_models_aggregates'
p99
(dp100
g6
(dp101
g51
S'_Library_Python_2_7_site-packages_django_db_models_aggregates.html'
p102
sg53
S'/Library/Python/2.7/site-packages/django/db/models/aggregates'
p103
sg55
g13
(g14
g15
NtRp104
(dp105
g18
I1
sg19
I0
sg20
I25
sg21
I0
sg22
I0
sg23
I6
sg24
I0
sbssg25
S'TO\x1e/\xbc\x9c\x17\xc0\xd4\xad\xd9\xae\xc4\\\xa4I'
p106
ssS'_Library_Python_2_7_site-packages_django_db_backends_postgresql_psycopg2_version'
p107
(dp108
g6
(dp109
g8
S'_Library_Python_2_7_site-packages_django_db_backends_postgresql_psycopg2_version.html'
p110
sg10
S'/Library/Python/2.7/site-packages/django/db/backends/postgresql_psycopg2/version'
p111
sg12
g13
(g14
g15
NtRp112
(dp113
g18
I1
sg19
I0
sg20
I14
sg21
I0
sg22
I0
sg23
I8
sg24
I0
sbssg25
S'\xa8n\xb3&\xe2\xd0\x98\x7f\xee#\x05\x97\xa4\xb9\xf54'
p114
ssS'_Library_Python_2_7_site-packages_south_management_commands___init__'
p115
(dp116
g40
(dp117
g8
S'_Library_Python_2_7_site-packages_south_management_commands___init__.html'
p118
sg10
S'/Library/Python/2.7/site-packages/south/management/commands/__init__'
p119
sg12
g13
(g14
g15
NtRp120
(dp121
g18
I1
sg19
I0
sg20
I18
sg21
I0
sg22
I0
sg23
I1
sg24
I0
sbssg46
S'b&]\x8bu\x13\xcde\x13\xe0\xdc1\xc1\xe6B|'
p122
ssS'_Library_Python_2_7_site-packages_django_core_management_sql'
p123
(dp124
g40
(dp125
g8
S'_Library_Python_2_7_site-packages_django_core_management_sql.html'
p126
sg10
S'/Library/Python/2.7/site-packages/django/core/management/sql'
p127
sg12
g13
(g14
g15
NtRp128
(dp129
g18
I1
sg19
I0
sg20
I107
sg21
I0
sg22
I0
sg23
I76
sg24
I0
sbssg46
S'\xf7v;\xcd\x12\xa3\xdc\x13\x8a\x89\xe5l\xe3\xcc`\x9d'
p130
ssS'_Library_Python_2_7_site-packages_django_utils_log'
p131
(dp132
g6
(dp133
g51
S'_Library_Python_2_7_site-packages_django_utils_log.html'
p134
sg53
S'/Library/Python/2.7/site-packages/django/utils/log'
p135
sg55
g13
(g14
g15
NtRp136
(dp137
g18
I1
sg19
I0
sg20
I56
sg21
I0
sg22
I0
sg23
I32
sg24
I0
sbssg25
S'[\xb7U\xe3<\xd4\x88\x90wQ^\x06y%\xb8K'
p138
ssS'_Library_Python_2_7_site-packages_django_contrib_auth_hashers'
p139
(dp140
g40
(dp141
g8
S'_Library_Python_2_7_site-packages_django_contrib_auth_hashers.html'
p142
sg10
S'/Library/Python/2.7/site-packages/django/contrib/auth/hashers'
p143
sg12
g13
(g14
g15
NtRp144
(dp145
g18
I1
sg19
I0
sg20
I200
sg21
I0
sg22
I0
sg23
I134
sg24
I0
sbssg46
S':\x81\xf2h\xfaUD\xd8\xa9\xd3K\xbaz\xceY\xf6'
p146
ssS'_Library_Python_2_7_site-packages_django_test_simple'
p147
(dp148
g6
(dp149
S'html_filename'
p150
S'_Library_Python_2_7_site-packages_django_test_simple.html'
p151
sS'name'
p152
S'/Library/Python/2.7/site-packages/django/test/simple'
p153
sS'nums'
p154
g13
(g14
g15
NtRp155
(dp156
g18
I1
sg19
I0
sg20
I198
sg21
I0
sg22
I0
sg23
I72
sg24
I0
sbssg25
S'\x92\xa3\xaccV,\xdf\x8f.\xef\x96<\xe4i\xd6~'
p157
ssS'_Library_Python_2_7_site-packages_django_utils_tzinfo'
p158
(dp159
g6
(dp160
g51
S'_Library_Python_2_7_site-packages_django_utils_tzinfo.html'
p161
sg53
S'/Library/Python/2.7/site-packages/django/utils/tzinfo'
p162
sg55
g13
(g14
g15
NtRp163
(dp164
g18
I1
sg19
I0
sg20
I52
sg21
I0
sg22
I0
sg23
I34
sg24
I0
sbssg25
S'J\x85\xf4\xb5CA45\x13xif\xcd\x822M'
p165
ssS'_Library_Python_2_7_site-packages_south_management_commands_syncdb'
p166
(dp167
g40
(dp168
g8
S'_Library_Python_2_7_site-packages_south_management_commands_syncdb.html'
p169
sg10
S'/Library/Python/2.7/site-packages/south/management/commands/syncdb'
p170
sg12
g13
(g14
g15
NtRp171
(dp172
g18
I1
sg19
I0
sg20
I65
sg21
I0
sg22
I0
sg23
I13
sg24
I0
sbssg46
S'\r\xf5\n\xc4U-\x96X\xea]\xed\xf4-\xa0\xb5 '
p173
ssS'_Library_Python_2_7_site-packages_django_views_static'
p174
(dp175
g6
(dp176
g51
S'_Library_Python_2_7_site-packages_django_views_static.html'
p177
sg53
S'/Library/Python/2.7/site-packages/django/views/static'
p178
sg55
g13
(g14
g15
NtRp179
(dp180
g18
I1
sg19
I0
sg20
I74
sg21
I0
sg22
I0
sg23
I58
sg24
I0
sbssg25
S'\xc03WiA\xf43pq\xf8\xbc\x92?\xc6~\xa2'
p181
ssS'_Library_Python_2_7_site-packages_django_test_client'
p182
(dp183
g6
(dp184
g51
S'_Library_Python_2_7_site-packages_django_test_client.html'
p185
sg53
S'/Library/Python/2.7/site-packages/django/test/client'
p186
sg55
g13
(g14
g15
NtRp187
(dp188
g18
I1
sg19
I0
sg20
I260
sg21
I0
sg22
I0
sg23
I195
sg24
I0
sbssg25
S'O\xed`)\xcf.z\x08\x02\xa4\x82\x15f\x7f\x0e}'
p189
ssS'_Library_Python_2_7_site-packages_django_db_models_fields_proxy'
p190
(dp191
g6
(dp192
g51
S'_Library_Python_2_7_site-packages_django_db_models_fields_proxy.html'
p193
sg53
S'/Library/Python/2.7/site-packages/django/db/models/fields/proxy'
p194
sg55
g13
(g14
g15
NtRp195
(dp196
g18
I1
sg19
I0
sg20
I6
sg21
I0
sg22
I0
sg23
I3
sg24
I0
sbssg25
S'\xaf:\xd7\xa5\xadun\x1b\xb7\x141\x81\x80j\x94\xe6'
p197
ssS'_Library_Python_2_7_site-packages_django_utils_html'
p198
(dp199
g6
(dp200
g51
S'_Library_Python_2_7_site-packages_django_utils_html.html'
p201
sg53
S'/Library/Python/2.7/site-packages/django/utils/html'
p202
sg55
g13
(g14
g15
NtRp203
(dp204
g18
I1
sg19
I0
sg20
I133
sg21
I0
sg22
I0
sg23
I89
sg24
I0
sbssg25
S'\x16y \nh\x14<P\x87\x1b0\x11\xeeh]\xec'
p205
ssS'_Library_Python_2_7_site-packages_django_contrib_staticfiles_models'
p206
(dp207
g40
(dp208
g8
S'_Library_Python_2_7_site-packages_django_contrib_staticfiles_models.html'
p209
sg10
S'/Library/Python/2.7/site-packages/django/contrib/staticfiles/models'
p210
sg12
g13
(g14
g15
NtRp211
(dp212
g18
I1
sg19
I0
sg20
I0
sg21
I0
sg22
I0
sg23
I0
sg24
I0
sbssg46
S'\xb0\xc8pN\xaf>\xa0\xbaz\x144\xe0A9\xb8?'
p213
ssS'_Library_Python_2_7_site-packages_django___init__'
p214
(dp215
g6
(dp216
g51
S'_Library_Python_2_7_site-packages_django___init__.html'
p217
sg53
S'/Library/Python/2.7/site-packages/django/__init__'
p218
sg55
g13
(g14
g15
NtRp219
(dp220
g18
I1
sg19
I0
sg20
I18
sg21
I0
sg22
I0
sg23
I6
sg24
I0
sbssg25
S'\xf0\x13?\xd9\xba.\xecb\x02\xbc\xc7\x99)\xd7:\xea'
p221
ssS'_Library_Python_2_7_site-packages_django_db_backends_signals'
p222
(dp223
g6
(dp224
g51
S'_Library_Python_2_7_site-packages_django_db_backends_signals.html'
p225
sg53
S'/Library/Python/2.7/site-packages/django/db/backends/signals'
p226
sg55
g13
(g14
g15
NtRp227
(dp228
g18
I1
sg19
I0
sg20
I2
sg21
I0
sg22
I0
sg23
I0
sg24
I0
sbssg25
S'\xac\xe8\xc0\xe9\x8a\xd9d\xcc\x03\xc1\x89\xd4\xde\xa8x<'
p229
ssS'_Library_Python_2_7_site-packages_django_utils_datetime_safe'
p230
(dp231
g6
(dp232
g51
S'_Library_Python_2_7_site-packages_django_utils_datetime_safe.html'
p233
sg53
S'/Library/Python/2.7/site-packages/django/utils/datetime_safe'
p234
sg55
g13
(g14
g15
NtRp235
(dp236
g18
I1
sg19
I0
sg20
I56
sg21
I0
sg22
I0
sg23
I42
sg24
I0
sbssg25
S'\xcf\x16v\x83I\x1c\x906G\x91=\xec\x94\xfdf\xbe'
p237
ssS'_Library_Python_2_7_site-packages_django_http___init__'
p238
(dp239
g6
(dp240
g8
S'_Library_Python_2_7_site-packages_django_http___init__.html'
p241
sg10
S'/Library/Python/2.7/site-packages/django/http/__init__'
p242
sg12
g13
(g14
g15
NtRp243
(dp244
g18
I1
sg19
I0
sg20
I496
sg21
I0
sg22
I0
sg23
I316
sg24
I0
sbssg25
S'\xfe\x98v\xc5\xc6C\xa0:a\xcc\xd2oF\xbcy\x9a'
p245
ssS'_Library_Python_2_7_site-packages_django_utils_simplejson___init__'
p246
(dp247
g6
(dp248
g51
S'_Library_Python_2_7_site-packages_django_utils_simplejson___init__.html'
p249
sg53
S'/Library/Python/2.7/site-packages/django/utils/simplejson/__init__'
p250
sg55
g13
(g14
g15
NtRp251
(dp252
g18
I1
sg19
I0
sg20
I54
sg21
I0
sg22
I0
sg23
I39
sg24
I0
sbssg25
S"\xe5$x;'\x91@\x12\x06\xab)\x0c\x93\xca\xbde"
p253
ssS'_Library_Python_2_7_site-packages_django_core_management_commands_flush'
p254
(dp255
g40
(dp256
g8
S'_Library_Python_2_7_site-packages_django_core_management_commands_flush.html'
p257
sg10
S'/Library/Python/2.7/site-packages/django/core/management/commands/flush'
p258
sg12
g13
(g14
g15
NtRp259
(dp260
g18
I1
sg19
I0
sg20
I43
sg21
I0
sg22
I0
sg23
I31
sg24
I0
sbssg46
S'#jK\xce\x08\xd5\x8a\x8b\xac\xc6\x8c\x97\rC\xe0\x08'
p261
ssS'_Library_Python_2_7_site-packages_django_core_management_commands_syncdb'
p262
(dp263
g40
(dp264
g8
S'_Library_Python_2_7_site-packages_django_core_management_commands_syncdb.html'
p265
sg10
S'/Library/Python/2.7/site-packages/django/core/management/commands/syncdb'
p266
sg12
g13
(g14
g15
NtRp267
(dp268
g18
I1
sg19
I0
sg20
I100
sg21
I0
sg22
I0
sg23
I25
sg24
I0
sbssg46
S'\x8b.\xe7\xcb\xf35\xd5\xb0\xef/\xd5w\xc3\xf4I\xe9'
p269
ssS'_Library_Python_2_7_site-packages_django_contrib_admin_forms'
p270
(dp271
g40
(dp272
g8
S'_Library_Python_2_7_site-packages_django_contrib_admin_forms.html'
p273
sg10
S'/Library/Python/2.7/site-packages/django/contrib/admin/forms'
p274
sg12
g13
(g14
g15
NtRp275
(dp276
g18
I1
sg19
I0
sg20
I27
sg21
I0
sg22
I0
sg23
I18
sg24
I0
sbssg46
S'\xde\xbf\x04\xd5\xeb\xcbdH\xcc\x8d\xbb\n\xcd\xd1\xa0\x98'
p277
ssS'_Library_Python_2_7_site-packages_django_db_backends___init__'
p278
(dp279
g6
(dp280
g8
S'_Library_Python_2_7_site-packages_django_db_backends___init__.html'
p281
sg10
S'/Library/Python/2.7/site-packages/django/db/backends/__init__'
p282
sg12
g13
(g14
g15
NtRp283
(dp284
g18
I1
sg19
I0
sg20
I428
sg21
I0
sg22
I0
sg23
I166
sg24
I0
sbssg25
S'\xc6\xcf=Y\xc1\xd5\xad V8\xf4\xd8M\x04s\x97'
p285
ssS'_Library_Python_2_7_site-packages_django_utils___init__'
p286
(dp287
g6
(dp288
g51
S'_Library_Python_2_7_site-packages_django_utils___init__.html'
p289
sg53
S'/Library/Python/2.7/site-packages/django/utils/__init__'
p290
sg55
g13
(g14
g15
NtRp291
(dp292
g18
I1
sg19
I0
sg20
I0
sg21
I0
sg22
I0
sg23
I0
sg24
I0
sbssg25
S'\xb0\xc8pN\xaf>\xa0\xbaz\x144\xe0A9\xb8?'
p293
ssS'_Library_Python_2_7_site-packages_django_utils_timezone'
p294
(dp295
g6
(dp296
g8
S'_Library_Python_2_7_site-packages_django_utils_timezone.html'
p297
sg10
S'/Library/Python/2.7/site-packages/django/utils/timezone'
p298
sg12
g13
(g14
g15
NtRp299
(dp300
g18
I1
sg19
I0
sg20
I110
sg21
I0
sg22
I0
sg23
I63
sg24
I0
sbssg25
S'b\x8f\xd3fy\xd8\xd9\xd8\xc5d6\x00\xa3e\xdf\xac'
p301
ssS'_Library_Python_2_7_site-packages_django_core_files_utils'
p302
(dp303
g6
(dp304
g51
S'_Library_Python_2_7_site-packages_django_core_files_utils.html'
p305
sg53
S'/Library/Python/2.7/site-packages/django/core/files/utils'
p306
sg55
g13
(g14
g15
NtRp307
(dp308
g18
I1
sg19
I0
sg20
I19
sg21
I0
sg22
I0
sg23
I1
sg24
I0
sbssg25
S'\x91@)\xe4(\x81\xd6\xb8\x9b\x16\xc4\xeeh\x11e\xff'
p309
ssS'_Library_Python_2_7_site-packages_django_db_models_options'
p310
(dp311
g6
(dp312
g30
S'_Library_Python_2_7_site-packages_django_db_models_options.html'
p313
sg32
S'/Library/Python/2.7/site-packages/django/db/models/options'
p314
sg34
g13
(g14
g15
NtRp315
(dp316
g18
I1
sg19
I0
sg20
I319
sg21
I0
sg22
I0
sg23
I82
sg24
I0
sbssg25
S'\x7fF\x8c\xc0\xb3\xb7Xz\nB.d\xd02Z\xc3'
p317
ssS'_Library_Python_2_7_site-packages_django_db_models_sql_query'
p318
(dp319
g6
(dp320
g30
S'_Library_Python_2_7_site-packages_django_db_models_sql_query.html'
p321
sg32
S'/Library/Python/2.7/site-packages/django/db/models/sql/query'
p322
sg34
g13
(g14
g15
NtRp323
(dp324
g18
I1
sg19
I0
sg20
I1041
sg21
I0
sg22
I0
sg23
I572
sg24
I0
sbssg25
S'{95\xb9\xa6\x84\xcb\x06E\x89\xdf\x1e\rk\x08\x10'
p325
ssS'_Library_Python_2_7_site-packages_django_db_backends_util'
p326
(dp327
g6
(dp328
g8
S'_Library_Python_2_7_site-packages_django_db_backends_util.html'
p329
sg10
S'/Library/Python/2.7/site-packages/django/db/backends/util'
p330
sg12
g13
(g14
g15
NtRp331
(dp332
g18
I1
sg19
I0
sg20
I93
sg21
I0
sg22
I0
sg23
I62
sg24
I0
sbssg25
S'\x9cGE\xe0r\xef]p\x05\xd5K\xd6\x92j\x90\x9d'
p333
ssS'_Library_Python_2_7_site-packages_south___init__'
p334
(dp335
g40
(dp336
g8
S'_Library_Python_2_7_site-packages_south___init__.html'
p337
sg10
S'/Library/Python/2.7/site-packages/south/__init__'
p338
sg12
g13
(g14
g15
NtRp339
(dp340
g18
I1
sg19
I0
sg20
I2
sg21
I0
sg22
I0
sg23
I0
sg24
I0
sbssg46
S'2P\xd7RK.\x97\xb6\xc8\xb4\xc183\x03\xb2\x13'
p341
ssS'_Library_Python_2_7_site-packages_django_db_models_sql_where'
p342
(dp343
g6
(dp344
g8
S'_Library_Python_2_7_site-packages_django_db_models_sql_where.html'
p345
sg10
S'/Library/Python/2.7/site-packages/django/db/models/sql/where'
p346
sg12
g13
(g14
g15
NtRp347
(dp348
g18
I1
sg19
I0
sg20
I198
sg21
I0
sg22
I0
sg23
I84
sg24
I0
sbssg25
S'E\xec\x84\xdf\xd2vAu\x19\x01g\xd7\xb1H\xf1\x8e'
p349
ssS'_Library_Python_2_7_site-packages_django_template_base'
p350
(dp351
g6
(dp352
g8
S'_Library_Python_2_7_site-packages_django_template_base.html'
p353
sg10
S'/Library/Python/2.7/site-packages/django/template/base'
p354
sg12
g13
(g14
g15
NtRp355
(dp356
g18
I1
sg19
I0
sg20
I770
sg21
I0
sg22
I0
sg23
I557
sg24
I0
sbssg25
S'\xe3\x8b\xabY\x12\xaa\xad\xea\x89t\xb4o+f\x05\x15'
p357
ssS'_Library_Python_2_7_site-packages_django_utils_timesince'
p358
(dp359
g6
(dp360
g51
S'_Library_Python_2_7_site-packages_django_utils_timesince.html'
p361
sg53
S'/Library/Python/2.7/site-packages/django/utils/timesince'
p362
sg55
g13
(g14
g15
NtRp363
(dp364
g18
I1
sg19
I0
sg20
I28
sg21
I0
sg22
I0
sg23
I23
sg24
I0
sbssg25
S'\xfd1-5\xb5\xd0-~\xd5u\xc2\xb4/\xe6"0'
p365
ssS'_Library_Python_2_7_site-packages_django_forms_widgets'
p366
(dp367
g6
(dp368
g8
S'_Library_Python_2_7_site-packages_django_forms_widgets.html'
p369
sg10
S'/Library/Python/2.7/site-packages/django/forms/widgets'
p370
sg12
g13
(g14
g15
NtRp371
(dp372
g18
I1
sg19
I0
sg20
I559
sg21
I0
sg22
I0
sg23
I381
sg24
I0
sbssg25
S'D\xb0[]\x8a\x00\x86\xc8\xfe\xa2\x0f\x92\x9e\x8d\x8b3'
p373
ssS'_Library_Python_2_7_site-packages_django_core_mail_backends_base'
p374
(dp375
S'index'
p376
(dp377
S'html_filename'
p378
S'_Library_Python_2_7_site-packages_django_core_mail_backends_base.html'
p379
sS'name'
p380
S'/Library/Python/2.7/site-packages/django/core/mail/backends/base'
p381
sS'nums'
p382
g13
(g14
g15
NtRp383
(dp384
g18
I1
sg19
I0
sg20
I9
sg21
I0
sg22
I0
sg23
I3
sg24
I0
sbssS'hash'
p385
S'\xa8\x17\x18B\xfa\x01\xff\x94\xdd\xbb\xd5<\x91\x11s\xb3'
p386
ssS'_Library_Python_2_7_site-packages_django_contrib_sites_models'
p387
(dp388
g40
(dp389
g8
S'_Library_Python_2_7_site-packages_django_contrib_sites_models.html'
p390
sg10
S'/Library/Python/2.7/site-packages/django/contrib/sites/models'
p391
sg12
g13
(g14
g15
NtRp392
(dp393
g18
I1
sg19
I0
sg20
I55
sg21
I0
sg22
I0
sg23
I28
sg24
I0
sbssg46
S"\xea\x872\xf1'e3H\x04\xc9\x8d\x18;WZg"
p394
ssS'_Library_Python_2_7_site-packages_django_db_models_signals'
p395
(dp396
g6
(dp397
g51
S'_Library_Python_2_7_site-packages_django_db_models_signals.html'
p398
sg53
S'/Library/Python/2.7/site-packages/django/db/models/signals'
p399
sg55
g13
(g14
g15
NtRp400
(dp401
g18
I1
sg19
I0
sg20
I10
sg21
I0
sg22
I0
sg23
I0
sg24
I0
sbssg25
S'\xe2\x06\xfb\xdd\xac\xd4\xb2\xf8\\\x98T_\xb1W-\x19'
p402
ssS'_Library_Python_2_7_site-packages_django_utils_cache'
p403
(dp404
g40
(dp405
g8
S'_Library_Python_2_7_site-packages_django_utils_cache.html'
p406
sg10
S'/Library/Python/2.7/site-packages/django/utils/cache'
p407
sg12
g13
(g14
g15
NtRp408
(dp409
g18
I1
sg19
I0
sg20
I124
sg21
I0
sg22
I0
sg23
I101
sg24
I0
sbssg46
S'qc4\xc9\x18\xe4\x19"D\x96\xf9\x19\x0e\xac\xe3\xea'
p410
ssS'_Library_Python_2_7_site-packages_django_core_cache___init__'
p411
(dp412
g6
(dp413
g51
S'_Library_Python_2_7_site-packages_django_core_cache___init__.html'
p414
sg53
S'/Library/Python/2.7/site-packages/django/core/cache/__init__'
p415
sg55
g13
(g14
g15
NtRp416
(dp417
g18
I1
sg19
I0
sg20
I83
sg21
I0
sg22
I0
sg23
I29
sg24
I0
sbssg25
S'\x03J\xd1\xea9s5\xa2\x1c\xd2\x9d|J\xbeu\xb9'
p418
ssS'_Library_Python_2_7_site-packages_django_dispatch_saferef'
p419
(dp420
g6
(dp421
g51
S'_Library_Python_2_7_site-packages_django_dispatch_saferef.html'
p422
sg53
S'/Library/Python/2.7/site-packages/django/dispatch/saferef'
p423
sg55
g13
(g14
g15
NtRp424
(dp425
g18
I1
sg19
I0
sg20
I80
sg21
I0
sg22
I0
sg23
I59
sg24
I0
sbssg25
S'\xb8\xa2)1-\x80o\x8bm\x1e\x0bO\xe5\x12*\xd8'
p426
ssS'_Library_Python_2_7_site-packages_django_conf___init__'
p427
(dp428
g6
(dp429
g51
S'_Library_Python_2_7_site-packages_django_conf___init__.html'
p430
sg53
S'/Library/Python/2.7/site-packages/django/conf/__init__'
p431
sg55
g13
(g14
g15
NtRp432
(dp433
g18
I1
sg19
I0
sg20
I85
sg21
I0
sg22
I0
sg23
I28
sg24
I0
sbssg25
S'\xde\x01%5C\xac\xc9\xac\xb3\x10T\x7f`\xf7,r'
p434
ssS'_Library_Python_2_7_site-packages_south_migration_base'
p435
(dp436
g40
(dp437
g8
S'_Library_Python_2_7_site-packages_south_migration_base.html'
p438
sg10
S'/Library/Python/2.7/site-packages/south/migration/base'
p439
sg12
g13
(g14
g15
NtRp440
(dp441
g18
I1
sg19
I0
sg20
I274
sg21
I0
sg22
I0
sg23
I167
sg24
I0
sbssg46
S'\xd1\xc0z\xbd\xb1;=\x0b\xe8\x96\xfbSeL\xab\x0e'
p442
ssS'_Library_Python_2_7_site-packages_django_core_files_move'
p443
(dp444
g6
(dp445
g51
S'_Library_Python_2_7_site-packages_django_core_files_move.html'
p446
sg53
S'/Library/Python/2.7/site-packages/django/core/files/move'
p447
sg55
g13
(g14
g15
NtRp448
(dp449
g18
I1
sg19
I0
sg20
I47
sg21
I0
sg22
I0
sg23
I40
sg24
I0
sbssg25
S'y\\\xb7\x8a\xe3\xc5u\x9bK\xa2(CK\x07Q\x90'
p450
ssS'_Library_Python_2_7_site-packages_django_test__doctest'
p451
(dp452
g6
(dp453
g150
S'_Library_Python_2_7_site-packages_django_test__doctest.html'
p454
sg152
S'/Library/Python/2.7/site-packages/django/test/_doctest'
p455
sg154
g13
(g14
g15
NtRp456
(dp457
g18
I1
sg19
I0
sg20
I896
sg21
I0
sg22
I0
sg23
I753
sg24
I0
sbssg25
S'kv{\xa3w\xeb\x05&\xc6\xc6\xecEb\x90\x00\xf9'
p458
ssS'_Library_Python_2_7_site-packages_django_template___init__'
p459
(dp460
g6
(dp461
g51
S'_Library_Python_2_7_site-packages_django_template___init__.html'
p462
sg53
S'/Library/Python/2.7/site-packages/django/template/__init__'
p463
sg55
g13
(g14
g15
NtRp464
(dp465
g18
I1
sg19
I0
sg20
I6
sg21
I0
sg22
I0
sg23
I0
sg24
I0
sbssg25
S'\xb6\xa0l\x13\xa8q\x87\r\xa8\xea\xdd\x99\xef\xf5k\xd3'
p466
ssS'_Library_Python_2_7_site-packages_django_middleware_cache'
p467
(dp468
g40
(dp469
g8
S'_Library_Python_2_7_site-packages_django_middleware_cache.html'
p470
sg10
S'/Library/Python/2.7/site-packages/django/middleware/cache'
p471
sg12
g13
(g14
g15
NtRp472
(dp473
g18
I1
sg19
I0
sg20
I91
sg21
I0
sg22
I0
sg23
I78
sg24
I0
sbssg46
S'j\xd2\xba\xdeY|T\xd2\xe2\x10\x1c\x7f\xe4m\x0c\x02'
p474
ssS'_Library_Python_2_7_site-packages_django_forms_util'
p475
(dp476
g6
(dp477
g51
S'_Library_Python_2_7_site-packages_django_forms_util.html'
p478
sg53
S'/Library/Python/2.7/site-packages/django/forms/util'
p479
sg55
g13
(g14
g15
NtRp480
(dp481
g18
I1
sg19
I0
sg20
I41
sg21
I0
sg22
I0
sg23
I22
sg24
I0
sbssg25
S'\xd5\xdd\xf1\x0c1\x8a\rz"\xf1\xc5\'q\xb3EH'
p482
ssS'_Library_Python_2_7_site-packages_django_utils_termcolors'
p483
(dp484
g6
(dp485
g51
S'_Library_Python_2_7_site-packages_django_utils_termcolors.html'
p486
sg53
S'/Library/Python/2.7/site-packages/django/utils/termcolors'
p487
sg55
g13
(g14
g15
NtRp488
(dp489
g18
I1
sg19
I0
sg20
I56
sg21
I0
sg22
I0
sg23
I40
sg24
I0
sbssg25
S')\xd7\xec/\xe0)\xeb\xed\xa3\\\xca\xca\xc8aI\xa8'
p490
ssS'_Library_Python_2_7_site-packages_django_contrib_sites___init__'
p491
(dp492
g40
(dp493
g8
S'_Library_Python_2_7_site-packages_django_contrib_sites___init__.html'
p494
sg10
S'/Library/Python/2.7/site-packages/django/contrib/sites/__init__'
p495
sg12
g13
(g14
g15
NtRp496
(dp497
g18
I1
sg19
I0
sg20
I0
sg21
I0
sg22
I0
sg23
I0
sg24
I0
sbssg46
S'\xb0\xc8pN\xaf>\xa0\xbaz\x144\xe0A9\xb8?'
p498
ssS'_Library_Python_2_7_site-packages_django_contrib_admin_widgets'
p499
(dp500
g40
(dp501
g8
S'_Library_Python_2_7_site-packages_django_contrib_admin_widgets.html'
p502
sg10
S'/Library/Python/2.7/site-packages/django/contrib/admin/widgets'
p503
sg12
g13
(g14
g15
NtRp504
(dp505
g18
I1
sg19
I0
sg20
I211
sg21
I0
sg22
I0
sg23
I148
sg24
I0
sbssg46
S'\xd8:v\xfea\x15\xe1\x01B\x8b\x16\x81\xff\xc7Q\x13'
p506
ssS'_Library_Python_2_7_site-packages_django_utils_baseconv'
p507
(dp508
g6
(dp509
g51
S'_Library_Python_2_7_site-packages_django_utils_baseconv.html'
p510
sg53
S'/Library/Python/2.7/site-packages/django/utils/baseconv'
p511
sg55
g13
(g14
g15
NtRp512
(dp513
g18
I1
sg19
I0
sg20
I48
sg21
I0
sg22
I0
sg23
I25
sg24
I0
sbssg25
S'1\xe8\xf6U\x98C\xe4\x99\x17*\xe3\xe1\x86\xeej\x0b'
p514
ssS'_Library_Python_2_7_site-packages_django_db___init__'
p515
(dp516
g6
(dp517
g51
S'_Library_Python_2_7_site-packages_django_db___init__.html'
p518
sg53
S'/Library/Python/2.7/site-packages/django/db/__init__'
p519
sg55
g13
(g14
g15
NtRp520
(dp521
g18
I1
sg19
I0
sg20
I32
sg21
I0
sg22
I0
sg23
I12
sg24
I0
sbssg25
S'\xbf\x07\xee\x9b\xb06\xa4@\xc5H\xcf\xed&\xbf\xc7\xd2'
p522
ssS'_Library_Python_2_7_site-packages_django_utils_functional'
p523
(dp524
g6
(dp525
g8
S'_Library_Python_2_7_site-packages_django_utils_functional.html'
p526
sg10
S'/Library/Python/2.7/site-packages/django/utils/functional'
p527
sg12
g13
(g14
g15
NtRp528
(dp529
g18
I1
sg19
I0
sg20
I168
sg21
I0
sg22
I0
sg23
I67
sg24
I0
sbssg25
S'\xcd\xf6c\x16\xb0\x06b\xb1\x95\xe3\xeb^\x807\xf3/'
p530
ssS'carpoolapp_views'
p531
(dp532
g40
(dp533
S'html_filename'
p534
S'carpoolapp_views.html'
p535
sS'name'
p536
S'carpoolapp/views'
p537
sS'nums'
p538
g13
(g14
g15
NtRp539
(dp540
g18
I1
sg19
I0
sg20
I792
sg21
I0
sg22
I0
sg23
I304
sg24
I0
sbssg46
S'\x05\x00\xfc\xd4\xab-l\x92\xdd\xf7Z\xc1\xdco\xa1\xc1'
p541
ssS'_Library_Python_2_7_site-packages_django_views_debug'
p542
(dp543
g6
(dp544
g51
S'_Library_Python_2_7_site-packages_django_views_debug.html'
p545
sg53
S'/Library/Python/2.7/site-packages/django/views/debug'
p546
sg55
g13
(g14
g15
NtRp547
(dp548
g18
I1
sg19
I0
sg20
I274
sg21
I0
sg22
I0
sg23
I230
sg24
I0
sbssg25
S'E\x1f\x8e\xc1[\xc0\xa1\xf0{\xa5;G!T\xff\x9f'
p549
ssS'_Library_Python_2_7_site-packages_django_forms_fields'
p550
(dp551
g6
(dp552
g8
S'_Library_Python_2_7_site-packages_django_forms_fields.html'
p553
sg10
S'/Library/Python/2.7/site-packages/django/forms/fields'
p554
sg12
g13
(g14
g15
NtRp555
(dp556
g18
I1
sg19
I0
sg20
I585
sg21
I0
sg22
I0
sg23
I381
sg24
I0
sbssg25
S'^\xd0-\x02o\xb8\x1d\xa2n;<\x87\x1c"V\xb5'
p557
ssS'_Library_Python_2_7_site-packages_django_contrib_contenttypes___init__'
p558
(dp559
g40
(dp560
g8
S'_Library_Python_2_7_site-packages_django_contrib_contenttypes___init__.html'
p561
sg10
S'/Library/Python/2.7/site-packages/django/contrib/contenttypes/__init__'
p562
sg12
g13
(g14
g15
NtRp563
(dp564
g18
I1
sg19
I0
sg20
I0
sg21
I0
sg22
I0
sg23
I0
sg24
I0
sbssg46
S'\xb0\xc8pN\xaf>\xa0\xbaz\x144\xe0A9\xb8?'
p565
ssS'_Library_Python_2_7_site-packages_django_forms_models'
p566
(dp567
g6
(dp568
g8
S'_Library_Python_2_7_site-packages_django_forms_models.html'
p569
sg10
S'/Library/Python/2.7/site-packages/django/forms/models'
p570
sg12
g13
(g14
g15
NtRp571
(dp572
g18
I1
sg19
I0
sg20
I584
sg21
I0
sg22
I0
sg23
I432
sg24
I0
sbssg25
S'Y\x10\x19\xdb\xc87\xc9\nq\x81\xd2i\xaa\x90S\x1e'
p573
ssS'_Library_Python_2_7_site-packages_django_db_models_deletion'
p574
(dp575
g6
(dp576
g8
S'_Library_Python_2_7_site-packages_django_db_models_deletion.html'
p577
sg10
S'/Library/Python/2.7/site-packages/django/db/models/deletion'
p578
sg12
g13
(g14
g15
NtRp579
(dp580
g18
I1
sg19
I0
sg20
I146
sg21
I0
sg22
I0
sg23
I48
sg24
I0
sbssg25
S'O\xa9\xe8F\xedG\xb0\x88\xf2XJ\x88R\xbc.!'
p581
ssS'_Library_Python_2_7_site-packages_django_contrib_auth_forms'
p582
(dp583
g40
(dp584
g8
S'_Library_Python_2_7_site-packages_django_contrib_auth_forms.html'
p585
sg10
S'/Library/Python/2.7/site-packages/django/contrib/auth/forms'
p586
sg12
g13
(g14
g15
NtRp587
(dp588
g18
I1
sg19
I0
sg20
I175
sg21
I0
sg22
I0
sg23
I103
sg24
I0
sbssg46
S'\x91\xff\xe6\xf0u\x92\x88\\a\xd6fR\xb5\xf8,E'
p589
ssS'_Library_Python_2_7_site-packages_django_contrib_admin_templatetags___init__'
p590
(dp591
g40
(dp592
g8
S'_Library_Python_2_7_site-packages_django_contrib_admin_templatetags___init__.html'
p593
sg10
S'/Library/Python/2.7/site-packages/django/contrib/admin/templatetags/__init__'
p594
sg12
g13
(g14
g15
NtRp595
(dp596
g18
I1
sg19
I0
sg20
I0
sg21
I0
sg22
I0
sg23
I0
sg24
I0
sbssg46
S'\xb0\xc8pN\xaf>\xa0\xbaz\x144\xe0A9\xb8?'
p597
ssS'_Library_Python_2_7_site-packages_django_contrib_admin___init__'
p598
(dp599
g40
(dp600
g8
S'_Library_Python_2_7_site-packages_django_contrib_admin___init__.html'
p601
sg10
S'/Library/Python/2.7/site-packages/django/contrib/admin/__init__'
p602
sg12
g13
(g14
g15
NtRp603
(dp604
g18
I1
sg19
I0
sg20
I19
sg21
I0
sg22
I0
sg23
I13
sg24
I0
sbssg46
S'yXLFz\xa7\xfe#\x11\xea+\xc9\x1dR"\xfc'
p605
ssS'_Library_Python_2_7_site-packages_south_logger'
p606
(dp607
g40
(dp608
g8
S'_Library_Python_2_7_site-packages_south_logger.html'
p609
sg10
S'/Library/Python/2.7/site-packages/south/logger'
p610
sg12
g13
(g14
g15
NtRp611
(dp612
g18
I1
sg19
I0
sg20
I26
sg21
I0
sg22
I0
sg23
I14
sg24
I0
sbssg46
S'\xbdZM{\x9f\xd1\xfe\xb2\xa9D\xf0\xe2c,\xdf\xee'
p613
ssS'_Library_Python_2_7_site-packages_django_utils_text'
p614
(dp615
g6
(dp616
g51
S'_Library_Python_2_7_site-packages_django_utils_text.html'
p617
sg53
S'/Library/Python/2.7/site-packages/django/utils/text'
p618
sg55
g13
(g14
g15
NtRp619
(dp620
g18
I1
sg19
I0
sg20
I210
sg21
I0
sg22
I0
sg23
I158
sg24
I0
sbssg25
S'\'\x8f\xf8?\xbc\xc41"\xb0\x17\x14V"\x98\x1a\x8e'
p621
ssS'_Library_Python_2_7_site-packages_django_core_signals'
p622
(dp623
g6
(dp624
g51
S'_Library_Python_2_7_site-packages_django_core_signals.html'
p625
sg53
S'/Library/Python/2.7/site-packages/django/core/signals'
p626
sg55
g13
(g14
g15
NtRp627
(dp628
g18
I1
sg19
I0
sg20
I4
sg21
I0
sg22
I0
sg23
I0
sg24
I0
sbssg25
S'\xa8\x92\x82\x13=\x82/\x06\xba\xb2\xa6\xad\xc4o\x81\xc2'
p629
ssS'_Library_Python_2_7_site-packages_django_template_loader_tags'
p630
(dp631
g6
(dp632
g51
S'_Library_Python_2_7_site-packages_django_template_loader_tags.html'
p633
sg53
S'/Library/Python/2.7/site-packages/django/template/loader_tags'
p634
sg55
g13
(g14
g15
NtRp635
(dp636
g18
I1
sg19
I0
sg20
I177
sg21
I0
sg22
I0
sg23
I140
sg24
I0
sbssg25
S'+\x06\xf7\x8aT\x17\x9c\xfcr\x06&\x07\xe8a\t\xc5'
p637
ssS'carpoolapp_testLib'
p638
(dp639
g40
(dp640
g378
S'carpoolapp_testLib.html'
p641
sg380
S'carpoolapp/testLib'
p642
sg382
g13
(g14
g15
NtRp643
(dp644
g18
I1
sg19
I0
sg20
I85
sg21
I0
sg22
I0
sg23
I43
sg24
I0
sbssg46
S'eza\x17#\xb0@\xf1\xe1fnl\xdd\xd01\xcc'
p645
ssS'carpool___init__'
p646
(dp647
g6
(dp648
g51
S'carpool___init__.html'
p649
sg53
S'carpool/__init__'
p650
sg55
g13
(g14
g15
NtRp651
(dp652
g18
I1
sg19
I0
sg20
I0
sg21
I0
sg22
I0
sg23
I0
sg24
I0
sbssg25
S'\xb0\xc8pN\xaf>\xa0\xbaz\x144\xe0A9\xb8?'
p653
ssS'_Library_Python_2_7_site-packages_django_core_management___init__'
p654
(dp655
g6
(dp656
g8
S'_Library_Python_2_7_site-packages_django_core_management___init__.html'
p657
sg10
S'/Library/Python/2.7/site-packages/django/core/management/__init__'
p658
sg12
g13
(g14
g15
NtRp659
(dp660
g18
I1
sg19
I0
sg20
I203
sg21
I0
sg22
I0
sg23
I99
sg24
I0
sbssg25
S'\x92k\xdb\x99\x1b;\xc8c\xc3j\x14\x8b\xa6\xb2\xda\xac'
p661
ssS'_Library_Python_2_7_site-packages_django_utils_tree'
p662
(dp663
g6
(dp664
g8
S'_Library_Python_2_7_site-packages_django_utils_tree.html'
p665
sg10
S'/Library/Python/2.7/site-packages/django/utils/tree'
p666
sg12
g13
(g14
g15
NtRp667
(dp668
g18
I1
sg19
I0
sg20
I62
sg21
I0
sg22
I0
sg23
I18
sg24
I0
sbssg25
S'5I\xa85\xa0#Y\x00\xce\xe3\xc4\xb0=7\xaa\x8c'
p669
ssS'_Library_Python_2_7_site-packages_django_db_models_sql___init__'
p670
(dp671
g6
(dp672
g51
S'_Library_Python_2_7_site-packages_django_db_models_sql___init__.html'
p673
sg53
S'/Library/Python/2.7/site-packages/django/db/models/sql/__init__'
p674
sg55
g13
(g14
g15
NtRp675
(dp676
g18
I1
sg19
I0
sg20
I6
sg21
I0
sg22
I0
sg23
I0
sg24
I0
sbssg25
S'\xea\xf8\xff\x94\xe8\x06\xd7@N\x8e\xb9\x9b)&=f'
p677
ssS'_Library_Python_2_7_site-packages_django_forms_formsets'
p678
(dp679
g6
(dp680
g51
S'_Library_Python_2_7_site-packages_django_forms_formsets.html'
p681
sg53
S'/Library/Python/2.7/site-packages/django/forms/formsets'
p682
sg55
g13
(g14
g15
NtRp683
(dp684
g18
I1
sg19
I0
sg20
I216
sg21
I0
sg22
I0
sg23
I155
sg24
I0
sbssg25
S'U]O\xd9_\xeb\n<EfSe\xd0b\x17\xfd'
p685
ssS'_Library_Python_2_7_site-packages_django_contrib_messages_constants'
p686
(dp687
g40
(dp688
g8
S'_Library_Python_2_7_site-packages_django_contrib_messages_constants.html'
p689
sg10
S'/Library/Python/2.7/site-packages/django/contrib/messages/constants'
p690
sg12
g13
(g14
g15
NtRp691
(dp692
g18
I1
sg19
I0
sg20
I6
sg21
I0
sg22
I0
sg23
I0
sg24
I0
sbssg46
S'\xe2n\xbf/\x11\x9a\xf2\xc6\xa4\x8f~\xd2\x91y\xd4\xda'
p693
ssS'_Library_Python_2_7_site-packages_django_core___init__'
p694
(dp695
g6
(dp696
g51
S'_Library_Python_2_7_site-packages_django_core___init__.html'
p697
sg53
S'/Library/Python/2.7/site-packages/django/core/__init__'
p698
sg55
g13
(g14
g15
NtRp699
(dp700
g18
I1
sg19
I0
sg20
I0
sg21
I0
sg22
I0
sg23
I0
sg24
I0
sbssg25
S'\xb0\xc8pN\xaf>\xa0\xbaz\x144\xe0A9\xb8?'
p701
ssS'_Library_Python_2_7_site-packages_django_contrib_auth___init__'
p702
(dp703
g6
(dp704
g51
S'_Library_Python_2_7_site-packages_django_contrib_auth___init__.html'
p705
sg53
S'/Library/Python/2.7/site-packages/django/contrib/auth/__init__'
p706
sg55
g13
(g14
g15
NtRp707
(dp708
g18
I1
sg19
I0
sg20
I73
sg21
I0
sg22
I0
sg23
I60
sg24
I0
sbssg25
S'B_M\x9d\x87\xec\xba\x84W\x9b\xf6\x96\xf9oC\x9c'
p709
ssS'_Library_Python_2_7_site-packages_django_test_utils'
p710
(dp711
g6
(dp712
g8
S'_Library_Python_2_7_site-packages_django_test_utils.html'
p713
sg10
S'/Library/Python/2.7/site-packages/django/test/utils'
p714
sg12
g13
(g14
g15
NtRp715
(dp716
g18
I1
sg19
I0
sg20
I121
sg21
I0
sg22
I0
sg23
I69
sg24
I0
sbssg25
S'H\xee\x01\x07}\xa41T\xf8t\xe0\r\x00\xba{\xad'
p717
ssS'_Library_Python_2_7_site-packages_south_utils___init__'
p718
(dp719
g40
(dp720
g8
S'_Library_Python_2_7_site-packages_south_utils___init__.html'
p721
sg10
S'/Library/Python/2.7/site-packages/south/utils/__init__'
p722
sg12
g13
(g14
g15
NtRp723
(dp724
g18
I1
sg19
I0
sg20
I38
sg21
I0
sg22
I0
sg23
I12
sg24
I0
sbssg46
S'[\\A\x96\xa4!\x1c\x83Uf\xdd\x08H\x10g\xca'
p725
ssS'_Library_Python_2_7_site-packages_django_test_html'
p726
(dp727
g6
(dp728
g51
S'_Library_Python_2_7_site-packages_django_test_html.html'
p729
sg53
S'/Library/Python/2.7/site-packages/django/test/html'
p730
sg55
g13
(g14
g15
NtRp731
(dp732
g18
I1
sg19
I0
sg20
I160
sg21
I0
sg22
I0
sg23
I126
sg24
I0
sbssg25
S'\x94\x99a\xaf\xa6\x83\xd3\xab\xe4\xc2h`$\xab\xde\xbb'
p733
ssS'_Library_Python_2_7_site-packages_django_core_cache_backends_locmem'
p734
(dp735
g6
(dp736
g51
S'_Library_Python_2_7_site-packages_django_core_cache_backends_locmem.html'
p737
sg53
S'/Library/Python/2.7/site-packages/django/core/cache/backends/locmem'
p738
sg55
g13
(g14
g15
NtRp739
(dp740
g18
I1
sg19
I0
sg20
I120
sg21
I0
sg22
I0
sg23
I93
sg24
I0
sbssg25
S"*\x1f\x1f<\x8b\x1f\x18\xc9zxN\x18S\xa9'\x91"
p741
ssS'_Library_Python_2_7_site-packages_django_db_models_sql_constants'
p742
(dp743
g6
(dp744
g51
S'_Library_Python_2_7_site-packages_django_db_models_sql_constants.html'
p745
sg53
S'/Library/Python/2.7/site-packages/django/db/models/sql/constants'
p746
sg55
g13
(g14
g15
NtRp747
(dp748
g18
I1
sg19
I0
sg20
I15
sg21
I0
sg22
I0
sg23
I0
sg24
I0
sbssg25
S'_\xa8i4X\x9e\xb0\tKL\xa8\xac8"\x1a\x13'
p749
ssS'_Library_Python_2_7_site-packages_django_http_utils'
p750
(dp751
g6
(dp752
g51
S'_Library_Python_2_7_site-packages_django_http_utils.html'
p753
sg53
S'/Library/Python/2.7/site-packages/django/http/utils'
p754
sg55
g13
(g14
g15
NtRp755
(dp756
g18
I1
sg19
I0
sg20
I39
sg21
I0
sg22
I0
sg23
I35
sg24
I0
sbssg25
S"\xbb\xc3'\xa8C\x18g\x9cz\x03V\xe9i\xd4'Y"
p757
ssS'_Library_Python_2_7_site-packages_django_core_files_locks'
p758
(dp759
g6
(dp760
g51
S'_Library_Python_2_7_site-packages_django_core_files_locks.html'
p761
sg53
S'/Library/Python/2.7/site-packages/django/core/files/locks'
p762
sg55
g13
(g14
g15
NtRp763
(dp764
g18
I1
sg19
I0
sg20
I40
sg21
I0
sg22
I0
sg23
I23
sg24
I0
sbssg25
S'\x18\xad\x19x\x91p\n\x1a\x14\xf5\x00\xd2\xaf\xb8\xfa\xc5'
p765
ssS'_Library_Python_2_7_site-packages_django_db_models_expressions'
p766
(dp767
g6
(dp768
g51
S'_Library_Python_2_7_site-packages_django_db_models_expressions.html'
p769
sg53
S'/Library/Python/2.7/site-packages/django/db/models/expressions'
p770
sg55
g13
(g14
g15
NtRp771
(dp772
g18
I1
sg19
I0
sg20
I80
sg21
I0
sg22
I0
sg23
I43
sg24
I0
sbssg25
S'mo\x1e\x15\xa0\xc1\x8a\x13\xf7\xaen\x81\xfc_\x0e\xa5'
p773
ssS'_Library_Python_2_7_site-packages_django_core_files_images'
p774
(dp775
g6
(dp776
g51
S'_Library_Python_2_7_site-packages_django_core_files_images.html'
p777
sg53
S'/Library/Python/2.7/site-packages/django/core/files/images'
p778
sg55
g13
(g14
g15
NtRp779
(dp780
g18
I1
sg19
I0
sg20
I40
sg21
I0
sg22
I0
sg23
I32
sg24
I0
sbssg25
S'\xcf\x19\xca\xed\xd0\x9f\xdd\x00\xc0\xb9\xceq\xff\xa6JJ'
p781
ssS'_Library_Python_2_7_site-packages_django_utils_safestring'
p782
(dp783
g6
(dp784
g8
S'_Library_Python_2_7_site-packages_django_utils_safestring.html'
p785
sg10
S'/Library/Python/2.7/site-packages/django/utils/safestring'
p786
sg12
g13
(g14
g15
NtRp787
(dp788
g18
I1
sg19
I0
sg20
I57
sg21
I0
sg22
I0
sg23
I31
sg24
I0
sbssg25
S'\xd5\x8c/m\x01p\xe3\x00b\xa4\xcf\xe1\xbe\x0c\xa2a'
p789
ssS'_Library_Python_2_7_site-packages_django_template_loader'
p790
(dp791
g6
(dp792
g8
S'_Library_Python_2_7_site-packages_django_template_loader.html'
p793
sg10
S'/Library/Python/2.7/site-packages/django/template/loader'
p794
sg12
g13
(g14
g15
NtRp795
(dp796
g18
I1
sg19
I0
sg20
I104
sg21
I0
sg22
I0
sg23
I80
sg24
I0
sbssg25
S'}*y(\xae\xf9\x12\x11\xd0\xee\xad\xd5\x89\xe9\x9e\xea'
p797
ssS'_Library_Python_2_7_site-packages_django_forms___init__'
p798
(dp799
g6
(dp800
g51
S'_Library_Python_2_7_site-packages_django_forms___init__.html'
p801
sg53
S'/Library/Python/2.7/site-packages/django/forms/__init__'
p802
sg55
g13
(g14
g15
NtRp803
(dp804
g18
I1
sg19
I0
sg20
I6
sg21
I0
sg22
I0
sg23
I0
sg24
I0
sbssg25
S"\xfb\x98'\xfe<\x95\xf2Q\xfe,\xaeF\t[\xfeP"
p805
ssS'_Library_Python_2_7_site-packages_django_contrib_sessions_backends___init__'
p806
(dp807
g40
(dp808
g8
S'_Library_Python_2_7_site-packages_django_contrib_sessions_backends___init__.html'
p809
sg10
S'/Library/Python/2.7/site-packages/django/contrib/sessions/backends/__init__'
p810
sg12
g13
(g14
g15
NtRp811
(dp812
g18
I1
sg19
I0
sg20
I0
sg21
I0
sg22
I0
sg23
I0
sg24
I0
sbssg46
S'\xb0\xc8pN\xaf>\xa0\xbaz\x144\xe0A9\xb8?'
p813
ssS'_Library_Python_2_7_site-packages_south_management_commands_test'
p814
(dp815
g40
(dp816
g8
S'_Library_Python_2_7_site-packages_south_management_commands_test.html'
p817
sg10
S'/Library/Python/2.7/site-packages/south/management/commands/test'
p818
sg12
g13
(g14
g15
NtRp819
(dp820
g18
I1
sg19
I0
sg20
I6
sg21
I0
sg22
I0
sg23
I0
sg24
I0
sbssg46
S"\x98'+\xf5\x95\xb5zx\xee\xd4\x1f\xc1\xe6\xc8\xb3\xfd"
p821
ssS'_Library_Python_2_7_site-packages_psycopg2_extensions'
p822
(dp823
g6
(dp824
g51
S'_Library_Python_2_7_site-packages_psycopg2_extensions.html'
p825
sg53
S'/Library/Python/2.7/site-packages/psycopg2/extensions'
p826
sg55
g13
(g14
g15
NtRp827
(dp828
g18
I1
sg19
I0
sg20
I84
sg21
I0
sg22
I0
sg23
I22
sg24
I0
sbssg25
S'L\xf2+\x0b\x89\x9d\xf8"kV\xbc9\xa5\x8fkz'
p829
ssS'_Library_Python_2_7_site-packages_django_utils_html_parser'
p830
(dp831
g6
(dp832
g51
S'_Library_Python_2_7_site-packages_django_utils_html_parser.html'
p833
sg53
S'/Library/Python/2.7/site-packages/django/utils/html_parser'
p834
sg55
g13
(g14
g15
NtRp835
(dp836
g18
I1
sg19
I0
sg20
I79
sg21
I0
sg22
I0
sg23
I67
sg24
I0
sbssg25
S'\x97\xe2\x0cix\x9d\x1c\x1d\x822\xcb\xcf\xd5\xffO\xd4'
p837
ssS'_Library_Python_2_7_site-packages_django_core_signing'
p838
(dp839
g6
(dp840
g51
S'_Library_Python_2_7_site-packages_django_core_signing.html'
p841
sg53
S'/Library/Python/2.7/site-packages/django/core/signing'
p842
sg55
g13
(g14
g15
NtRp843
(dp844
g18
I1
sg19
I0
sg20
I92
sg21
I0
sg22
I0
sg23
I61
sg24
I0
sbssg25
S'\xb7\x1bS\x13Q\xb4\xf5k\x90\xf7hKv\xf0\xb8\x87'
p845
ssS'_Library_Python_2_7_site-packages_django_utils_translation___init__'
p846
(dp847
g6
(dp848
g8
S'_Library_Python_2_7_site-packages_django_utils_translation___init__.html'
p849
sg10
S'/Library/Python/2.7/site-packages/django/utils/translation/__init__'
p850
sg12
g13
(g14
g15
NtRp851
(dp852
g18
I1
sg19
I0
sg20
I86
sg21
I0
sg22
I0
sg23
I26
sg24
I0
sbssg25
S'\xda\xd8\xce\xd4\xc15\xcb*\xa5\xefV\\\x97\x87L\x0b'
p853
ssS'_Library_Python_2_7_site-packages_django_core_servers___init__'
p854
(dp855
g6
(dp856
g51
S'_Library_Python_2_7_site-packages_django_core_servers___init__.html'
p857
sg53
S'/Library/Python/2.7/site-packages/django/core/servers/__init__'
p858
sg55
g13
(g14
g15
NtRp859
(dp860
g18
I1
sg19
I0
sg20
I0
sg21
I0
sg22
I0
sg23
I0
sg24
I0
sbssg25
S'\xb0\xc8pN\xaf>\xa0\xbaz\x144\xe0A9\xb8?'
p861
ssS'_Library_Python_2_7_site-packages_django_contrib_admin_sites'
p862
(dp863
g40
(dp864
g8
S'_Library_Python_2_7_site-packages_django_contrib_admin_sites.html'
p865
sg10
S'/Library/Python/2.7/site-packages/django/contrib/admin/sites'
p866
sg12
g13
(g14
g15
NtRp867
(dp868
g18
I1
sg19
I0
sg20
I203
sg21
I0
sg22
I0
sg23
I146
sg24
I0
sbssg46
S'Mu\xc1\xf3\xa4\xd9D%Sd\xae\x1e\xcetA\x13'
p869
ssS'_Library_Python_2_7_site-packages_pytz_tzfile'
p870
(dp871
g6
(dp872
g8
S'_Library_Python_2_7_site-packages_pytz_tzfile.html'
p873
sg10
S'/Library/Python/2.7/site-packages/pytz/tzfile'
p874
sg12
g13
(g14
g15
NtRp875
(dp876
g18
I1
sg19
I0
sg20
I81
sg21
I0
sg22
I0
sg23
I18
sg24
I0
sbssg25
S'\xa5\xcd\\>\xec\x1f1p\x01\x0c\x86\x93\x16\x8bI\xb3'
p877
ssS'_Library_Python_2_7_site-packages_django_core_files_base'
p878
(dp879
g6
(dp880
g51
S'_Library_Python_2_7_site-packages_django_core_files_base.html'
p881
sg53
S'/Library/Python/2.7/site-packages/django/core/files/base'
p882
sg55
g13
(g14
g15
NtRp883
(dp884
g18
I1
sg19
I0
sg20
I90
sg21
I0
sg22
I0
sg23
I59
sg24
I0
sbssg25
S'w\x89\xd9X\xe9\xd8\xac\x9b\xd1\xb9\xbc\xa3\xe5\xa3\xa1x'
p885
ssS'_Library_Python_2_7_site-packages_django_core_management_commands_loaddata'
p886
(dp887
g40
(dp888
g8
S'_Library_Python_2_7_site-packages_django_core_management_commands_loaddata.html'
p889
sg10
S'/Library/Python/2.7/site-packages/django/core/management/commands/loaddata'
p890
sg12
g13
(g14
g15
NtRp891
(dp892
g18
I1
sg19
I0
sg20
I163
sg21
I0
sg22
I0
sg23
I141
sg24
I0
sbssg46
S'\xcb?\xf1\x84j\x90\x15\xefx\xfc8\x93+\xd4\x81)'
p893
ssS'_Library_Python_2_7_site-packages_django_template_smartif'
p894
(dp895
g6
(dp896
g51
S'_Library_Python_2_7_site-packages_django_template_smartif.html'
p897
sg53
S'/Library/Python/2.7/site-packages/django/template/smartif'
p898
sg55
g13
(g14
g15
NtRp899
(dp900
g18
I1
sg19
I0
sg20
I104
sg21
I0
sg22
I0
sg23
I61
sg24
I0
sbssg25
S'\xdd)I\xf1\xfb\xd4\xfe\x86hd0\x89\x8a|\xf9\x8a'
p901
ssS'_Library_Python_2_7_site-packages_django_db_models_sql_aggregates'
p902
(dp903
g6
(dp904
g51
S'_Library_Python_2_7_site-packages_django_db_models_sql_aggregates.html'
p905
sg53
S'/Library/Python/2.7/site-packages/django/db/models/sql/aggregates'
p906
sg55
g13
(g14
g15
NtRp907
(dp908
g18
I1
sg19
I0
sg20
I57
sg21
I0
sg22
I0
sg23
I27
sg24
I0
sbssg25
S'"\xd6\xd4\x0f\xa9\xc7/\xabr\x93@\x0b\x90p\xca\xdf'
p909
ssS'_Library_Python_2_7_site-packages_django_shortcuts___init__'
p910
(dp911
g40
(dp912
g8
S'_Library_Python_2_7_site-packages_django_shortcuts___init__.html'
p913
sg10
S'/Library/Python/2.7/site-packages/django/shortcuts/__init__'
p914
sg12
g13
(g14
g15
NtRp915
(dp916
g18
I1
sg19
I0
sg20
I52
sg21
I0
sg22
I0
sg23
I40
sg24
I0
sbssg46
S'\x0e\xab\xe7\xd7E\x98"9p\x14;\xae\x11@l\x7f'
p917
ssS'_Library_Python_2_7_site-packages_django_views_decorators_csrf'
p918
(dp919
g40
(dp920
g8
S'_Library_Python_2_7_site-packages_django_views_decorators_csrf.html'
p921
sg10
S'/Library/Python/2.7/site-packages/django/views/decorators/csrf'
p922
sg12
g13
(g14
g15
NtRp923
(dp924
g18
I1
sg19
I0
sg20
I34
sg21
I0
sg22
I0
sg23
I9
sg24
I0
sbssg46
S'*\xd8+Z\xa9\xf5\x97\xcf\x98o\x88\x910\xe1T\x96'
p925
ssS'_Library_Python_2_7_site-packages_pytz___init__'
p926
(dp927
g6
(dp928
S'html_filename'
p929
S'_Library_Python_2_7_site-packages_pytz___init__.html'
p930
sS'name'
p931
S'/Library/Python/2.7/site-packages/pytz/__init__'
p932
sS'nums'
p933
g13
(g14
g15
NtRp934
(dp935
g18
I1
sg19
I0
sg20
I206
sg21
I0
sg22
I0
sg23
I104
sg24
I0
sbssg25
S'0.\xfcb\xb3\x8f\xb9\xa6=\x8a\xc6\xf2:\xb1\r\xd4'
p936
ssS'_Library_Python_2_7_site-packages_django_contrib_sites_management'
p937
(dp938
g40
(dp939
g8
S'_Library_Python_2_7_site-packages_django_contrib_sites_management.html'
p940
sg10
S'/Library/Python/2.7/site-packages/django/contrib/sites/management'
p941
sg12
g13
(g14
g15
NtRp942
(dp943
g18
I1
sg19
I0
sg20
I20
sg21
I0
sg22
I0
sg23
I2
sg24
I0
sbssg46
S'\xe1\xdc;QH^g.v\x17\x19\x0e\xad\xd9\x96\xdc'
p944
ssS'_Library_Python_2_7_site-packages_django_core_cache_backends_base'
p945
(dp946
g6
(dp947
g51
S'_Library_Python_2_7_site-packages_django_core_cache_backends_base.html'
p948
sg53
S'/Library/Python/2.7/site-packages/django/core/cache/backends/base'
p949
sg55
g13
(g14
g15
NtRp950
(dp951
g18
I1
sg19
I0
sg20
I99
sg21
I0
sg22
I0
sg23
I54
sg24
I0
sbssg25
S'#J\xfe\x1c\xfd\x80\xd1t9\x81\xdc\x9b\xcf\xc9\xd6\xeb'
p952
ssS'_Library_Python_2_7_site-packages_django_utils_encoding'
p953
(dp954
g6
(dp955
g8
S'_Library_Python_2_7_site-packages_django_utils_encoding.html'
p956
sg10
S'/Library/Python/2.7/site-packages/django/utils/encoding'
p957
sg12
g13
(g14
g15
NtRp958
(dp959
g18
I1
sg19
I0
sg20
I82
sg21
I0
sg22
I0
sg23
I34
sg24
I0
sbssg25
S'\xe5]\x9e(\xfc\x0bk\x90\xbf\n\xc8\xb0T\x16c\xe3'
p960
ssS'_Library_Python_2_7_site-packages_django_db_backends_postgresql_psycopg2___init__'
p961
(dp962
g6
(dp963
g51
S'_Library_Python_2_7_site-packages_django_db_backends_postgresql_psycopg2___init__.html'
p964
sg53
S'/Library/Python/2.7/site-packages/django/db/backends/postgresql_psycopg2/__init__'
p965
sg55
g13
(g14
g15
NtRp966
(dp967
g18
I1
sg19
I0
sg20
I0
sg21
I0
sg22
I0
sg23
I0
sg24
I0
sbssg25
S'\xb0\xc8pN\xaf>\xa0\xbaz\x144\xe0A9\xb8?'
p968
ssS'_Library_Python_2_7_site-packages_django_template_context'
p969
(dp970
g6
(dp971
g51
S'_Library_Python_2_7_site-packages_django_template_context.html'
p972
sg53
S'/Library/Python/2.7/site-packages/django/template/context'
p973
sg55
g13
(g14
g15
NtRp974
(dp975
g18
I1
sg19
I0
sg20
I111
sg21
I0
sg22
I0
sg23
I78
sg24
I0
sbssg25
S"\x9b\xe5\x82$\xa9\x97\xdeD\x9f'6\n\xa2\xdcU\xb5"
p976
ssS'carpoolapp_models'
p977
(dp978
g40
(dp979
g30
S'carpoolapp_models.html'
p980
sg32
S'carpoolapp/models'
p981
sg34
g13
(g14
g15
NtRp982
(dp983
g18
I1
sg19
I0
sg20
I173
sg21
I0
sg22
I0
sg23
I49
sg24
I0
sbssg46
S'\x8f\xef[\xbb\xd3yr\ty[\xac\x97\xa6\xf9\xdd\xcc'
p984
ssS'_Library_Python_2_7_site-packages_django_utils_formats'
p985
(dp986
g6
(dp987
g8
S'_Library_Python_2_7_site-packages_django_utils_formats.html'
p988
sg10
S'/Library/Python/2.7/site-packages/django/utils/formats'
p989
sg12
g13
(g14
g15
NtRp990
(dp991
g18
I1
sg19
I0
sg20
I108
sg21
I0
sg22
I0
sg23
I54
sg24
I0
sbssg25
S'R\x02|\xdd[\xba\xaet\xb11\x03\xbb\xf9\x0f\x1b\xe2'
p992
ssS'_Library_Python_2_7_site-packages_django_db_utils'
p993
(dp994
g6
(dp995
g8
S'_Library_Python_2_7_site-packages_django_db_utils.html'
p996
sg10
S'/Library/Python/2.7/site-packages/django/db/utils'
p997
sg12
g13
(g14
g15
NtRp998
(dp999
g18
I1
sg19
I0
sg20
I120
sg21
I0
sg22
I0
sg23
I58
sg24
I0
sbssg25
S'Sv\xb3q\x8e\xc4p\xf3\xddK\xa8I\x86\xb1\xee\xa9'
p1000
ssS'_Library_Python_2_7_site-packages_django_core_management_commands___init__'
p1001
(dp1002
g6
(dp1003
g51
S'_Library_Python_2_7_site-packages_django_core_management_commands___init__.html'
p1004
sg53
S'/Library/Python/2.7/site-packages/django/core/management/commands/__init__'
p1005
sg55
g13
(g14
g15
NtRp1006
(dp1007
g18
I1
sg19
I0
sg20
I0
sg21
I0
sg22
I0
sg23
I0
sg24
I0
sbssg25
S'\xb0\xc8pN\xaf>\xa0\xbaz\x144\xe0A9\xb8?'
p1008
ssS'_Library_Python_2_7_site-packages_django_db_models_fields_related'
p1009
(dp1010
g6
(dp1011
g8
S'_Library_Python_2_7_site-packages_django_db_models_fields_related.html'
p1012
sg10
S'/Library/Python/2.7/site-packages/django/db/models/fields/related'
p1013
sg12
g13
(g14
g15
NtRp1014
(dp1015
g18
I1
sg19
I0
sg20
I713
sg21
I0
sg22
I0
sg23
I406
sg24
I0
sbssg25
S'\x8e0\x9alt\xa6n\x8c\xc04 \x85D\xd6n;'
p1016
ssS'_Library_Python_2_7_site-packages_django_utils_numberformat'
p1017
(dp1018
g6
(dp1019
g51
S'_Library_Python_2_7_site-packages_django_utils_numberformat.html'
p1020
sg53
S'/Library/Python/2.7/site-packages/django/utils/numberformat'
p1021
sg55
g13
(g14
g15
NtRp1022
(dp1023
g18
I1
sg19
I0
sg20
I31
sg21
I0
sg22
I0
sg23
I28
sg24
I0
sbssg25
S't\x93m\x81b\xf9\x03K\xc5\xb4a\xde\xfff \xd7'
p1024
ssS'_Library_Python_2_7_site-packages_django_contrib___init__'
p1025
(dp1026
g6
(dp1027
g51
S'_Library_Python_2_7_site-packages_django_contrib___init__.html'
p1028
sg53
S'/Library/Python/2.7/site-packages/django/contrib/__init__'
p1029
sg55
g13
(g14
g15
NtRp1030
(dp1031
g18
I1
sg19
I0
sg20
I0
sg21
I0
sg22
I0
sg23
I0
sg24
I0
sbssg25
S'\xb0\xc8pN\xaf>\xa0\xbaz\x144\xe0A9\xb8?'
p1032
ssS'_Library_Python_2_7_site-packages_django_contrib_admin_templatetags_admin_static'
p1033
(dp1034
g40
(dp1035
g8
S'_Library_Python_2_7_site-packages_django_contrib_admin_templatetags_admin_static.html'
p1036
sg10
S'/Library/Python/2.7/site-packages/django/contrib/admin/templatetags/admin_static'
p1037
sg12
g13
(g14
g15
NtRp1038
(dp1039
g18
I1
sg19
I0
sg20
I7
sg21
I0
sg22
I0
sg23
I1
sg24
I0
sbssg46
S'\x99{\xd7\xbc\xa3W\x085\xed$9\xd94r\xea\x15'
p1040
ssS'_Library_Python_2_7_site-packages_django_contrib_staticfiles_management___init__'
p1041
(dp1042
g40
(dp1043
g8
S'_Library_Python_2_7_site-packages_django_contrib_staticfiles_management___init__.html'
p1044
sg10
S'/Library/Python/2.7/site-packages/django/contrib/staticfiles/management/__init__'
p1045
sg12
g13
(g14
g15
NtRp1046
(dp1047
g18
I1
sg19
I0
sg20
I0
sg21
I0
sg22
I0
sg23
I0
sg24
I0
sbssg46
S'\xb0\xc8pN\xaf>\xa0\xbaz\x144\xe0A9\xb8?'
p1048
ssS'_Library_Python_2_7_site-packages_django_db_backends_postgresql_psycopg2_client'
p1049
(dp1050
g6
(dp1051
g51
S'_Library_Python_2_7_site-packages_django_db_backends_postgresql_psycopg2_client.html'
p1052
sg53
S'/Library/Python/2.7/site-packages/django/db/backends/postgresql_psycopg2/client'
p1053
sg55
g13
(g14
g15
NtRp1054
(dp1055
g18
I1
sg19
I0
sg20
I18
sg21
I0
sg22
I0
sg23
I12
sg24
I0
sbssg25
S'\xaa[\x13W\x00\x11m\xb4\xd2717LZ\x00M'
p1056
ssS'_Library_Python_2_7_site-packages_south_migration___init__'
p1057
(dp1058
g40
(dp1059
g8
S'_Library_Python_2_7_site-packages_south_migration___init__.html'
p1060
sg10
S'/Library/Python/2.7/site-packages/south/migration/__init__'
p1061
sg12
g13
(g14
g15
NtRp1062
(dp1063
g18
I1
sg19
I0
sg20
I152
sg21
I0
sg22
I0
sg23
I129
sg24
I0
sbssg46
S'\xd2X\xf6S\x03\xd9\x1a}\x1f\xad0X\x14FI\x99'
p1064
ssS'_Library_Python_2_7_site-packages_django_dispatch_dispatcher'
p1065
(dp1066
g6
(dp1067
g8
S'_Library_Python_2_7_site-packages_django_dispatch_dispatcher.html'
p1068
sg10
S'/Library/Python/2.7/site-packages/django/dispatch/dispatcher'
p1069
sg12
g13
(g14
g15
NtRp1070
(dp1071
g18
I1
sg19
I0
sg20
I101
sg21
I0
sg22
I0
sg23
I45
sg24
I0
sbssg25
S'S\xca\xfe\x8e\xc3Q\r\xc6K\xabIi\x11\xda\x9e#'
p1072
ssS'_Library_Python_2_7_site-packages_django_views_decorators_cache'
p1073
(dp1074
g40
(dp1075
g8
S'_Library_Python_2_7_site-packages_django_views_decorators_cache.html'
p1076
sg10
S'/Library/Python/2.7/site-packages/django/views/decorators/cache'
p1077
sg12
g13
(g14
g15
NtRp1078
(dp1079
g18
I1
sg19
I0
sg20
I40
sg21
I0
sg22
I0
sg23
I31
sg24
I0
sbssg46
S'\x02B\x80\x13a\x16\x1dq\xc1oy\xd0\x0e\x1c\x7fW'
p1080
ssS'_Library_Python_2_7_site-packages_psycopg2___init__'
p1081
(dp1082
g6
(dp1083
g8
S'_Library_Python_2_7_site-packages_psycopg2___init__.html'
p1084
sg10
S'/Library/Python/2.7/site-packages/psycopg2/__init__'
p1085
sg12
g13
(g14
g15
NtRp1086
(dp1087
g18
I1
sg19
I0
sg20
I60
sg21
I0
sg22
I0
sg23
I13
sg24
I0
sbssg25
S'\xbe\x94$\x91cq\x9a\xf0\xb56\x8e\xcaw\xc7{X'
p1088
ssS'carpoolapp_googlemaps'
p1089
(dp1090
g40
(dp1091
g8
S'carpoolapp_googlemaps.html'
p1092
sg10
S'carpoolapp/googlemaps'
p1093
sg12
g13
(g14
g15
NtRp1094
(dp1095
g18
I1
sg19
I0
sg20
I106
sg21
I0
sg22
I0
sg23
I69
sg24
I0
sbssg46
S'%\x94\x00\xfa\xf9\xbc\xc2b\xd7\xda\xb8\x15I\xdc\xbe!'
p1096
ssS'_Library_Python_2_7_site-packages_django_dispatch___init__'
p1097
(dp1098
g6
(dp1099
g51
S'_Library_Python_2_7_site-packages_django_dispatch___init__.html'
p1100
sg53
S'/Library/Python/2.7/site-packages/django/dispatch/__init__'
p1101
sg55
g13
(g14
g15
NtRp1102
(dp1103
g18
I1
sg19
I0
sg20
I1
sg21
I0
sg22
I0
sg23
I0
sg24
I0
sbssg25
S'\xe9$\xa4\xf3k\xc7$G\xbe^\x9e5~A\x94\xd1'
p1104
ssS'_Library_Python_2_7_site-packages_django_db_models_sql_datastructures'
p1105
(dp1106
g6
(dp1107
g51
S'_Library_Python_2_7_site-packages_django_db_models_sql_datastructures.html'
p1108
sg53
S'/Library/Python/2.7/site-packages/django/db/models/sql/datastructures'
p1109
sg55
g13
(g14
g15
NtRp1110
(dp1111
g18
I1
sg19
I0
sg20
I25
sg21
I0
sg22
I0
sg23
I11
sg24
I0
sbssg25
S"\xab\x99\\\xa2\x90\x03\x16\xdf\xd8p\x82'\xa1\xd3\x8ct"
p1112
ssS'_Library_Python_2_7_site-packages_django_utils_unittest___init__'
p1113
(dp1114
g6
(dp1115
g51
S'_Library_Python_2_7_site-packages_django_utils_unittest___init__.html'
p1116
sg53
S'/Library/Python/2.7/site-packages/django/utils/unittest/__init__'
p1117
sg55
g13
(g14
g15
NtRp1118
(dp1119
g18
I1
sg19
I0
sg20
I23
sg21
I0
sg22
I0
sg23
I17
sg24
I0
sbssg25
S'\xccP\x9c\xf4\x9b(\x7f#1\xb9\xe3X7\xb4\xe6B'
p1120
ssS'_Library_Python_2_7_site-packages_django_db_transaction'
p1121
(dp1122
g6
(dp1123
g8
S'_Library_Python_2_7_site-packages_django_db_transaction.html'
p1124
sg10
S'/Library/Python/2.7/site-packages/django/db/transaction'
p1125
sg12
g13
(g14
g15
NtRp1126
(dp1127
g18
I1
sg19
I0
sg20
I131
sg21
I0
sg22
I0
sg23
I70
sg24
I0
sbssg25
S'M\xc23e\xb0y\xd0\xa21\xb6M>A*u\x15'
p1128
ssS'_Library_Python_2_7_site-packages_django_db_models_related'
p1129
(dp1130
g6
(dp1131
g8
S'_Library_Python_2_7_site-packages_django_db_models_related.html'
p1132
sg10
S'/Library/Python/2.7/site-packages/django/db/models/related'
p1133
sg12
g13
(g14
g15
NtRp1134
(dp1135
g18
I1
sg19
I0
sg20
I41
sg21
I0
sg22
I0
sg23
I17
sg24
I0
sbssg25
S'\x01\xed\xbb\xef\xa5\xbe\xb0\xfd\xe7\x006\xbd\xc1=\x9a)'
p1136
ssS'manage'
p1137
(dp1138
g6
(dp1139
g51
S'manage.html'
p1140
sg53
g1137
sg55
g13
(g14
g15
NtRp1141
(dp1142
g18
I1
sg19
I0
sg20
I6
sg21
I0
sg22
I0
sg23
I0
sg24
I0
sbssg25
S'\x80\x94\xf5\xd5\x11\x194\xbd$\xa6%\xe1e\x0c\x17\x15'
p1143
ssS'_Library_Python_2_7_site-packages_django_utils_datastructures'
p1144
(dp1145
g6
(dp1146
g8
S'_Library_Python_2_7_site-packages_django_utils_datastructures.html'
p1147
sg10
S'/Library/Python/2.7/site-packages/django/utils/datastructures'
p1148
sg12
g13
(g14
g15
NtRp1149
(dp1150
g18
I1
sg19
I0
sg20
I292
sg21
I0
sg22
I0
sg23
I159
sg24
I0
sbssg25
S'[\x14E\xb4\xb6\xa5\x99\xe8ge\x9b/\x1e<ww'
p1151
ssS'carpoolapp___init__'
p1152
(dp1153
g40
(dp1154
g8
S'carpoolapp___init__.html'
p1155
sg10
S'carpoolapp/__init__'
p1156
sg12
g13
(g14
g15
NtRp1157
(dp1158
g18
I1
sg19
I0
sg20
I0
sg21
I0
sg22
I0
sg23
I0
sg24
I0
sbssg46
S'\xb0\xc8pN\xaf>\xa0\xbaz\x144\xe0A9\xb8?'
p1159
ssS'_Library_Python_2_7_site-packages_django_contrib_admin_actions'
p1160
(dp1161
g40
(dp1162
g8
S'_Library_Python_2_7_site-packages_django_contrib_admin_actions.html'
p1163
sg10
S'/Library/Python/2.7/site-packages/django/contrib/admin/actions'
p1164
sg12
g13
(g14
g15
NtRp1165
(dp1166
g18
I1
sg19
I0
sg20
I34
sg21
I0
sg22
I0
sg23
I25
sg24
I0
sbssg46
S'!\xc3\xbf\x11\xd1\xcc\x7fa\xf0\x1d\xaep\xafI\xf5\x0b'
p1167
ssS'_Library_Python_2_7_site-packages_django_db_models_fields___init__'
p1168
(dp1169
g6
(dp1170
g378
S'_Library_Python_2_7_site-packages_django_db_models_fields___init__.html'
p1171
sg380
S'/Library/Python/2.7/site-packages/django/db/models/fields/__init__'
p1172
sg382
g13
(g14
g15
NtRp1173
(dp1174
g18
I1
sg19
I0
sg20
I778
sg21
I0
sg22
I0
sg23
I372
sg24
I0
sbssg25
S'3g4\xc1/>/\xf4\x9eC\xae\x91{[qP'
p1175
ssS'_Library_Python_2_7_site-packages_django_utils_synch'
p1176
(dp1177
g6
(dp1178
g51
S'_Library_Python_2_7_site-packages_django_utils_synch.html'
p1179
sg53
S'/Library/Python/2.7/site-packages/django/utils/synch'
p1180
sg55
g13
(g14
g15
NtRp1181
(dp1182
g18
I1
sg19
I0
sg20
I60
sg21
I0
sg22
I0
sg23
I41
sg24
I0
sbssg25
S'\xda\xed\xb8;\x18\xf0IL\xc7`[\xdd\xd9\xde\xb4e'
p1183
ssS'_Library_Python_2_7_site-packages_south_db_generic'
p1184
(dp1185
g40
(dp1186
g8
S'_Library_Python_2_7_site-packages_south_db_generic.html'
p1187
sg10
S'/Library/Python/2.7/site-packages/south/db/generic'
p1188
sg12
g13
(g14
g15
NtRp1189
(dp1190
g18
I1
sg19
I0
sg20
I569
sg21
I0
sg22
I0
sg23
I438
sg24
I0
sbssg46
S".^R\xe1\xa7'p\xecP*[\xa0\xb6\xa2\xfeL"
p1191
ssS'_Library_Python_2_7_site-packages_django_core_handlers___init__'
p1192
(dp1193
g6
(dp1194
g51
S'_Library_Python_2_7_site-packages_django_core_handlers___init__.html'
p1195
sg53
S'/Library/Python/2.7/site-packages/django/core/handlers/__init__'
p1196
sg55
g13
(g14
g15
NtRp1197
(dp1198
g18
I1
sg19
I0
sg20
I0
sg21
I0
sg22
I0
sg23
I0
sg24
I0
sbssg25
S'\xb0\xc8pN\xaf>\xa0\xbaz\x144\xe0A9\xb8?'
p1199
ssS'_Library_Python_2_7_site-packages_django_contrib_sessions___init__'
p1200
(dp1201
g40
(dp1202
g8
S'_Library_Python_2_7_site-packages_django_contrib_sessions___init__.html'
p1203
sg10
S'/Library/Python/2.7/site-packages/django/contrib/sessions/__init__'
p1204
sg12
g13
(g14
g15
NtRp1205
(dp1206
g18
I1
sg19
I0
sg20
I0
sg21
I0
sg22
I0
sg23
I0
sg24
I0
sbssg46
S'\xb0\xc8pN\xaf>\xa0\xbaz\x144\xe0A9\xb8?'
p1207
ssS'_Library_Python_2_7_site-packages_django_utils_http'
p1208
(dp1209
g6
(dp1210
g51
S'_Library_Python_2_7_site-packages_django_utils_http.html'
p1211
sg53
S'/Library/Python/2.7/site-packages/django/utils/http'
p1212
sg55
g13
(g14
g15
NtRp1213
(dp1214
g18
I1
sg19
I0
sg20
I115
sg21
I0
sg22
I0
sg23
I74
sg24
I0
sbssg25
S"\x81\x9f&\xec\x13\x05\x0b\xce\x99\x8a\xa4\x82'`\xf2\x9c"
p1215
ssS'_Library_Python_2_7_site-packages_south_hacks___init__'
p1216
(dp1217
g40
(dp1218
g8
S'_Library_Python_2_7_site-packages_south_hacks___init__.html'
p1219
sg10
S'/Library/Python/2.7/site-packages/south/hacks/__init__'
p1220
sg12
g13
(g14
g15
NtRp1221
(dp1222
g18
I1
sg19
I0
sg20
I2
sg21
I0
sg22
I0
sg23
I0
sg24
I0
sbssg46
S'\xe8V3k\xb0\xad\xbb\xda\xbeP\x9d]y\xd9\xfcT'
p1223
ssS'_Library_Python_2_7_site-packages_django_utils_itercompat'
p1224
(dp1225
g6
(dp1226
g51
S'_Library_Python_2_7_site-packages_django_utils_itercompat.html'
p1227
sg53
S'/Library/Python/2.7/site-packages/django/utils/itercompat'
p1228
sg55
g13
(g14
g15
NtRp1229
(dp1230
g18
I1
sg19
I0
sg20
I24
sg21
I0
sg22
I0
sg23
I15
sg24
I0
sbssg25
S'OXMhC\xbe8\xb9E{b\x17w\xbf\xa2~'
p1231
ssS'_Library_Python_2_7_site-packages_django_db_models_loading'
p1232
(dp1233
g6
(dp1234
g8
S'_Library_Python_2_7_site-packages_django_db_models_loading.html'
p1235
sg10
S'/Library/Python/2.7/site-packages/django/db/models/loading'
p1236
sg12
g13
(g14
g15
NtRp1237
(dp1238
g18
I1
sg19
I0
sg20
I119
sg21
I0
sg22
I0
sg23
I21
sg24
I0
sbssg25
S"\xf9\xacF\xab\x13j\xfe'|\xc6\x90\xea\x97]q\xb3"
p1239
ssS'_Library_Python_2_7_site-packages_django_conf_global_settings'
p1240
(dp1241
g6
(dp1242
g51
S'_Library_Python_2_7_site-packages_django_conf_global_settings.html'
p1243
sg53
S'/Library/Python/2.7/site-packages/django/conf/global_settings'
p1244
sg55
g13
(g14
g15
NtRp1245
(dp1246
g18
I1
sg19
I0
sg20
I118
sg21
I0
sg22
I0
sg23
I0
sg24
I0
sbssg25
S'\xba\x06~\xde\x10?\xd3q\xeb#i&\x19H\xe2l'
p1247
ssS'_Library_Python_2_7_site-packages_django_contrib_messages___init__'
p1248
(dp1249
g40
(dp1250
g8
S'_Library_Python_2_7_site-packages_django_contrib_messages___init__.html'
p1251
sg10
S'/Library/Python/2.7/site-packages/django/contrib/messages/__init__'
p1252
sg12
g13
(g14
g15
NtRp1253
(dp1254
g18
I1
sg19
I0
sg20
I3
sg21
I0
sg22
I0
sg23
I0
sg24
I0
sbssg46
S'\x01~\xb7\xc9ZD\xe5N\xc3\x01\xc2\x94u\x0b`\x9e'
p1255
ssS'_Library_Python_2_7_site-packages_django_contrib_sessions_backends_base'
p1256
(dp1257
g40
(dp1258
g8
S'_Library_Python_2_7_site-packages_django_contrib_sessions_backends_base.html'
p1259
sg10
S'/Library/Python/2.7/site-packages/django/contrib/sessions/backends/base'
p1260
sg12
g13
(g14
g15
NtRp1261
(dp1262
g18
I1
sg19
I0
sg20
I160
sg21
I0
sg22
I0
sg23
I104
sg24
I0
sbssg46
S'r\x1ed\xed\xe2u\x92g\xd3}\xf3\x7f\xae:AK'
p1263
ssS'_Library_Python_2_7_site-packages_django_core_management_color'
p1264
(dp1265
g6
(dp1266
g8
S'_Library_Python_2_7_site-packages_django_core_management_color.html'
p1267
sg10
S'/Library/Python/2.7/site-packages/django/core/management/color'
p1268
sg12
g13
(g14
g15
NtRp1269
(dp1270
g18
I1
sg19
I0
sg20
I28
sg21
I0
sg22
I0
sg23
I3
sg24
I0
sbssg25
S'\x1f\x18m\xdf\x9b&\x90\xbe\xf5\x15C\x10\x8e\x16\xcd\xc4'
p1271
ssS'_Library_Python_2_7_site-packages_django_core_serializers_python'
p1272
(dp1273
g40
(dp1274
g8
S'_Library_Python_2_7_site-packages_django_core_serializers_python.html'
p1275
sg10
S'/Library/Python/2.7/site-packages/django/core/serializers/python'
p1276
sg12
g13
(g14
g15
NtRp1277
(dp1278
g18
I1
sg19
I0
sg20
I78
sg21
I0
sg22
I0
sg23
I62
sg24
I0
sbssg46
S'\xe1\xe7\x12\xa2\xca\xdc\xf5\xa3DW\x8f\x1b\x816H\xe3'
p1279
ssS'_Library_Python_2_7_site-packages_django_contrib_messages_api'
p1280
(dp1281
g40
(dp1282
g8
S'_Library_Python_2_7_site-packages_django_contrib_messages_api.html'
p1283
sg10
S'/Library/Python/2.7/site-packages/django/contrib/messages/api'
p1284
sg12
g13
(g14
g15
NtRp1285
(dp1286
g18
I1
sg19
I0
sg20
I34
sg21
I0
sg22
I0
sg23
I20
sg24
I0
sbssg46
S'i\xb5\x8fk2\x89\xf2JF0\xfa\xd1z\x05\xaf\xe5'
p1287
ssS'_Library_Python_2_7_site-packages_django_utils_dateparse'
p1288
(dp1289
g6
(dp1290
g51
S'_Library_Python_2_7_site-packages_django_utils_dateparse.html'
p1291
sg53
S'/Library/Python/2.7/site-packages/django/utils/dateparse'
p1292
sg55
g13
(g14
g15
NtRp1293
(dp1294
g18
I1
sg19
I0
sg20
I37
sg21
I0
sg22
I0
sg23
I27
sg24
I0
sbssg25
S'\xf9]\xb0\xe3\xc6\x83\xc7\xfa\x95\x83<<\x8e0\xa2\x11'
p1295
ssS'_Library_Python_2_7_site-packages_south_management___init__'
p1296
(dp1297
g40
(dp1298
g8
S'_Library_Python_2_7_site-packages_south_management___init__.html'
p1299
sg10
S'/Library/Python/2.7/site-packages/south/management/__init__'
p1300
sg12
g13
(g14
g15
NtRp1301
(dp1302
g18
I1
sg19
I0
sg20
I0
sg21
I0
sg22
I0
sg23
I0
sg24
I0
sbssg46
S'\xb0\xc8pN\xaf>\xa0\xbaz\x144\xe0A9\xb8?'
p1303
ssS'_Library_Python_2_7_site-packages_django_views___init__'
p1304
(dp1305
g6
(dp1306
g51
S'_Library_Python_2_7_site-packages_django_views___init__.html'
p1307
sg53
S'/Library/Python/2.7/site-packages/django/views/__init__'
p1308
sg55
g13
(g14
g15
NtRp1309
(dp1310
g18
I1
sg19
I0
sg20
I0
sg21
I0
sg22
I0
sg23
I0
sg24
I0
sbssg25
S'\xb0\xc8pN\xaf>\xa0\xbaz\x144\xe0A9\xb8?'
p1311
ssS'_Library_Python_2_7_site-packages_django_utils_module_loading'
p1312
(dp1313
g6
(dp1314
g51
S'_Library_Python_2_7_site-packages_django_utils_module_loading.html'
p1315
sg53
S'/Library/Python/2.7/site-packages/django/utils/module_loading'
p1316
sg55
g13
(g14
g15
NtRp1317
(dp1318
g18
I1
sg19
I0
sg20
I48
sg21
I0
sg22
I0
sg23
I44
sg24
I0
sbssg25
S'\x81\xbe\xb4\xca\xff\xe8Z\x15]\x06\xfc\xf1\xc4\xd9\x9a;'
p1319
ssS'_Library_Python_2_7_site-packages_django_contrib_sessions_backends_db'
p1320
(dp1321
g40
(dp1322
g8
S'_Library_Python_2_7_site-packages_django_contrib_sessions_backends_db.html'
p1323
sg10
S'/Library/Python/2.7/site-packages/django/contrib/sessions/backends/db'
p1324
sg12
g13
(g14
g15
NtRp1325
(dp1326
g18
I1
sg19
I0
sg20
I48
sg21
I0
sg22
I0
sg23
I35
sg24
I0
sbssg46
S'\xa8\xfcSLV\x1eW\x07\x8e\x07\xe0H\xb4\xfd\xb2\xaa'
p1327
ssS'_Library_Python_2_7_site-packages_django_core_handlers_wsgi'
p1328
(dp1329
g6
(dp1330
g51
S'_Library_Python_2_7_site-packages_django_core_handlers_wsgi.html'
p1331
sg53
S'/Library/Python/2.7/site-packages/django/core/handlers/wsgi'
p1332
sg55
g13
(g14
g15
NtRp1333
(dp1334
g18
I1
sg19
I0
sg20
I142
sg21
I0
sg22
I0
sg23
I103
sg24
I0
sbssg25
S'\xa83\xcc]\xf1\xe5\xea,\xf9m+\xb2l\x89&V'
p1335
ssS'_Library_Python_2_7_site-packages_django_core_management_commands_test'
p1336
(dp1337
g6
(dp1338
g150
S'_Library_Python_2_7_site-packages_django_core_management_commands_test.html'
p1339
sg152
S'/Library/Python/2.7/site-packages/django/core/management/commands/test'
p1340
sg154
g13
(g14
g15
NtRp1341
(dp1342
g18
I1
sg19
I0
sg20
I37
sg21
I0
sg22
I0
sg23
I5
sg24
I0
sbssg25
S'\xbf\x7f\xf75F!\xdb\xb2\xb5\xf1V\xa5a\xd1\x86\x8f'
p1343
ssS'_Library_Python_2_7_site-packages_django_views_decorators___init__'
p1344
(dp1345
g40
(dp1346
g8
S'_Library_Python_2_7_site-packages_django_views_decorators___init__.html'
p1347
sg10
S'/Library/Python/2.7/site-packages/django/views/decorators/__init__'
p1348
sg12
g13
(g14
g15
NtRp1349
(dp1350
g18
I1
sg19
I0
sg20
I0
sg21
I0
sg22
I0
sg23
I0
sg24
I0
sbssg46
S'\xb0\xc8pN\xaf>\xa0\xbaz\x144\xe0A9\xb8?'
p1351
ssS'_Library_Python_2_7_site-packages_django_core_wsgi'
p1352
(dp1353
g6
(dp1354
g51
S'_Library_Python_2_7_site-packages_django_core_wsgi.html'
p1355
sg53
S'/Library/Python/2.7/site-packages/django/core/wsgi'
p1356
sg55
g13
(g14
g15
NtRp1357
(dp1358
g18
I1
sg19
I0
sg20
I3
sg21
I0
sg22
I0
sg23
I1
sg24
I0
sbssg25
S' \x0e\x1b\xd1D\xd0\x13<c\x84?v\xdf\xd1\xf8\x84'
p1359
ssS'_Library_Python_2_7_site-packages_django_utils_dateformat'
p1360
(dp1361
g6
(dp1362
g51
S'_Library_Python_2_7_site-packages_django_utils_dateformat.html'
p1363
sg53
S'/Library/Python/2.7/site-packages/django/utils/dateformat'
p1364
sg55
g13
(g14
g15
NtRp1365
(dp1366
g18
I1
sg19
I0
sg20
I179
sg21
I0
sg22
I0
sg23
I119
sg24
I0
sbssg25
S'\xdc\xcf>\x08@dl\xf9\xb7\x16\x8bmQ\x05\x80?'
p1367
ssS'_Library_Python_2_7_site-packages_django_contrib_staticfiles_utils'
p1368
(dp1369
g6
(dp1370
g51
S'_Library_Python_2_7_site-packages_django_contrib_staticfiles_utils.html'
p1371
sg53
S'/Library/Python/2.7/site-packages/django/contrib/staticfiles/utils'
p1372
sg55
g13
(g14
g15
NtRp1373
(dp1374
g18
I1
sg19
I0
sg20
I37
sg21
I0
sg22
I0
sg23
I30
sg24
I0
sbssg25
S'Q\x99\xe3\x98\xf4\xbc\tTg\xbc\xed\xbd\\\xf9Q\xdd'
p1375
ssS'_Library_Python_2_7_site-packages_django_contrib_staticfiles_storage'
p1376
(dp1377
g6
(dp1378
g51
S'_Library_Python_2_7_site-packages_django_contrib_staticfiles_storage.html'
p1379
sg53
S'/Library/Python/2.7/site-packages/django/contrib/staticfiles/storage'
p1380
sg55
g13
(g14
g15
NtRp1381
(dp1382
g18
I1
sg19
I0
sg20
I160
sg21
I0
sg22
I0
sg23
I123
sg24
I0
sbssg25
S'\xaa\r\x86\xab~\xed\x19m\xcd\x7f\xc7\xc9\xd2up\x99'
p1383
ssS'_Library_Python_2_7_site-packages_django_contrib_staticfiles_handlers'
p1384
(dp1385
g6
(dp1386
g51
S'_Library_Python_2_7_site-packages_django_contrib_staticfiles_handlers.html'
p1387
sg53
S'/Library/Python/2.7/site-packages/django/contrib/staticfiles/handlers'
p1388
sg55
g13
(g14
g15
NtRp1389
(dp1390
g18
I1
sg19
I0
sg20
I40
sg21
I0
sg22
I0
sg23
I25
sg24
I0
sbssg25
S'\xc9\xf1t\x83\xcf\x01k\x14\x7f1\xa8\xd7,\xaf\xb3}'
p1391
ssS'_Library_Python_2_7_site-packages_dj_database_url'
p1392
(dp1393
g6
(dp1394
g51
S'_Library_Python_2_7_site-packages_dj_database_url.html'
p1395
sg53
S'/Library/Python/2.7/site-packages/dj_database_url'
p1396
sg55
g13
(g14
g15
NtRp1397
(dp1398
g18
I1
sg19
I0
sg20
I28
sg21
I0
sg22
I0
sg23
I15
sg24
I0
sbssg25
S'\xdd\xd7\xce\xa7\xb2\x1b\xe3zmb\xa2(\x13x\xc9\xba'
p1399
ssS'carpool_settings'
p1400
(dp1401
g6
(dp1402
g8
S'carpool_settings.html'
p1403
sg10
S'carpool/settings'
p1404
sg12
g13
(g14
g15
NtRp1405
(dp1406
g18
I1
sg19
I0
sg20
I33
sg21
I0
sg22
I0
sg23
I0
sg24
I0
sbssg25
S'f\xe9\xd1OsQ\xecz4\x11\xc4\x89\x9e\xbd\x8f\xca'
p1407
ssS'_Library_Python_2_7_site-packages_django_db_models_fields_files'
p1408
(dp1409
g6
(dp1410
g51
S'_Library_Python_2_7_site-packages_django_db_models_fields_files.html'
p1411
sg53
S'/Library/Python/2.7/site-packages/django/db/models/fields/files'
p1412
sg55
g13
(g14
g15
NtRp1413
(dp1414
g18
I1
sg19
I0
sg20
I203
sg21
I0
sg22
I0
sg23
I136
sg24
I0
sbssg25
S'\xf4\xb4\x1e?\xfe\x16\xa2[\xe6\x86\xd1\x06\xc4\xd8\x1cn'
p1415
ssS'_Library_Python_2_7_site-packages_django_conf_locale___init__'
p1416
(dp1417
g40
(dp1418
g8
S'_Library_Python_2_7_site-packages_django_conf_locale___init__.html'
p1419
sg10
S'/Library/Python/2.7/site-packages/django/conf/locale/__init__'
p1420
sg12
g13
(g14
g15
NtRp1421
(dp1422
g18
I1
sg19
I0
sg20
I1
sg21
I0
sg22
I0
sg23
I0
sg24
I0
sbssg46
S'\xca\x13\xff\x014\xc8\xe6I\xcb\xd3B<uIk\xbe'
p1423
ssS'_Library_Python_2_7_site-packages_django_contrib_staticfiles_finders'
p1424
(dp1425
g6
(dp1426
g51
S'_Library_Python_2_7_site-packages_django_contrib_staticfiles_finders.html'
p1427
sg53
S'/Library/Python/2.7/site-packages/django/contrib/staticfiles/finders'
p1428
sg55
g13
(g14
g15
NtRp1429
(dp1430
g18
I1
sg19
I0
sg20
I158
sg21
I0
sg22
I0
sg23
I121
sg24
I0
sbssg25
S'\xa8\nv\xabZ\xf0a.\xaf\x0b\xa78\xba\n\xa2\x9b'
p1431
ssS'carpoolapp_tests'
p1432
(dp1433
g40
(dp1434
g378
S'carpoolapp_tests.html'
p1435
sg380
S'carpoolapp/tests'
p1436
sg382
g13
(g14
g15
NtRp1437
(dp1438
g18
I1
sg19
I0
sg20
I223
sg21
I0
sg22
I0
sg23
I141
sg24
I0
sbssg46
S'\xcb\xb1z\x96\x99#1)\xa3\xf4\x0b.\x18M\xe1\xed'
p1439
ssS'_Library_Python_2_7_site-packages_south_db_postgresql_psycopg2'
p1440
(dp1441
g40
(dp1442
g8
S'_Library_Python_2_7_site-packages_south_db_postgresql_psycopg2.html'
p1443
sg10
S'/Library/Python/2.7/site-packages/south/db/postgresql_psycopg2'
p1444
sg12
g13
(g14
g15
NtRp1445
(dp1446
g18
I1
sg19
I0
sg20
I44
sg21
I0
sg22
I0
sg23
I31
sg24
I0
sbssg46
S'<e\x82\xd9\xff\xa2\xf6\xe9R\x98N9\x06\xecF\xe4'
p1447
ssS'_Library_Python_2_7_site-packages_django_core_validators'
p1448
(dp1449
g6
(dp1450
g8
S'_Library_Python_2_7_site-packages_django_core_validators.html'
p1451
sg10
S'/Library/Python/2.7/site-packages/django/core/validators'
p1452
sg12
g13
(g14
g15
NtRp1453
(dp1454
g18
I1
sg19
I0
sg20
I157
sg21
I0
sg22
I0
sg23
I86
sg24
I0
sbssg25
S'\xf3\xf8\xd1\x02\x01\xf0\x8a\xe3D\x8a?hk\x87s\x83'
p1455
ssS'_Library_Python_2_7_site-packages_django_contrib_auth_signals'
p1456
(dp1457
g6
(dp1458
g51
S'_Library_Python_2_7_site-packages_django_contrib_auth_signals.html'
p1459
sg53
S'/Library/Python/2.7/site-packages/django/contrib/auth/signals'
p1460
sg55
g13
(g14
g15
NtRp1461
(dp1462
g18
I1
sg19
I0
sg20
I3
sg21
I0
sg22
I0
sg23
I0
sg24
I0
sbssg25
S'\x13\x17\x85\x98\x81\r`\x1b~4\x04;\x16\x9b%L'
p1463
ssS'_Library_Python_2_7_site-packages_django_core_urlresolvers'
p1464
(dp1465
g6
(dp1466
g51
S'_Library_Python_2_7_site-packages_django_core_urlresolvers.html'
p1467
sg53
S'/Library/Python/2.7/site-packages/django/core/urlresolvers'
p1468
sg55
g13
(g14
g15
NtRp1469
(dp1470
g18
I1
sg19
I0
sg20
I339
sg21
I0
sg22
I0
sg23
I269
sg24
I0
sbssg25
S'\n\xe9\xc0\x1f\x92Y\xa4\xbb\xb7\xdc!/\x03\xfdZ%'
p1471
ssS'_Library_Python_2_7_site-packages_django_forms_forms'
p1472
(dp1473
g6
(dp1474
g51
S'_Library_Python_2_7_site-packages_django_forms_forms.html'
p1475
sg53
S'/Library/Python/2.7/site-packages/django/forms/forms'
p1476
sg55
g13
(g14
g15
NtRp1477
(dp1478
g18
I1
sg19
I0
sg20
I280
sg21
I0
sg22
I0
sg23
I196
sg24
I0
sbssg25
S'\x140\xadHhu71\x9e$\xd4\x11\xc0e\tC'
p1479
ssS'_Library_Python_2_7_site-packages_django_core_management_base'
p1480
(dp1481
g6
(dp1482
g150
S'_Library_Python_2_7_site-packages_django_core_management_base.html'
p1483
sg152
S'/Library/Python/2.7/site-packages/django/core/management/base'
p1484
sg154
g13
(g14
g15
NtRp1485
(dp1486
g18
I1
sg19
I0
sg20
I133
sg21
I0
sg22
I0
sg23
I56
sg24
I0
sbssg25
S'\x8e\x15\x17\xb7\xc1\xd2\xd1M\x17\xb0\\6\xb0o\xc7t'
p1487
ssS'_Library_Python_2_7_site-packages_django_contrib_messages_models'
p1488
(dp1489
g40
(dp1490
g8
S'_Library_Python_2_7_site-packages_django_contrib_messages_models.html'
p1491
sg10
S'/Library/Python/2.7/site-packages/django/contrib/messages/models'
p1492
sg12
g13
(g14
g15
NtRp1493
(dp1494
g18
I1
sg19
I0
sg20
I0
sg21
I0
sg22
I0
sg23
I0
sg24
I0
sbssg46
S'}\xf8)\x98N\x1e\xef\xd8Ky\x9f\x03d\x14L\xac'
p1495
ssS'_Library_Python_2_7_site-packages_django_core_files_storage'
p1496
(dp1497
g6
(dp1498
g51
S'_Library_Python_2_7_site-packages_django_core_files_storage.html'
p1499
sg53
S'/Library/Python/2.7/site-packages/django/core/files/storage'
p1500
sg55
g13
(g14
g15
NtRp1501
(dp1502
g18
I1
sg19
I0
sg20
I150
sg21
I0
sg22
I0
sg23
I104
sg24
I0
sbssg25
S'G\xe6\x06\xdc\xdb#\xe2EAMn~]\x1d\xe8\xb8'
p1503
ssS'_Library_Python_2_7_site-packages_django_db_models___init__'
p1504
(dp1505
g6
(dp1506
g51
S'_Library_Python_2_7_site-packages_django_db_models___init__.html'
p1507
sg53
S'/Library/Python/2.7/site-packages/django/db/models/__init__'
p1508
sg55
g13
(g14
g15
NtRp1509
(dp1510
g18
I1
sg19
I0
sg20
I23
sg21
I0
sg22
I0
sg23
I5
sg24
I0
sbssg25
S'B\xac\xe1\xdaQ\x957k\x0e\xba`\x9f\xd0\xa2\xd87'
p1511
ssS'_Library_Python_2_7_site-packages_django_template_loaders_cached'
p1512
(dp1513
g6
(dp1514
g51
S'_Library_Python_2_7_site-packages_django_template_loaders_cached.html'
p1515
sg53
S'/Library/Python/2.7/site-packages/django/template/loaders/cached'
p1516
sg55
g13
(g14
g15
NtRp1517
(dp1518
g18
I1
sg19
I0
sg20
I39
sg21
I0
sg22
I0
sg23
I29
sg24
I0
sbssg25
S'\xbd\x94\xffb;\xa88z\x13\xeezM[\x94x\xb4'
p1519
ssS'_Library_Python_2_7_site-packages_django_core_serializers_base'
p1520
(dp1521
g40
(dp1522
g8
S'_Library_Python_2_7_site-packages_django_core_serializers_base.html'
p1523
sg10
S'/Library/Python/2.7/site-packages/django/core/serializers/base'
p1524
sg12
g13
(g14
g15
NtRp1525
(dp1526
g18
I1
sg19
I0
sg20
I74
sg21
I0
sg22
I0
sg23
I46
sg24
I0
sbssg46
S'\xfca\xe3x\xd1\xc5\x90\x8b\xcd\x06T\x1frS\xb1P'
p1527
ssS'_Library_Python_2_7_site-packages_django_utils__os'
p1528
(dp1529
g6
(dp1530
g51
S'_Library_Python_2_7_site-packages_django_utils__os.html'
p1531
sg53
S'/Library/Python/2.7/site-packages/django/utils/_os'
p1532
sg55
g13
(g14
g15
NtRp1533
(dp1534
g18
I1
sg19
I0
sg20
I32
sg21
I0
sg22
I0
sg23
I19
sg24
I0
sbssg25
S'\x00\x87*\xe1Z\xd9w\xa9\xefK\xab/\xb8P4\xe7'
p1535
ssS'_Library_Python_2_7_site-packages_django_core_paginator'
p1536
(dp1537
g40
(dp1538
g8
S'_Library_Python_2_7_site-packages_django_core_paginator.html'
p1539
sg10
S'/Library/Python/2.7/site-packages/django/core/paginator'
p1540
sg12
g13
(g14
g15
NtRp1541
(dp1542
g18
I1
sg19
I0
sg20
I103
sg21
I0
sg22
I0
sg23
I69
sg24
I0
sbssg46
S'l\x81\xf4\xe4\xf0\xa1\xe9\x101\xd8\x90y\xed\xdb_\x81'
p1543
ssS'_Library_Python_2_7_site-packages_django_utils_crypto'
p1544
(dp1545
g6
(dp1546
g51
S'_Library_Python_2_7_site-packages_django_utils_crypto.html'
p1547
sg53
S'/Library/Python/2.7/site-packages/django/utils/crypto'
p1548
sg55
g13
(g14
g15
NtRp1549
(dp1550
g18
I1
sg19
I0
sg20
I68
sg21
I0
sg22
I0
sg23
I48
sg24
I0
sbssg25
S'\xa3\xc5}l\x04ww\x01\xe1\xf0$\xbc\x1dW\xe7\x06'
p1551
ssS'_Library_Python_2_7_site-packages_django_core_handlers_base'
p1552
(dp1553
g6
(dp1554
g51
S'_Library_Python_2_7_site-packages_django_core_handlers_base.html'
p1555
sg53
S'/Library/Python/2.7/site-packages/django/core/handlers/base'
p1556
sg55
g13
(g14
g15
NtRp1557
(dp1558
g18
I1
sg19
I0
sg20
I151
sg21
I0
sg22
I0
sg23
I136
sg24
I0
sbssg25
S'\xdad\xee\x14\x17\x9bxc\xbc\xbd@:}Z\x18\xe1'
p1559
ssS'_Library_Python_2_7_site-packages_django_core_files___init__'
p1560
(dp1561
g6
(dp1562
g51
S'_Library_Python_2_7_site-packages_django_core_files___init__.html'
p1563
sg53
S'/Library/Python/2.7/site-packages/django/core/files/__init__'
p1564
sg55
g13
(g14
g15
NtRp1565
(dp1566
g18
I1
sg19
I0
sg20
I1
sg21
I0
sg22
I0
sg23
I0
sg24
I0
sbssg25
S"\xa1\xbfiA'\x85B\x1e\xd8\xe0\x91\xe3\xf7\x86\x81\xb2"
p1567
ssS'_Library_Python_2_7_site-packages_django_db_models_base'
p1568
(dp1569
g6
(dp1570
g30
S'_Library_Python_2_7_site-packages_django_db_models_base.html'
p1571
sg32
S'/Library/Python/2.7/site-packages/django/db/models/base'
p1572
sg34
g13
(g14
g15
NtRp1573
(dp1574
g18
I1
sg19
I0
sg20
I501
sg21
I0
sg22
I0
sg23
I285
sg24
I0
sbssg25
S'\x96\xa9\xc9\xf1\x1c\xd1(\x8b\xeb\xd3\x7fP\xe9C\xb8\xa0'
p1575
ssS'_Library_Python_2_7_site-packages_django_core_mail_utils'
p1576
(dp1577
g6
(dp1578
g51
S'_Library_Python_2_7_site-packages_django_core_mail_utils.html'
p1579
sg53
S'/Library/Python/2.7/site-packages/django/core/mail/utils'
p1580
sg55
g13
(g14
g15
NtRp1581
(dp1582
g18
I1
sg19
I0
sg20
I9
sg21
I0
sg22
I0
sg23
I4
sg24
I0
sbssg25
S'q\x8f\x86\xa8\x10\xa1\x04\x98^\x0e\xe8\x93\xb7X\xaan'
p1583
ssS'_Library_Python_2_7_site-packages_django_conf_locale_en_formats'
p1584
(dp1585
g40
(dp1586
g8
S'_Library_Python_2_7_site-packages_django_conf_locale_en_formats.html'
p1587
sg10
S'/Library/Python/2.7/site-packages/django/conf/locale/en/formats'
p1588
sg12
g13
(g14
g15
NtRp1589
(dp1590
g18
I1
sg19
I0
sg20
I14
sg21
I0
sg22
I0
sg23
I0
sg24
I0
sbssg46
S"\x93\xc2\xcc\x9d\xd2\x99\xd1G=\xce'\xb0K\x93#R"
p1591
ssS'_Library_Python_2_7_site-packages_django_contrib_admin_options'
p1592
(dp1593
g40
(dp1594
g8
S'_Library_Python_2_7_site-packages_django_contrib_admin_options.html'
p1595
sg10
S'/Library/Python/2.7/site-packages/django/contrib/admin/options'
p1596
sg12
g13
(g14
g15
NtRp1597
(dp1598
g18
I1
sg19
I0
sg20
I735
sg21
I0
sg22
I0
sg23
I575
sg24
I0
sbssg46
S'\xc8\x08r%t\xb5\x9d}<\x1eQ\x8ezF\\\x9c'
p1599
ssS'_Library_Python_2_7_site-packages_django_test___init__'
p1600
(dp1601
g6
(dp1602
g51
S'_Library_Python_2_7_site-packages_django_test___init__.html'
p1603
sg53
S'/Library/Python/2.7/site-packages/django/test/__init__'
p1604
sg55
g13
(g14
g15
NtRp1605
(dp1606
g18
I1
sg19
I0
sg20
I3
sg21
I0
sg22
I0
sg23
I0
sg24
I0
sbssg25
S'~\xbeB^\xffy\x92\x8f\x9e\xd7\xdc\xd8\xa1\xe5\xe0\x03'
p1607
ssS'_Library_Python_2_7_site-packages_django_core_serializers___init__'
p1608
(dp1609
g40
(dp1610
g8
S'_Library_Python_2_7_site-packages_django_core_serializers___init__.html'
p1611
sg10
S'/Library/Python/2.7/site-packages/django/core/serializers/__init__'
p1612
sg12
g13
(g14
g15
NtRp1613
(dp1614
g18
I1
sg19
I0
sg20
I58
sg21
I0
sg22
I0
sg23
I40
sg24
I0
sbssg46
S'\x89\xbaB\x85\x82\xf4\n3d!d\xbf\xab\xe9e\x1a'
p1615
ssS'_Library_Python_2_7_site-packages_django_test_signals'
p1616
(dp1617
g6
(dp1618
g51
S'_Library_Python_2_7_site-packages_django_test_signals.html'
p1619
sg53
S'/Library/Python/2.7/site-packages/django/test/signals'
p1620
sg55
g13
(g14
g15
NtRp1621
(dp1622
g18
I1
sg19
I0
sg20
I17
sg21
I0
sg22
I0
sg23
I10
sg24
I0
sbssg25
S'6\xfb\xb9q?8\xcb\x90\x15G}\x9b\x9b\x8d\x82\x9d'
p1623
ssS'_Library_Python_2_7_site-packages_django_db_models_fields_subclassing'
p1624
(dp1625
g6
(dp1626
g51
S'_Library_Python_2_7_site-packages_django_db_models_fields_subclassing.html'
p1627
sg53
S'/Library/Python/2.7/site-packages/django/db/models/fields/subclassing'
p1628
sg55
g13
(g14
g15
NtRp1629
(dp1630
g18
I1
sg19
I0
sg20
I21
sg21
I0
sg22
I0
sg23
I14
sg24
I0
sbssg25
S'\x94\xfa\xe1\x9f\xf6\xcb\xa6\xb1N\xc5v\xa4\xcb\x9e\xd0n'
p1631
ssS'_Library_Python_2_7_site-packages_django_contrib_staticfiles_templatetags_staticfiles'
p1632
(dp1633
g40
(dp1634
g8
S'_Library_Python_2_7_site-packages_django_contrib_staticfiles_templatetags_staticfiles.html'
p1635
sg10
S'/Library/Python/2.7/site-packages/django/contrib/staticfiles/templatetags/staticfiles'
p1636
sg12
g13
(g14
g15
NtRp1637
(dp1638
g18
I1
sg19
I0
sg20
I5
sg21
I0
sg22
I0
sg23
I1
sg24
I0
sbssg46
S'\x83Er\x85\xa40\xc8\x00]b\x13\xde%\xb7\xc7\xc2'
p1639
ssS'_Library_Python_2_7_site-packages_django_test_testcases'
p1640
(dp1641
g6
(dp1642
g51
S'_Library_Python_2_7_site-packages_django_test_testcases.html'
p1643
sg53
S'/Library/Python/2.7/site-packages/django/test/testcases'
p1644
sg55
g13
(g14
g15
NtRp1645
(dp1646
g18
I1
sg19
I0
sg20
I583
sg21
I0
sg22
I0
sg23
I456
sg24
I0
sbssg25
S'\xe0\xb8]0>\xf2\x13@\xaf\xc3\xf4.vl[\xd3'
p1647
ssS'_Library_Python_2_7_site-packages_django_contrib_staticfiles___init__'
p1648
(dp1649
g6
(dp1650
g51
S'_Library_Python_2_7_site-packages_django_contrib_staticfiles___init__.html'
p1651
sg53
S'/Library/Python/2.7/site-packages/django/contrib/staticfiles/__init__'
p1652
sg55
g13
(g14
g15
NtRp1653
(dp1654
g18
I1
sg19
I0
sg20
I0
sg21
I0
sg22
I0
sg23
I0
sg24
I0
sbssg25
S'\xb0\xc8pN\xaf>\xa0\xbaz\x144\xe0A9\xb8?'
p1655
ssS'_Library_Python_2_7_site-packages_django_db_models_query_utils'
p1656
(dp1657
g6
(dp1658
g8
S'_Library_Python_2_7_site-packages_django_db_models_query_utils.html'
p1659
sg10
S'/Library/Python/2.7/site-packages/django/db/models/query_utils'
p1660
sg12
g13
(g14
g15
NtRp1661
(dp1662
g18
I1
sg19
I0
sg20
I78
sg21
I0
sg22
I0
sg23
I53
sg24
I0
sbssg25
S'\x81r,\xe6%{i\xa9EW\xc8\x03\x0b\xe9\x80\xdd'
p1663
ssS'_Library_Python_2_7_site-packages_django_utils_regex_helper'
p1664
(dp1665
g6
(dp1666
g51
S'_Library_Python_2_7_site-packages_django_utils_regex_helper.html'
p1667
sg53
S'/Library/Python/2.7/site-packages/django/utils/regex_helper'
p1668
sg55
g13
(g14
g15
NtRp1669
(dp1670
g18
I1
sg19
I0
sg20
I185
sg21
I0
sg22
I0
sg23
I175
sg24
I0
sbssg25
S'2\x17q\n3`<\x0f\xce\x8az\xb4\xd1\xc7s7'
p1671
ssS'_Library_Python_2_7_site-packages_django_utils_unittest_util'
p1672
(dp1673
g6
(dp1674
g51
S'_Library_Python_2_7_site-packages_django_utils_unittest_util.html'
p1675
sg53
S'/Library/Python/2.7/site-packages/django/utils/unittest/util'
p1676
sg55
g13
(g14
g15
NtRp1677
(dp1678
g18
I1
sg19
I0
sg20
I74
sg21
I0
sg22
I0
sg23
I67
sg24
I0
sbssg25
S'\xb2x_,\x84YY\x16\x91\xcb5(\xe8\x1c<\t'
p1679
ssS'_Library_Python_2_7_site-packages_validate_email'
p1680
(dp1681
g40
(dp1682
g8
S'_Library_Python_2_7_site-packages_validate_email.html'
p1683
sg10
S'/Library/Python/2.7/site-packages/validate_email'
p1684
sg12
g13
(g14
g15
NtRp1685
(dp1686
g18
I1
sg19
I0
sg20
I59
sg21
I0
sg22
I0
sg23
I20
sg24
I0
sbssg46
S"A\xf01\x95PU\x06O\xe7\x85\x05\xbe'\x15h\x87"
p1687
ssS'_Library_Python_2_7_site-packages_django_utils_importlib'
p1688
(dp1689
g6
(dp1690
g51
S'_Library_Python_2_7_site-packages_django_utils_importlib.html'
p1691
sg53
S'/Library/Python/2.7/site-packages/django/utils/importlib'
p1692
sg55
g13
(g14
g15
NtRp1693
(dp1694
g18
I1
sg19
I0
sg20
I23
sg21
I0
sg22
I0
sg23
I6
sg24
I0
sbssg25
S'\xba\x10A\xccg\xac\xd0\xe2\xb9QBQ3\x8d\xc0\x01'
p1695
ssS'_Library_Python_2_7_site-packages_django_middleware___init__'
p1696
(dp1697
g40
(dp1698
g8
S'_Library_Python_2_7_site-packages_django_middleware___init__.html'
p1699
sg10
S'/Library/Python/2.7/site-packages/django/middleware/__init__'
p1700
sg12
g13
(g14
g15
NtRp1701
(dp1702
g18
I1
sg19
I0
sg20
I0
sg21
I0
sg22
I0
sg23
I0
sg24
I0
sbssg46
S'\xb0\xc8pN\xaf>\xa0\xbaz\x144\xe0A9\xb8?'
p1703
ssS'_Library_Python_2_7_site-packages_south_orm'
p1704
(dp1705
g40
(dp1706
g8
S'_Library_Python_2_7_site-packages_south_orm.html'
p1707
sg10
S'/Library/Python/2.7/site-packages/south/orm'
p1708
sg12
g13
(g14
g15
NtRp1709
(dp1710
g18
I1
sg19
I0
sg20
I210
sg21
I0
sg22
I0
sg23
I179
sg24
I0
sbssg46
S"^\x14Q\xcf\x19\x196'\xdf\x8a\xc2VI\xc2n:"
p1711
ssS'_Library_Python_2_7_site-packages_django_conf_locale_en___init__'
p1712
(dp1713
g40
(dp1714
g8
S'_Library_Python_2_7_site-packages_django_conf_locale_en___init__.html'
p1715
sg10
S'/Library/Python/2.7/site-packages/django/conf/locale/en/__init__'
p1716
sg12
g13
(g14
g15
NtRp1717
(dp1718
g18
I1
sg19
I0
sg20
I0
sg21
I0
sg22
I0
sg23
I0
sg24
I0
sbssg46
S'\xb0\xc8pN\xaf>\xa0\xbaz\x144\xe0A9\xb8?'
p1719
ssS'_Library_Python_2_7_site-packages_django_contrib_sessions_models'
p1720
(dp1721
g40
(dp1722
g8
S'_Library_Python_2_7_site-packages_django_contrib_sessions_models.html'
p1723
sg10
S'/Library/Python/2.7/site-packages/django/contrib/sessions/models'
p1724
sg12
g13
(g14
g15
NtRp1725
(dp1726
g18
I1
sg19
I0
sg20
I23
sg21
I0
sg22
I0
sg23
I7
sg24
I0
sbssg46
S'< \xef\x96\xa0\x8c\xd8\xe9~\n\xbb7\xe7U\xf3['
p1727
ssS'_Library_Python_2_7_site-packages_django_db_backends_postgresql_psycopg2_base'
p1728
(dp1729
g6
(dp1730
g8
S'_Library_Python_2_7_site-packages_django_db_backends_postgresql_psycopg2_base.html'
p1731
sg10
S'/Library/Python/2.7/site-packages/django/db/backends/postgresql_psycopg2/base'
p1732
sg12
g13
(g14
g15
NtRp1733
(dp1734
g18
I1
sg19
I0
sg20
I154
sg21
I0
sg22
I0
sg23
I38
sg24
I0
sbssg25
S'\xc3M\xf871\x9f$\xe8\x91\x10?W\xe7\xf3\xc4U'
p1735
ssS'_Library_Python_2_7_site-packages_django_template_loaders_app_directories'
p1736
(dp1737
g40
(dp1738
g8
S'_Library_Python_2_7_site-packages_django_template_loaders_app_directories.html'
p1739
sg10
S'/Library/Python/2.7/site-packages/django/template/loaders/app_directories'
p1740
sg12
g13
(g14
g15
NtRp1741
(dp1742
g18
I1
sg19
I0
sg20
I42
sg21
I0
sg22
I0
sg23
I20
sg24
I0
sbssg46
S'\x0b=hb\xe7\xba\x95^\r\x85\xe1ja]rL'
p1743
ssS'_Library_Python_2_7_site-packages_django_db_backends_postgresql_psycopg2_introspection'
p1744
(dp1745
g6
(dp1746
g8
S'_Library_Python_2_7_site-packages_django_db_backends_postgresql_psycopg2_introspection.html'
p1747
sg10
S'/Library/Python/2.7/site-packages/django/db/backends/postgresql_psycopg2/introspection'
p1748
sg12
g13
(g14
g15
NtRp1749
(dp1750
g18
I1
sg19
I0
sg20
I25
sg21
I0
sg22
I0
sg23
I16
sg24
I0
sbssg25
S'\x92\xd68\x82%\xc0\xc8\xbc\xe9\xa5\xfb\x07\xf9\t5\x87'
p1751
ssS'_Library_Python_2_7_site-packages_django_template_defaulttags'
p1752
(dp1753
g6
(dp1754
g51
S'_Library_Python_2_7_site-packages_django_template_defaulttags.html'
p1755
sg53
S'/Library/Python/2.7/site-packages/django/template/defaulttags'
p1756
sg55
g13
(g14
g15
NtRp1757
(dp1758
g18
I1
sg19
I0
sg20
I613
sg21
I0
sg22
I0
sg23
I502
sg24
I0
sbssg25
S'g\xf1\x83\xf1&T\x08e2f\x06\xb2*A@\x87'
p1759
ssS'_Library_Python_2_7_site-packages_django_contrib_contenttypes_management'
p1760
(dp1761
g40
(dp1762
g8
S'_Library_Python_2_7_site-packages_django_contrib_contenttypes_management.html'
p1763
sg10
S'/Library/Python/2.7/site-packages/django/contrib/contenttypes/management'
p1764
sg12
g13
(g14
g15
NtRp1765
(dp1766
g18
I1
sg19
I0
sg20
I34
sg21
I0
sg22
I0
sg23
I16
sg24
I0
sbssg46
S'\xd2\xa7CS\xcd\x03C\xa7\x93\x97MR0>\x84e'
p1767
ssS'_Library_Python_2_7_site-packages_django_contrib_messages_storage___init__'
p1768
(dp1769
g40
(dp1770
g8
S'_Library_Python_2_7_site-packages_django_contrib_messages_storage___init__.html'
p1771
sg10
S'/Library/Python/2.7/site-packages/django/contrib/messages/storage/__init__'
p1772
sg12
g13
(g14
g15
NtRp1773
(dp1774
g18
I1
sg19
I0
sg20
I18
sg21
I0
sg22
I0
sg23
I13
sg24
I0
sbssg46
S'\xa0\t\xb5\xe9\x01S\x15\\f\x1d\xb6\xd2t\x937\x8a'
p1775
ssS'_Library_Python_2_7_site-packages_django_contrib_admin_models'
p1776
(dp1777
g40
(dp1778
g8
S'_Library_Python_2_7_site-packages_django_contrib_admin_models.html'
p1779
sg10
S'/Library/Python/2.7/site-packages/django/contrib/admin/models'
p1780
sg12
g13
(g14
g15
NtRp1781
(dp1782
g18
I1
sg19
I0
sg20
I50
sg21
I0
sg22
I0
sg23
I17
sg24
I0
sbssg46
S'\x01\x0byuK}\x1eM\xc7\xc6Yf\x8f=\xd3\xbf'
p1783
ssS'_Library_Python_2_7_site-packages_django_contrib_staticfiles_templatetags___init__'
p1784
(dp1785
g40
(dp1786
g8
S'_Library_Python_2_7_site-packages_django_contrib_staticfiles_templatetags___init__.html'
p1787
sg10
S'/Library/Python/2.7/site-packages/django/contrib/staticfiles/templatetags/__init__'
p1788
sg12
g13
(g14
g15
NtRp1789
(dp1790
g18
I1
sg19
I0
sg20
I0
sg21
I0
sg22
I0
sg23
I0
sg24
I0
sbssg46
S'\xb0\xc8pN\xaf>\xa0\xbaz\x144\xe0A9\xb8?'
p1791
ssS'_Library_Python_2_7_site-packages_django_contrib_admin_util'
p1792
(dp1793
g40
(dp1794
g8
S'_Library_Python_2_7_site-packages_django_contrib_admin_util.html'
p1795
sg10
S'/Library/Python/2.7/site-packages/django/contrib/admin/util'
p1796
sg12
g13
(g14
g15
NtRp1797
(dp1798
g18
I1
sg19
I0
sg20
I256
sg21
I0
sg22
I0
sg23
I217
sg24
I0
sbssg46
S'U\x0b\xcc\xa7dQ\x96k\x9bc\x9e\x19\xc7\x9f?b'
p1799
ssS'_Library_Python_2_7_site-packages_psycopg2_tz'
p1800
(dp1801
g6
(dp1802
g51
S'_Library_Python_2_7_site-packages_psycopg2_tz.html'
p1803
sg53
S'/Library/Python/2.7/site-packages/psycopg2/tz'
p1804
sg55
g13
(g14
g15
NtRp1805
(dp1806
g18
I1
sg19
I0
sg20
I61
sg21
I0
sg22
I0
sg23
I37
sg24
I0
sbssg25
S'\x8a\x91&\x8c\x99\xa5\xaa|k3l\xbe(\xb4\xfe8'
p1807
ssS'_Library_Python_2_7_site-packages_django_core_files_uploadedfile'
p1808
(dp1809
g6
(dp1810
g51
S'_Library_Python_2_7_site-packages_django_core_files_uploadedfile.html'
p1811
sg53
S'/Library/Python/2.7/site-packages/django/core/files/uploadedfile'
p1812
sg55
g13
(g14
g15
NtRp1813
(dp1814
g18
I1
sg19
I0
sg20
I63
sg21
I0
sg22
I0
sg23
I34
sg24
I0
sbssg25
S'yv\x0b\xbdw\xa4\xc6\xdf\xafC\xedY\xae\xd2\xc2\xda'
p1815
ssS'_Library_Python_2_7_site-packages_django_db_backends_postgresql_psycopg2_creation'
p1816
(dp1817
g6
(dp1818
g8
S'_Library_Python_2_7_site-packages_django_db_backends_postgresql_psycopg2_creation.html'
p1819
sg10
S'/Library/Python/2.7/site-packages/django/db/backends/postgresql_psycopg2/creation'
p1820
sg12
g13
(g14
g15
NtRp1821
(dp1822
g18
I1
sg19
I0
sg20
I35
sg21
I0
sg22
I0
sg23
I7
sg24
I0
sbssg25
S'\x9c\xa8\xd2\x1a\x05\xd1\xb7\x80\xeeS\x12\xaa\x1dnI\xee'
p1823
ssS'_Library_Python_2_7_site-packages_django_db_backends_creation'
p1824
(dp1825
g6
(dp1826
g8
S'_Library_Python_2_7_site-packages_django_db_backends_creation.html'
p1827
sg10
S'/Library/Python/2.7/site-packages/django/db/backends/creation'
p1828
sg12
g13
(g14
g15
NtRp1829
(dp1830
g18
I1
sg19
I0
sg20
I212
sg21
I0
sg22
I0
sg23
I72
sg24
I0
sbssg25
S'\xa8\xb3\x8c\xed\x02\x861r\x80\xb9|\xee\x89\xe6\xe1\xbc'
p1831
ssS'_Library_Python_2_7_site-packages_django_core_mail_message'
p1832
(dp1833
g6
(dp1834
g378
S'_Library_Python_2_7_site-packages_django_core_mail_message.html'
p1835
sg380
S'/Library/Python/2.7/site-packages/django/core/mail/message'
p1836
sg382
g13
(g14
g15
NtRp1837
(dp1838
g18
I1
sg19
I0
sg20
I210
sg21
I0
sg22
I0
sg23
I138
sg24
I0
sbssg25
S'\xda\x07\xe2\xdd\xf0\xbcX\xfe<\xc0Oe\x98hh`'
p1839
ssS'_Library_Python_2_7_site-packages_south_db___init__'
p1840
(dp1841
g40
(dp1842
g8
S'_Library_Python_2_7_site-packages_south_db___init__.html'
p1843
sg10
S'/Library/Python/2.7/site-packages/south/db/__init__'
p1844
sg12
g13
(g14
g15
NtRp1845
(dp1846
g18
I1
sg19
I0
sg20
I24
sg21
I0
sg22
I0
sg23
I9
sg24
I0
sbssg46
S'\xff\x0e\xb2\x8d\xb9x\xab1H}\\\x8e\x8f\xe5",'
p1847
ssS'_Library_Python_2_7_site-packages_django_core_cache_backends___init__'
p1848
(dp1849
g6
(dp1850
g51
S'_Library_Python_2_7_site-packages_django_core_cache_backends___init__.html'
p1851
sg53
S'/Library/Python/2.7/site-packages/django/core/cache/backends/__init__'
p1852
sg55
g13
(g14
g15
NtRp1853
(dp1854
g18
I1
sg19
I0
sg20
I0
sg21
I0
sg22
I0
sg23
I0
sg24
I0
sbssg25
S'\xb0\xc8pN\xaf>\xa0\xbaz\x144\xe0A9\xb8?'
p1855
ssS'_Library_Python_2_7_site-packages_django_template_defaultfilters'
p1856
(dp1857
g6
(dp1858
g51
S'_Library_Python_2_7_site-packages_django_template_defaultfilters.html'
p1859
sg53
S'/Library/Python/2.7/site-packages/django/template/defaultfilters'
p1860
sg55
g13
(g14
g15
NtRp1861
(dp1862
g18
I1
sg19
I0
sg20
I457
sg21
I0
sg22
I0
sg23
I326
sg24
I0
sbssg25
S'\xb8\xee\x1e9\xb8a\x93\xb8\xec\xec\xd2\x124A\xc8&'
p1863
ssS'_Library_Python_2_7_site-packages_south_exceptions'
p1864
(dp1865
g40
(dp1866
g8
S'_Library_Python_2_7_site-packages_south_exceptions.html'
p1867
sg10
S'/Library/Python/2.7/site-packages/south/exceptions'
p1868
sg12
g13
(g14
g15
NtRp1869
(dp1870
g18
I1
sg19
I0
sg20
I92
sg21
I0
sg22
I0
sg23
I42
sg24
I0
sbssg46
S"\xf6\xb5\xe7\xed\x83\xa5E\xca\x95\x13\x82 w'\xe1\x99"
p1871
ssS'_Library_Python_2_7_site-packages_south_migration_utils'
p1872
(dp1873
g40
(dp1874
g8
S'_Library_Python_2_7_site-packages_south_migration_utils.html'
p1875
sg10
S'/Library/Python/2.7/site-packages/south/migration/utils'
p1876
sg12
g13
(g14
g15
NtRp1877
(dp1878
g18
I1
sg19
I0
sg20
I55
sg21
I0
sg22
I0
sg23
I33
sg24
I0
sbssg46
S'\xad\xb9E\xb6\tu\xaa}\x8byA\xb9\xc60\xde8'
p1879
ssS'_Library_Python_2_7_site-packages_django_utils_translation_trans_real'
p1880
(dp1881
g6
(dp1882
g8
S'_Library_Python_2_7_site-packages_django_utils_translation_trans_real.html'
p1883
sg10
S'/Library/Python/2.7/site-packages/django/utils/translation/trans_real'
p1884
sg12
g13
(g14
g15
NtRp1885
(dp1886
g18
I1
sg19
I0
sg20
I365
sg21
I0
sg22
I0
sg23
I226
sg24
I0
sbssg25
S"\x14:\xab+qr&'\xc6\xd3\x0b\xac\x8b1^!"
p1887
ssS'_Library_Python_2_7_site-packages_django_core_exceptions'
p1888
(dp1889
g6
(dp1890
g51
S'_Library_Python_2_7_site-packages_django_core_exceptions.html'
p1891
sg53
S'/Library/Python/2.7/site-packages/django/core/exceptions'
p1892
sg55
g13
(g14
g15
NtRp1893
(dp1894
g18
I1
sg19
I0
sg20
I48
sg21
I0
sg22
I0
sg23
I24
sg24
I0
sbssg25
S'a\xe3\xad\nKH\xdek\xda\xd5\x03\x9fP\x15\xc6\xc6'
p1895
ssS'_Library_Python_2_7_site-packages_django_core_mail_backends_locmem'
p1896
(dp1897
g376
(dp1898
g378
S'_Library_Python_2_7_site-packages_django_core_mail_backends_locmem.html'
p1899
sg380
S'/Library/Python/2.7/site-packages/django/core/mail/backends/locmem'
p1900
sg382
g13
(g14
g15
NtRp1901
(dp1902
g18
I1
sg19
I0
sg20
I10
sg21
I0
sg22
I0
sg23
I1
sg24
I0
sbssg385
S'\xb6\x11\x81\xba\xb1\xf7\xee\xeb<4\xad*&\xe0\xb7\xe6'
p1903
ssS'carpoolapp_testUtils'
p1904
(dp1905
g40
(dp1906
g8
S'carpoolapp_testUtils.html'
p1907
sg10
S'carpoolapp/testUtils'
p1908
sg12
g13
(g14
g15
NtRp1909
(dp1910
g18
I1
sg19
I0
sg20
I55
sg21
I0
sg22
I0
sg23
I0
sg24
I0
sbssg46
S'\xc2\x04YV\x8d6\x8d\xfe\x90\x87>W3z\x1c\xec'
p1911
ssS'_Library_Python_2_7_site-packages_south_signals'
p1912
(dp1913
g40
(dp1914
g8
S'_Library_Python_2_7_site-packages_south_signals.html'
p1915
sg10
S'/Library/Python/2.7/site-packages/south/signals'
p1916
sg12
g13
(g14
g15
NtRp1917
(dp1918
g18
I1
sg19
I0
sg20
I5
sg21
I0
sg22
I0
sg23
I0
sg24
I0
sbssg46
S']\x7fp!\xd57kP\xa7oZjp4\x8eu'
p1919
ssS'carpoolapp_unitTest'
p1920
(dp1921
g40
(dp1922
S'html_filename'
p1923
S'carpoolapp_unitTest.html'
p1924
sS'name'
p1925
S'carpoolapp/unitTest'
p1926
sS'nums'
p1927
g13
(g14
g15
NtRp1928
(dp1929
g18
I1
sg19
I0
sg20
I519
sg21
I0
sg22
I0
sg23
I80
sg24
I0
sbssg46
S'\x1e\xba\x13\xb8\x136A\xbdYK\x9b\x16Z?\xfe\xb0'
p1930
ssS'_Library_Python_2_7_site-packages_django_core_serializers_json'
p1931
(dp1932
g40
(dp1933
g929
S'_Library_Python_2_7_site-packages_django_core_serializers_json.html'
p1934
sg931
S'/Library/Python/2.7/site-packages/django/core/serializers/json'
p1935
sg933
g13
(g14
g15
NtRp1936
(dp1937
g18
I1
sg19
I0
sg20
I50
sg21
I0
sg22
I0
sg23
I25
sg24
I0
sbssg46
S'\xa9\xcd\xe5\xd4\xc9\xa3\xccC!\x92\x95hK\xd1\xc1K'
p1938
ssS'_Library_Python_2_7_site-packages_django_template_response'
p1939
(dp1940
g40
(dp1941
g8
S'_Library_Python_2_7_site-packages_django_template_response.html'
p1942
sg10
S'/Library/Python/2.7/site-packages/django/template/response'
p1943
sg12
g13
(g14
g15
NtRp1944
(dp1945
g18
I1
sg19
I0
sg20
I72
sg21
I0
sg22
I0
sg23
I50
sg24
I0
sbssg46
S'\xb1\xac\xaba\xdcM\xb4\x07\xb1\xe5\xcb\xf3\x13&v\xf8'
p1946
ssS'_Library_Python_2_7_site-packages_django_db_models_sql_compiler'
p1947
(dp1948
g40
(dp1949
g30
S'_Library_Python_2_7_site-packages_django_db_models_sql_compiler.html'
p1950
sg32
S'/Library/Python/2.7/site-packages/django/db/models/sql/compiler'
p1951
sg34
g13
(g14
g15
NtRp1952
(dp1953
g18
I1
sg19
I0
sg20
I653
sg21
I0
sg22
I0
sg23
I324
sg24
I0
sbssg46
S'\xa6\xebU\\7?\x8aU\xefe\xc6\xa1\xc1\x80e\xa3'
p1954
ssS'_Library_Python_2_7_site-packages_django_contrib_staticfiles_views'
p1955
(dp1956
g6
(dp1957
g51
S'_Library_Python_2_7_site-packages_django_contrib_staticfiles_views.html'
p1958
sg53
S'/Library/Python/2.7/site-packages/django/contrib/staticfiles/views'
p1959
sg55
g13
(g14
g15
NtRp1960
(dp1961
g18
I1
sg19
I0
sg20
I19
sg21
I0
sg22
I0
sg23
I10
sg24
I0
sbssg25
S'Vs\xc8u\t8L5\x1d\x00\x8b\x0c&\xbd  '
p1962
ssS'_Library_Python_2_7_site-packages_django_contrib_contenttypes_models'
p1963
(dp1964
g40
(dp1965
g8
S'_Library_Python_2_7_site-packages_django_contrib_contenttypes_models.html'
p1966
sg10
S'/Library/Python/2.7/site-packages/django/contrib/contenttypes/models'
p1967
sg12
g13
(g14
g15
NtRp1968
(dp1969
g18
I1
sg19
I0
sg20
I91
sg21
I0
sg22
I0
sg23
I45
sg24
I0
sbssg46
S'\xa2X\xbdIa\x05\x16m\xea%\xd8\x1e\x81\xa2\xc2\xa1'
p1970
ssS'_Library_Python_2_7_site-packages_south_models'
p1971
(dp1972
g40
(dp1973
g8
S'_Library_Python_2_7_site-packages_south_models.html'
p1974
sg10
S'/Library/Python/2.7/site-packages/south/models'
p1975
sg12
g13
(g14
g15
NtRp1976
(dp1977
g18
I1
sg19
I0
sg20
I21
sg21
I0
sg22
I0
sg23
I11
sg24
I0
sbssg46
S'\x0b\x1b\xa5\x01\x13\xbe\x84\xa8\xdf \xb2+\xdf\xbf\xcc\xe2'
p1978
ssS'_Library_Python_2_7_site-packages_django_db_models_sql_expressions'
p1979
(dp1980
g6
(dp1981
g51
S'_Library_Python_2_7_site-packages_django_db_models_sql_expressions.html'
p1982
sg53
S'/Library/Python/2.7/site-packages/django/db/models/sql/expressions'
p1983
sg55
g13
(g14
g15
NtRp1984
(dp1985
g18
I1
sg19
I0
sg20
I61
sg21
I0
sg22
I0
sg23
I48
sg24
I0
sbssg25
S'g\x06[\x98\xcbA\xf39\xba=F\xdf\xd4\x8dJ\x9f'
p1986
ssS'_Library_Python_2_7_site-packages_django_db_backends_postgresql_psycopg2_operations'
p1987
(dp1988
g6
(dp1989
g8
S'_Library_Python_2_7_site-packages_django_db_backends_postgresql_psycopg2_operations.html'
p1990
sg10
S'/Library/Python/2.7/site-packages/django/db/backends/postgresql_psycopg2/operations'
p1991
sg12
g13
(g14
g15
NtRp1992
(dp1993
g18
I1
sg19
I0
sg20
I99
sg21
I0
sg22
I0
sg23
I44
sg24
I0
sbssg25
S'x\xbd~\xe7>R\xf1\xf3\n\xe0&\xfb\x10"\xf40'
p1994
ssS'_Library_Python_2_7_site-packages_django_core_mail_backends___init__'
p1995
(dp1996
g376
(dp1997
g378
S'_Library_Python_2_7_site-packages_django_core_mail_backends___init__.html'
p1998
sg380
S'/Library/Python/2.7/site-packages/django/core/mail/backends/__init__'
p1999
sg382
g13
(g14
g15
NtRp2000
(dp2001
g18
I1
sg19
I0
sg20
I0
sg21
I0
sg22
I0
sg23
I0
sg24
I0
sbssg385
S'Yd\x89\xd2u\xf7\x1dgvmQ.\xe1\xce/\xd0'
p2002
ssS'_Library_Python_2_7_site-packages_django_utils_ipv6'
p2003
(dp2004
g6
(dp2005
g51
S'_Library_Python_2_7_site-packages_django_utils_ipv6.html'
p2006
sg53
S'/Library/Python/2.7/site-packages/django/utils/ipv6'
p2007
sg55
g13
(g14
g15
NtRp2008
(dp2009
g18
I1
sg19
I0
sg20
I107
sg21
I0
sg22
I0
sg23
I100
sg24
I0
sbssg25
S'J^YM\xe4\x01\xa3\xee\xad\x9chj"c\x15~'
p2010
ssS'_Library_Python_2_7_site-packages_django_middleware_csrf'
p2011
(dp2012
g40
(dp2013
g8
S'_Library_Python_2_7_site-packages_django_middleware_csrf.html'
p2014
sg10
S'/Library/Python/2.7/site-packages/django/middleware/csrf'
p2015
sg12
g13
(g14
g15
NtRp2016
(dp2017
g18
I1
sg19
I0
sg20
I82
sg21
I0
sg22
I0
sg23
I58
sg24
I0
sbssg46
S'M\xd3.z\x18\xb9\x8d\xbf\x0bU6\xb8D\x06\xca\x04'
p2018
ssS'_Library_Python_2_7_site-packages_django_contrib_auth_tokens'
p2019
(dp2020
g40
(dp2021
g8
S'_Library_Python_2_7_site-packages_django_contrib_auth_tokens.html'
p2022
sg10
S'/Library/Python/2.7/site-packages/django/contrib/auth/tokens'
p2023
sg12
g13
(g14
g15
NtRp2024
(dp2025
g18
I1
sg19
I0
sg20
I33
sg21
I0
sg22
I0
sg23
I22
sg24
I0
sbssg46
S'\xd5\x0c3\xaaa\x07\xe1\x06.\xfe\xeaP\xc3b\xdb\x96'
p2026
ssS'_Library_Python_2_7_site-packages_pytz_exceptions'
p2027
(dp2028
g6
(dp2029
g51
S'_Library_Python_2_7_site-packages_pytz_exceptions.html'
p2030
sg53
S'/Library/Python/2.7/site-packages/pytz/exceptions'
p2031
sg55
g13
(g14
g15
NtRp2032
(dp2033
g18
I1
sg19
I0
sg20
I6
sg21
I0
sg22
I0
sg23
I0
sg24
I0
sbssg25
S'\xca\xbadT#j\x8b\xb1Q\x18(s\xf5>\x99\xe1'
p2034
ssS'_Library_Python_2_7_site-packages_django_contrib_contenttypes_views'
p2035
(dp2036
g40
(dp2037
g8
S'_Library_Python_2_7_site-packages_django_contrib_contenttypes_views.html'
p2038
sg10
S'/Library/Python/2.7/site-packages/django/contrib/contenttypes/views'
p2039
sg12
g13
(g14
g15
NtRp2040
(dp2041
g18
I1
sg19
I0
sg20
I49
sg21
I0
sg22
I0
sg23
I43
sg24
I0
sbssg46
S'\x9a\x02]\x07#\xb5\x9e\x0c\xa1\xd2\x93\x89^\xeeF\xa7'
p2042
ssS'_Library_Python_2_7_site-packages_django_core_mail___init__'
p2043
(dp2044
g6
(dp2045
g378
S'_Library_Python_2_7_site-packages_django_core_mail___init__.html'
p2046
sg380
S'/Library/Python/2.7/site-packages/django/core/mail/__init__'
p2047
sg382
g13
(g14
g15
NtRp2048
(dp2049
g18
I1
sg19
I0
sg20
I38
sg21
I0
sg22
I0
sg23
I19
sg24
I0
sbssg25
S'\xa7\xb0Us\x80\xfc\x85\xa9rJ\x7f\xb6\xc5\xdcS\xf4'
p2050
ssS'_Library_Python_2_7_site-packages_django_core_management_validation'
p2051
(dp2052
g40
(dp2053
g8
S'_Library_Python_2_7_site-packages_django_core_management_validation.html'
p2054
sg10
S'/Library/Python/2.7/site-packages/django/core/management/validation'
p2055
sg12
g13
(g14
g15
NtRp2056
(dp2057
g18
I1
sg19
I0
sg20
I213
sg21
I0
sg22
I0
sg23
I102
sg24
I0
sbssg46
S'jgI&\x003\xd19ZmWEx\xdc:~'
p2058
ssS'_Library_Python_2_7_site-packages_django_core_files_uploadhandler'
p2059
(dp2060
g6
(dp2061
g51
S'_Library_Python_2_7_site-packages_django_core_files_uploadhandler.html'
p2062
sg53
S'/Library/Python/2.7/site-packages/django/core/files/uploadhandler'
p2063
sg55
g13
(g14
g15
NtRp2064
(dp2065
g18
I1
sg19
I0
sg20
I89
sg21
I0
sg22
I0
sg23
I54
sg24
I0
sbssg25
S'\xd7\x85G\xd1\xdc3<\xf5\xe9\xd6UF?\xc2\x90\xde'
p2066
ssS'_Library_Python_2_7_site-packages_django_contrib_auth_models'
p2067
(dp2068
g40
(dp2069
g8
S'_Library_Python_2_7_site-packages_django_contrib_auth_models.html'
p2070
sg10
S'/Library/Python/2.7/site-packages/django/contrib/auth/models'
p2071
sg12
g13
(g14
g15
NtRp2072
(dp2073
g18
I1
sg19
I0
sg20
I244
sg21
I0
sg22
I0
sg23
I129
sg24
I0
sbssg46
S'\xb9/yoz\'SU\xdf\xe0\xb0\xa6\xcdD"\xc6'
p2074
ssS'_Library_Python_2_7_site-packages_django_contrib_auth_management___init__'
p2075
(dp2076
g40
(dp2077
g8
S'_Library_Python_2_7_site-packages_django_contrib_auth_management___init__.html'
p2078
sg10
S'/Library/Python/2.7/site-packages/django/contrib/auth/management/__init__'
p2079
sg12
g13
(g14
g15
NtRp2080
(dp2081
g18
I1
sg19
I0
sg20
I64
sg21
I0
sg22
I0
sg23
I30
sg24
I0
sbssg46
S'\xe0\xdb"?K/\x90\x8cms\xbfq\xf5\x04=\xc4'
p2082
ssS'_Library_Python_2_7_site-packages_south_utils_datetime_utils'
p2083
(dp2084
g40
(dp2085
g8
S'_Library_Python_2_7_site-packages_south_utils_datetime_utils.html'
p2086
sg10
S'/Library/Python/2.7/site-packages/south/utils/datetime_utils'
p2087
sg12
g13
(g14
g15
NtRp2088
(dp2089
g18
I1
sg19
I0
sg20
I13
sg21
I0
sg22
I0
sg23
I5
sg24
I0
sbssg46
S'#\xd4%\xc1\x13b\xbe\xdc\x97\xcbi\xabX\x00\xa2\xa7'
p2090
ssS'_Library_Python_2_7_site-packages_django_template_loaders___init__'
p2091
(dp2092
g6
(dp2093
g51
S'_Library_Python_2_7_site-packages_django_template_loaders___init__.html'
p2094
sg53
S'/Library/Python/2.7/site-packages/django/template/loaders/__init__'
p2095
sg55
g13
(g14
g15
NtRp2096
(dp2097
g18
I1
sg19
I0
sg20
I0
sg21
I0
sg22
I0
sg23
I0
sg24
I0
sbssg25
S'\xb0\xc8pN\xaf>\xa0\xbaz\x144\xe0A9\xb8?'
p2098
ssS'_Library_Python_2_7_site-packages_django_http_multipartparser'
p2099
(dp2100
g6
(dp2101
g51
S'_Library_Python_2_7_site-packages_django_http_multipartparser.html'
p2102
sg53
S'/Library/Python/2.7/site-packages/django/http/multipartparser'
p2103
sg55
g13
(g14
g15
NtRp2104
(dp2105
g18
I1
sg19
I0
sg20
I337
sg21
I0
sg22
I0
sg23
I288
sg24
I0
sbssg25
S'\xd2\xb9 \x03\xe5*`\xbd*\x88\xd9I\x92\xb4~\xbb'
p2106
ssS'_Library_Python_2_7_site-packages_pytz_tzinfo'
p2107
(dp2108
g6
(dp2109
g8
S'_Library_Python_2_7_site-packages_pytz_tzinfo.html'
p2110
sg10
S'/Library/Python/2.7/site-packages/pytz/tzinfo'
p2111
sg12
g13
(g14
g15
NtRp2112
(dp2113
g18
I1
sg19
I0
sg20
I178
sg21
I0
sg22
I0
sg23
I79
sg24
I0
sbssg25
S"\xa3\xd9iA@\xe8c\x0b\xc1V\xb0]'5\xd0\x9c"
p2114
ssS'_Library_Python_2_7_site-packages_django_contrib_admin_helpers'
p2115
(dp2116
g40
(dp2117
g8
S'_Library_Python_2_7_site-packages_django_contrib_admin_helpers.html'
p2118
sg10
S'/Library/Python/2.7/site-packages/django/contrib/admin/helpers'
p2119
sg12
g13
(g14
g15
NtRp2120
(dp2121
g18
I1
sg19
I0
sg20
I245
sg21
I0
sg22
I0
sg23
I182
sg24
I0
sbssg46
S'2\x07\xb3\xfcP!\xc7\x02\xd7\xd9"\xf4\xab\xfd\xbfX'
p2122
ssS'_Library_Python_2_7_site-packages_django_core_servers_basehttp'
p2123
(dp2124
g6
(dp2125
g51
S'_Library_Python_2_7_site-packages_django_core_servers_basehttp.html'
p2126
sg53
S'/Library/Python/2.7/site-packages/django/core/servers/basehttp'
p2127
sg55
g13
(g14
g15
NtRp2128
(dp2129
g18
I1
sg19
I0
sg20
I142
sg21
I0
sg22
I0
sg23
I103
sg24
I0
sbssg25
S'\xdc\x86;\x06\x84B\xf8\xf4\xb2-F\xf8\x7f\x05\xcb\xf0'
p2130
ssS'_Library_Python_2_7_site-packages_django_contrib_admin_filters'
p2131
(dp2132
g40
(dp2133
g8
S'_Library_Python_2_7_site-packages_django_contrib_admin_filters.html'
p2134
sg10
S'/Library/Python/2.7/site-packages/django/contrib/admin/filters'
p2135
sg12
g13
(g14
g15
NtRp2136
(dp2137
g18
I1
sg19
I0
sg20
I187
sg21
I0
sg22
I0
sg23
I126
sg24
I0
sbssg46
S'\xaa\xce@\xb7\xca\xc7\xa3\x11F\x02\xb9\xff\xef\xe5\xf61'
p2138
ssS'_Library_Python_2_7_site-packages_django_core_cache_backends_db'
p2139
(dp2140
g40
(dp2141
g8
S'_Library_Python_2_7_site-packages_django_core_cache_backends_db.html'
p2142
sg10
S'/Library/Python/2.7/site-packages/django/core/cache/backends/db'
p2143
sg12
g13
(g14
g15
NtRp2144
(dp2145
g18
I1
sg19
I0
sg20
I127
sg21
I0
sg22
I0
sg23
I103
sg24
I0
sbssg46
S"\xee\x8a'\xb6\x8d\x06\x8ca\t\x1c\x9dE\x8b\x854H"
p2146
sssS'version'
p2147
S'3.6'
p2148
sS'settings'
p2149
S'3\xcf\xa1\x19.\x88o$\x8cA\xde\xbd\xcd\x06\xa1\x0f'
p2150
sS'format'
p2151
I1
s.