(dp1
S'files'
p2
(dp3
S'_Library_Python_2_7_site-packages_django_utils_decorators'
p4
(dp5
S'index'
p6
(dp7
S'html_filename'
p8
S'_Library_Python_2_7_site-packages_django_utils_decorators.html'
p9
sS'name'
p10
S'/Library/Python/2.7/site-packages/django/utils/decorators'
p11
sS'nums'
p12
ccopy_reg
_reconstructor
p13
(ccoverage.results
Numbers
p14
c__builtin__
object
p15
NtRp16
(dp17
S'n_files'
p18
I1
sS'n_branches'
p19
I0
sS'n_statements'
p20
I59
sS'n_excluded'
p21
I0
sS'n_partial_branches'
p22
I0
sS'n_missing'
p23
I33
sS'n_missing_branches'
p24
I0
sbssS'hash'
p25
S'\xd4C\xaf\x8d\xf9z (\xa8J9\xf4\x84\x8eHg'
p26
ssS'_Library_Python_2_7_site-packages_django_db_models_query'
p27
(dp28
g6
(dp29
S'html_filename'
p30
S'_Library_Python_2_7_site-packages_django_db_models_query.html'
p31
sS'name'
p32
S'/Library/Python/2.7/site-packages/django/db/models/query'
p33
sS'nums'
p34
g13
(g14
g15
NtRp35
(dp36
g18
I1
sg19
I0
sg20
I925
sg21
I0
sg22
I0
sg23
I608
sg24
I0
sbssg25
S'\xecl\x92\xec\x88W\x93\xa2\xc4\x06\xc1\x0c\xf2^\x92i'
p37
ssS'_Library_Python_2_7_site-packages_django_dispatch_dispatcher'
p38
(dp39
g6
(dp40
g8
S'_Library_Python_2_7_site-packages_django_dispatch_dispatcher.html'
p41
sg10
S'/Library/Python/2.7/site-packages/django/dispatch/dispatcher'
p42
sg12
g13
(g14
g15
NtRp43
(dp44
g18
I1
sg19
I0
sg20
I101
sg21
I0
sg22
I0
sg23
I45
sg24
I0
sbssg25
S'S\xca\xfe\x8e\xc3Q\r\xc6K\xabIi\x11\xda\x9e#'
p45
ssS'_Library_Python_2_7_site-packages_south_hacks_django_1_0'
p46
(dp47
S'index'
p48
(dp49
g8
S'_Library_Python_2_7_site-packages_south_hacks_django_1_0.html'
p50
sg10
S'/Library/Python/2.7/site-packages/south/hacks/django_1_0'
p51
sg12
g13
(g14
g15
NtRp52
(dp53
g18
I1
sg19
I0
sg20
I48
sg21
I0
sg22
I0
sg23
I20
sg24
I0
sbssS'hash'
p54
S'\xcf\xe2\xeeD\x8d-\xcd\x0e,\x91\xad\x8b1)\xfd\x9a'
p55
ssS'_Library_Python_2_7_site-packages_django_core_files_temp'
p56
(dp57
g6
(dp58
S'html_filename'
p59
S'_Library_Python_2_7_site-packages_django_core_files_temp.html'
p60
sS'name'
p61
S'/Library/Python/2.7/site-packages/django/core/files/temp'
p62
sS'nums'
p63
g13
(g14
g15
NtRp64
(dp65
g18
I1
sg19
I0
sg20
I28
sg21
I0
sg22
I0
sg23
I21
sg24
I0
sbssg25
S'\x14%Z\x18\x8e\x18K\xa3Y\x1f\xa7\x988\xdc)X'
p66
ssS'_Library_Python_2_7_site-packages_django_db_models_manager'
p67
(dp68
g6
(dp69
g8
S'_Library_Python_2_7_site-packages_django_db_models_manager.html'
p70
sg10
S'/Library/Python/2.7/site-packages/django/db/models/manager'
p71
sg12
g13
(g14
g15
NtRp72
(dp73
g18
I1
sg19
I0
sg20
I139
sg21
I0
sg22
I0
sg23
I43
sg24
I0
sbssg25
S'\xe7}j\xe7\xaa&]\xcf\x87\xccb\xe5\x98mhb'
p74
ssS'_Library_Python_2_7_site-packages_south_migration_migrators'
p75
(dp76
g48
(dp77
g8
S'_Library_Python_2_7_site-packages_south_migration_migrators.html'
p78
sg10
S'/Library/Python/2.7/site-packages/south/migration/migrators'
p79
sg12
g13
(g14
g15
NtRp80
(dp81
g18
I1
sg19
I0
sg20
I231
sg21
I0
sg22
I0
sg23
I165
sg24
I0
sbssg54
S'!\xbe\x94\xc9o\x81\x91\x17\xd2\x10\xbf\x1b\n\xf4\x18\x98'
p82
ssS'_Library_Python_2_7_site-packages_django_utils_dates'
p83
(dp84
g6
(dp85
g59
S'_Library_Python_2_7_site-packages_django_utils_dates.html'
p86
sg61
S'/Library/Python/2.7/site-packages/django/utils/dates'
p87
sg63
g13
(g14
g15
NtRp88
(dp89
g18
I1
sg19
I0
sg20
I9
sg21
I0
sg22
I0
sg23
I0
sg24
I0
sbssg25
S'\xed\xe1n\x81\x12\xc1\xc6\x8b\xd8\x98O4:mTA'
p90
ssS'_Library_Python_2_7_site-packages_django_db_models_sql_subqueries'
p91
(dp92
g6
(dp93
g30
S'_Library_Python_2_7_site-packages_django_db_models_sql_subqueries.html'
p94
sg32
S'/Library/Python/2.7/site-packages/django/db/models/sql/subqueries'
p95
sg34
g13
(g14
g15
NtRp96
(dp97
g18
I1
sg19
I0
sg20
I113
sg21
I0
sg22
I0
sg23
I52
sg24
I0
sbssg25
S"\x10\t\x91\xd9'+\xb4\x07\x05\x91\xa2QI\x04\xc4\x98"
p98
ssS'_Library_Python_2_7_site-packages_south_management_commands_migrate'
p99
(dp100
g48
(dp101
g8
S'_Library_Python_2_7_site-packages_south_management_commands_migrate.html'
p102
sg10
S'/Library/Python/2.7/site-packages/south/management/commands/migrate'
p103
sg12
g13
(g14
g15
NtRp104
(dp105
g18
I1
sg19
I0
sg20
I123
sg21
I0
sg22
I0
sg23
I91
sg24
I0
sbssg54
S'd\xc5=\xaf\xd6G\xbaJ\x1c\xc0\xce]k\xa8\x18\xa1'
p106
ssS'_Library_Python_2_7_site-packages_django_db_models_aggregates'
p107
(dp108
g6
(dp109
g59
S'_Library_Python_2_7_site-packages_django_db_models_aggregates.html'
p110
sg61
S'/Library/Python/2.7/site-packages/django/db/models/aggregates'
p111
sg63
g13
(g14
g15
NtRp112
(dp113
g18
I1
sg19
I0
sg20
I25
sg21
I0
sg22
I0
sg23
I6
sg24
I0
sbssg25
S'TO\x1e/\xbc\x9c\x17\xc0\xd4\xad\xd9\xae\xc4\\\xa4I'
p114
ssS'_Library_Python_2_7_site-packages_django_db_backends_postgresql_psycopg2_version'
p115
(dp116
g6
(dp117
g8
S'_Library_Python_2_7_site-packages_django_db_backends_postgresql_psycopg2_version.html'
p118
sg10
S'/Library/Python/2.7/site-packages/django/db/backends/postgresql_psycopg2/version'
p119
sg12
g13
(g14
g15
NtRp120
(dp121
g18
I1
sg19
I0
sg20
I14
sg21
I0
sg22
I0
sg23
I8
sg24
I0
sbssg25
S'\xa8n\xb3&\xe2\xd0\x98\x7f\xee#\x05\x97\xa4\xb9\xf54'
p122
ssS'_Library_Python_2_7_site-packages_south_management_commands___init__'
p123
(dp124
g48
(dp125
g8
S'_Library_Python_2_7_site-packages_south_management_commands___init__.html'
p126
sg10
S'/Library/Python/2.7/site-packages/south/management/commands/__init__'
p127
sg12
g13
(g14
g15
NtRp128
(dp129
g18
I1
sg19
I0
sg20
I18
sg21
I0
sg22
I0
sg23
I1
sg24
I0
sbssg54
S'b&]\x8bu\x13\xcde\x13\xe0\xdc1\xc1\xe6B|'
p130
ssS'_Library_Python_2_7_site-packages_django_core_management_sql'
p131
(dp132
g48
(dp133
g8
S'_Library_Python_2_7_site-packages_django_core_management_sql.html'
p134
sg10
S'/Library/Python/2.7/site-packages/django/core/management/sql'
p135
sg12
g13
(g14
g15
NtRp136
(dp137
g18
I1
sg19
I0
sg20
I107
sg21
I0
sg22
I0
sg23
I76
sg24
I0
sbssg54
S'\xf7v;\xcd\x12\xa3\xdc\x13\x8a\x89\xe5l\xe3\xcc`\x9d'
p138
ssS'_Library_Python_2_7_site-packages_django_contrib_auth_hashers'
p139
(dp140
g48
(dp141
g8
S'_Library_Python_2_7_site-packages_django_contrib_auth_hashers.html'
p142
sg10
S'/Library/Python/2.7/site-packages/django/contrib/auth/hashers'
p143
sg12
g13
(g14
g15
NtRp144
(dp145
g18
I1
sg19
I0
sg20
I200
sg21
I0
sg22
I0
sg23
I134
sg24
I0
sbssg54
S':\x81\xf2h\xfaUD\xd8\xa9\xd3K\xbaz\xceY\xf6'
p146
ssS'_Library_Python_2_7_site-packages_django_test_simple'
p147
(dp148
g6
(dp149
S'html_filename'
p150
S'_Library_Python_2_7_site-packages_django_test_simple.html'
p151
sS'name'
p152
S'/Library/Python/2.7/site-packages/django/test/simple'
p153
sS'nums'
p154
g13
(g14
g15
NtRp155
(dp156
g18
I1
sg19
I0
sg20
I198
sg21
I0
sg22
I0
sg23
I72
sg24
I0
sbssg25
S'\x92\xa3\xaccV,\xdf\x8f.\xef\x96<\xe4i\xd6~'
p157
ssS'_Library_Python_2_7_site-packages_django_utils_tzinfo'
p158
(dp159
g6
(dp160
g59
S'_Library_Python_2_7_site-packages_django_utils_tzinfo.html'
p161
sg61
S'/Library/Python/2.7/site-packages/django/utils/tzinfo'
p162
sg63
g13
(g14
g15
NtRp163
(dp164
g18
I1
sg19
I0
sg20
I52
sg21
I0
sg22
I0
sg23
I34
sg24
I0
sbssg25
S'J\x85\xf4\xb5CA45\x13xif\xcd\x822M'
p165
ssS'_Library_Python_2_7_site-packages_south_management_commands_syncdb'
p166
(dp167
g48
(dp168
g8
S'_Library_Python_2_7_site-packages_south_management_commands_syncdb.html'
p169
sg10
S'/Library/Python/2.7/site-packages/south/management/commands/syncdb'
p170
sg12
g13
(g14
g15
NtRp171
(dp172
g18
I1
sg19
I0
sg20
I65
sg21
I0
sg22
I0
sg23
I13
sg24
I0
sbssg54
S'\r\xf5\n\xc4U-\x96X\xea]\xed\xf4-\xa0\xb5 '
p173
ssS'_Library_Python_2_7_site-packages_django_views_static'
p174
(dp175
g6
(dp176
g59
S'_Library_Python_2_7_site-packages_django_views_static.html'
p177
sg61
S'/Library/Python/2.7/site-packages/django/views/static'
p178
sg63
g13
(g14
g15
NtRp179
(dp180
g18
I1
sg19
I0
sg20
I74
sg21
I0
sg22
I0
sg23
I58
sg24
I0
sbssg25
S'\xc03WiA\xf43pq\xf8\xbc\x92?\xc6~\xa2'
p181
ssS'_Library_Python_2_7_site-packages_django_test_client'
p182
(dp183
g6
(dp184
g59
S'_Library_Python_2_7_site-packages_django_test_client.html'
p185
sg61
S'/Library/Python/2.7/site-packages/django/test/client'
p186
sg63
g13
(g14
g15
NtRp187
(dp188
g18
I1
sg19
I0
sg20
I260
sg21
I0
sg22
I0
sg23
I195
sg24
I0
sbssg25
S'O\xed`)\xcf.z\x08\x02\xa4\x82\x15f\x7f\x0e}'
p189
ssS'_Library_Python_2_7_site-packages_django_db_models_fields_proxy'
p190
(dp191
g6
(dp192
g59
S'_Library_Python_2_7_site-packages_django_db_models_fields_proxy.html'
p193
sg61
S'/Library/Python/2.7/site-packages/django/db/models/fields/proxy'
p194
sg63
g13
(g14
g15
NtRp195
(dp196
g18
I1
sg19
I0
sg20
I6
sg21
I0
sg22
I0
sg23
I3
sg24
I0
sbssg25
S'\xaf:\xd7\xa5\xadun\x1b\xb7\x141\x81\x80j\x94\xe6'
p197
ssS'_Library_Python_2_7_site-packages_django_utils_html'
p198
(dp199
g6
(dp200
g59
S'_Library_Python_2_7_site-packages_django_utils_html.html'
p201
sg61
S'/Library/Python/2.7/site-packages/django/utils/html'
p202
sg63
g13
(g14
g15
NtRp203
(dp204
g18
I1
sg19
I0
sg20
I133
sg21
I0
sg22
I0
sg23
I89
sg24
I0
sbssg25
S'\x16y \nh\x14<P\x87\x1b0\x11\xeeh]\xec'
p205
ssS'_Library_Python_2_7_site-packages_django_contrib_staticfiles_models'
p206
(dp207
g48
(dp208
g8
S'_Library_Python_2_7_site-packages_django_contrib_staticfiles_models.html'
p209
sg10
S'/Library/Python/2.7/site-packages/django/contrib/staticfiles/models'
p210
sg12
g13
(g14
g15
NtRp211
(dp212
g18
I1
sg19
I0
sg20
I0
sg21
I0
sg22
I0
sg23
I0
sg24
I0
sbssg54
S'\xb0\xc8pN\xaf>\xa0\xbaz\x144\xe0A9\xb8?'
p213
ssS'_Library_Python_2_7_site-packages_django___init__'
p214
(dp215
g6
(dp216
g59
S'_Library_Python_2_7_site-packages_django___init__.html'
p217
sg61
S'/Library/Python/2.7/site-packages/django/__init__'
p218
sg63
g13
(g14
g15
NtRp219
(dp220
g18
I1
sg19
I0
sg20
I18
sg21
I0
sg22
I0
sg23
I6
sg24
I0
sbssg25
S'\xf0\x13?\xd9\xba.\xecb\x02\xbc\xc7\x99)\xd7:\xea'
p221
ssS'_Library_Python_2_7_site-packages_django_db_backends_signals'
p222
(dp223
g6
(dp224
g59
S'_Library_Python_2_7_site-packages_django_db_backends_signals.html'
p225
sg61
S'/Library/Python/2.7/site-packages/django/db/backends/signals'
p226
sg63
g13
(g14
g15
NtRp227
(dp228
g18
I1
sg19
I0
sg20
I2
sg21
I0
sg22
I0
sg23
I0
sg24
I0
sbssg25
S'\xac\xe8\xc0\xe9\x8a\xd9d\xcc\x03\xc1\x89\xd4\xde\xa8x<'
p229
ssS'_Library_Python_2_7_site-packages_django_utils_datetime_safe'
p230
(dp231
g6
(dp232
g59
S'_Library_Python_2_7_site-packages_django_utils_datetime_safe.html'
p233
sg61
S'/Library/Python/2.7/site-packages/django/utils/datetime_safe'
p234
sg63
g13
(g14
g15
NtRp235
(dp236
g18
I1
sg19
I0
sg20
I56
sg21
I0
sg22
I0
sg23
I42
sg24
I0
sbssg25
S'\xcf\x16v\x83I\x1c\x906G\x91=\xec\x94\xfdf\xbe'
p237
ssS'_Library_Python_2_7_site-packages_django_http___init__'
p238
(dp239
g6
(dp240
g8
S'_Library_Python_2_7_site-packages_django_http___init__.html'
p241
sg10
S'/Library/Python/2.7/site-packages/django/http/__init__'
p242
sg12
g13
(g14
g15
NtRp243
(dp244
g18
I1
sg19
I0
sg20
I496
sg21
I0
sg22
I0
sg23
I316
sg24
I0
sbssg25
S'\xfe\x98v\xc5\xc6C\xa0:a\xcc\xd2oF\xbcy\x9a'
p245
ssS'_Library_Python_2_7_site-packages_django_utils_simplejson___init__'
p246
(dp247
g6
(dp248
g59
S'_Library_Python_2_7_site-packages_django_utils_simplejson___init__.html'
p249
sg61
S'/Library/Python/2.7/site-packages/django/utils/simplejson/__init__'
p250
sg63
g13
(g14
g15
NtRp251
(dp252
g18
I1
sg19
I0
sg20
I54
sg21
I0
sg22
I0
sg23
I39
sg24
I0
sbssg25
S"\xe5$x;'\x91@\x12\x06\xab)\x0c\x93\xca\xbde"
p253
ssS'_Library_Python_2_7_site-packages_django_core_management_commands_flush'
p254
(dp255
g48
(dp256
g8
S'_Library_Python_2_7_site-packages_django_core_management_commands_flush.html'
p257
sg10
S'/Library/Python/2.7/site-packages/django/core/management/commands/flush'
p258
sg12
g13
(g14
g15
NtRp259
(dp260
g18
I1
sg19
I0
sg20
I43
sg21
I0
sg22
I0
sg23
I31
sg24
I0
sbssg54
S'#jK\xce\x08\xd5\x8a\x8b\xac\xc6\x8c\x97\rC\xe0\x08'
p261
ssS'_Library_Python_2_7_site-packages_django_core_management_commands_syncdb'
p262
(dp263
g48
(dp264
g8
S'_Library_Python_2_7_site-packages_django_core_management_commands_syncdb.html'
p265
sg10
S'/Library/Python/2.7/site-packages/django/core/management/commands/syncdb'
p266
sg12
g13
(g14
g15
NtRp267
(dp268
g18
I1
sg19
I0
sg20
I100
sg21
I0
sg22
I0
sg23
I25
sg24
I0
sbssg54
S'\x8b.\xe7\xcb\xf35\xd5\xb0\xef/\xd5w\xc3\xf4I\xe9'
p269
ssS'_Library_Python_2_7_site-packages_django_contrib_admin_forms'
p270
(dp271
g48
(dp272
g8
S'_Library_Python_2_7_site-packages_django_contrib_admin_forms.html'
p273
sg10
S'/Library/Python/2.7/site-packages/django/contrib/admin/forms'
p274
sg12
g13
(g14
g15
NtRp275
(dp276
g18
I1
sg19
I0
sg20
I27
sg21
I0
sg22
I0
sg23
I18
sg24
I0
sbssg54
S'\xde\xbf\x04\xd5\xeb\xcbdH\xcc\x8d\xbb\n\xcd\xd1\xa0\x98'
p277
ssS'_Library_Python_2_7_site-packages_django_db_backends___init__'
p278
(dp279
g6
(dp280
g8
S'_Library_Python_2_7_site-packages_django_db_backends___init__.html'
p281
sg10
S'/Library/Python/2.7/site-packages/django/db/backends/__init__'
p282
sg12
g13
(g14
g15
NtRp283
(dp284
g18
I1
sg19
I0
sg20
I428
sg21
I0
sg22
I0
sg23
I166
sg24
I0
sbssg25
S'\xc6\xcf=Y\xc1\xd5\xad V8\xf4\xd8M\x04s\x97'
p285
ssS'_Library_Python_2_7_site-packages_django_utils___init__'
p286
(dp287
g6
(dp288
g59
S'_Library_Python_2_7_site-packages_django_utils___init__.html'
p289
sg61
S'/Library/Python/2.7/site-packages/django/utils/__init__'
p290
sg63
g13
(g14
g15
NtRp291
(dp292
g18
I1
sg19
I0
sg20
I0
sg21
I0
sg22
I0
sg23
I0
sg24
I0
sbssg25
S'\xb0\xc8pN\xaf>\xa0\xbaz\x144\xe0A9\xb8?'
p293
ssS'_Library_Python_2_7_site-packages_django_utils_timezone'
p294
(dp295
g6
(dp296
g8
S'_Library_Python_2_7_site-packages_django_utils_timezone.html'
p297
sg10
S'/Library/Python/2.7/site-packages/django/utils/timezone'
p298
sg12
g13
(g14
g15
NtRp299
(dp300
g18
I1
sg19
I0
sg20
I110
sg21
I0
sg22
I0
sg23
I63
sg24
I0
sbssg25
S'b\x8f\xd3fy\xd8\xd9\xd8\xc5d6\x00\xa3e\xdf\xac'
p301
ssS'_Library_Python_2_7_site-packages_django_core_files_utils'
p302
(dp303
g6
(dp304
g59
S'_Library_Python_2_7_site-packages_django_core_files_utils.html'
p305
sg61
S'/Library/Python/2.7/site-packages/django/core/files/utils'
p306
sg63
g13
(g14
g15
NtRp307
(dp308
g18
I1
sg19
I0
sg20
I19
sg21
I0
sg22
I0
sg23
I1
sg24
I0
sbssg25
S'\x91@)\xe4(\x81\xd6\xb8\x9b\x16\xc4\xeeh\x11e\xff'
p309
ssS'_Library_Python_2_7_site-packages_django_db_models_options'
p310
(dp311
g6
(dp312
S'html_filename'
p313
S'_Library_Python_2_7_site-packages_django_db_models_options.html'
p314
sS'name'
p315
S'/Library/Python/2.7/site-packages/django/db/models/options'
p316
sS'nums'
p317
g13
(g14
g15
NtRp318
(dp319
g18
I1
sg19
I0
sg20
I319
sg21
I0
sg22
I0
sg23
I84
sg24
I0
sbssg25
S'\xb1\x18\xee\x00\x1a\xb9<3B\x12\xd2\xd3\x19D+\xa4'
p320
ssS'_Library_Python_2_7_site-packages_django_db_models_sql_query'
p321
(dp322
g6
(dp323
g313
S'_Library_Python_2_7_site-packages_django_db_models_sql_query.html'
p324
sg315
S'/Library/Python/2.7/site-packages/django/db/models/sql/query'
p325
sg317
g13
(g14
g15
NtRp326
(dp327
g18
I1
sg19
I0
sg20
I1041
sg21
I0
sg22
I0
sg23
I577
sg24
I0
sbssg25
S'\xc3ug8Wl\xa0ws\xdfwm~{\x1cR'
p328
ssS'_Library_Python_2_7_site-packages_django_db_backends_util'
p329
(dp330
g6
(dp331
g8
S'_Library_Python_2_7_site-packages_django_db_backends_util.html'
p332
sg10
S'/Library/Python/2.7/site-packages/django/db/backends/util'
p333
sg12
g13
(g14
g15
NtRp334
(dp335
g18
I1
sg19
I0
sg20
I93
sg21
I0
sg22
I0
sg23
I62
sg24
I0
sbssg25
S'\x9cGE\xe0r\xef]p\x05\xd5K\xd6\x92j\x90\x9d'
p336
ssS'_Library_Python_2_7_site-packages_south___init__'
p337
(dp338
g48
(dp339
g8
S'_Library_Python_2_7_site-packages_south___init__.html'
p340
sg10
S'/Library/Python/2.7/site-packages/south/__init__'
p341
sg12
g13
(g14
g15
NtRp342
(dp343
g18
I1
sg19
I0
sg20
I2
sg21
I0
sg22
I0
sg23
I0
sg24
I0
sbssg54
S'2P\xd7RK.\x97\xb6\xc8\xb4\xc183\x03\xb2\x13'
p344
ssS'_Library_Python_2_7_site-packages_django_db_models_sql_where'
p345
(dp346
g6
(dp347
g8
S'_Library_Python_2_7_site-packages_django_db_models_sql_where.html'
p348
sg10
S'/Library/Python/2.7/site-packages/django/db/models/sql/where'
p349
sg12
g13
(g14
g15
NtRp350
(dp351
g18
I1
sg19
I0
sg20
I198
sg21
I0
sg22
I0
sg23
I84
sg24
I0
sbssg25
S'E\xec\x84\xdf\xd2vAu\x19\x01g\xd7\xb1H\xf1\x8e'
p352
ssS'_Library_Python_2_7_site-packages_django_template_base'
p353
(dp354
g6
(dp355
g8
S'_Library_Python_2_7_site-packages_django_template_base.html'
p356
sg10
S'/Library/Python/2.7/site-packages/django/template/base'
p357
sg12
g13
(g14
g15
NtRp358
(dp359
g18
I1
sg19
I0
sg20
I770
sg21
I0
sg22
I0
sg23
I557
sg24
I0
sbssg25
S'\xe3\x8b\xabY\x12\xaa\xad\xea\x89t\xb4o+f\x05\x15'
p360
ssS'_Library_Python_2_7_site-packages_django_utils_timesince'
p361
(dp362
g6
(dp363
g59
S'_Library_Python_2_7_site-packages_django_utils_timesince.html'
p364
sg61
S'/Library/Python/2.7/site-packages/django/utils/timesince'
p365
sg63
g13
(g14
g15
NtRp366
(dp367
g18
I1
sg19
I0
sg20
I28
sg21
I0
sg22
I0
sg23
I23
sg24
I0
sbssg25
S'\xfd1-5\xb5\xd0-~\xd5u\xc2\xb4/\xe6"0'
p368
ssS'_Library_Python_2_7_site-packages_django_forms_widgets'
p369
(dp370
g6
(dp371
g8
S'_Library_Python_2_7_site-packages_django_forms_widgets.html'
p372
sg10
S'/Library/Python/2.7/site-packages/django/forms/widgets'
p373
sg12
g13
(g14
g15
NtRp374
(dp375
g18
I1
sg19
I0
sg20
I559
sg21
I0
sg22
I0
sg23
I381
sg24
I0
sbssg25
S'D\xb0[]\x8a\x00\x86\xc8\xfe\xa2\x0f\x92\x9e\x8d\x8b3'
p376
ssS'_Library_Python_2_7_site-packages_django_core_mail_backends_base'
p377
(dp378
S'index'
p379
(dp380
S'html_filename'
p381
S'_Library_Python_2_7_site-packages_django_core_mail_backends_base.html'
p382
sS'name'
p383
S'/Library/Python/2.7/site-packages/django/core/mail/backends/base'
p384
sS'nums'
p385
g13
(g14
g15
NtRp386
(dp387
g18
I1
sg19
I0
sg20
I9
sg21
I0
sg22
I0
sg23
I3
sg24
I0
sbssS'hash'
p388
S'\xa8\x17\x18B\xfa\x01\xff\x94\xdd\xbb\xd5<\x91\x11s\xb3'
p389
ssS'_Library_Python_2_7_site-packages_django_contrib_sites_models'
p390
(dp391
g48
(dp392
g8
S'_Library_Python_2_7_site-packages_django_contrib_sites_models.html'
p393
sg10
S'/Library/Python/2.7/site-packages/django/contrib/sites/models'
p394
sg12
g13
(g14
g15
NtRp395
(dp396
g18
I1
sg19
I0
sg20
I55
sg21
I0
sg22
I0
sg23
I28
sg24
I0
sbssg54
S"\xea\x872\xf1'e3H\x04\xc9\x8d\x18;WZg"
p397
ssS'_Library_Python_2_7_site-packages_django_db_models_signals'
p398
(dp399
g6
(dp400
g59
S'_Library_Python_2_7_site-packages_django_db_models_signals.html'
p401
sg61
S'/Library/Python/2.7/site-packages/django/db/models/signals'
p402
sg63
g13
(g14
g15
NtRp403
(dp404
g18
I1
sg19
I0
sg20
I10
sg21
I0
sg22
I0
sg23
I0
sg24
I0
sbssg25
S'\xe2\x06\xfb\xdd\xac\xd4\xb2\xf8\\\x98T_\xb1W-\x19'
p405
ssS'_Library_Python_2_7_site-packages_django_utils_cache'
p406
(dp407
g48
(dp408
g8
S'_Library_Python_2_7_site-packages_django_utils_cache.html'
p409
sg10
S'/Library/Python/2.7/site-packages/django/utils/cache'
p410
sg12
g13
(g14
g15
NtRp411
(dp412
g18
I1
sg19
I0
sg20
I124
sg21
I0
sg22
I0
sg23
I101
sg24
I0
sbssg54
S'qc4\xc9\x18\xe4\x19"D\x96\xf9\x19\x0e\xac\xe3\xea'
p413
ssS'_Library_Python_2_7_site-packages_django_core_cache___init__'
p414
(dp415
g6
(dp416
g59
S'_Library_Python_2_7_site-packages_django_core_cache___init__.html'
p417
sg61
S'/Library/Python/2.7/site-packages/django/core/cache/__init__'
p418
sg63
g13
(g14
g15
NtRp419
(dp420
g18
I1
sg19
I0
sg20
I83
sg21
I0
sg22
I0
sg23
I29
sg24
I0
sbssg25
S'\x03J\xd1\xea9s5\xa2\x1c\xd2\x9d|J\xbeu\xb9'
p421
ssS'_Library_Python_2_7_site-packages_django_dispatch_saferef'
p422
(dp423
g6
(dp424
g59
S'_Library_Python_2_7_site-packages_django_dispatch_saferef.html'
p425
sg61
S'/Library/Python/2.7/site-packages/django/dispatch/saferef'
p426
sg63
g13
(g14
g15
NtRp427
(dp428
g18
I1
sg19
I0
sg20
I80
sg21
I0
sg22
I0
sg23
I59
sg24
I0
sbssg25
S'\xb8\xa2)1-\x80o\x8bm\x1e\x0bO\xe5\x12*\xd8'
p429
ssS'_Library_Python_2_7_site-packages_django_conf___init__'
p430
(dp431
g6
(dp432
g59
S'_Library_Python_2_7_site-packages_django_conf___init__.html'
p433
sg61
S'/Library/Python/2.7/site-packages/django/conf/__init__'
p434
sg63
g13
(g14
g15
NtRp435
(dp436
g18
I1
sg19
I0
sg20
I85
sg21
I0
sg22
I0
sg23
I28
sg24
I0
sbssg25
S'\xde\x01%5C\xac\xc9\xac\xb3\x10T\x7f`\xf7,r'
p437
ssS'_Library_Python_2_7_site-packages_south_migration_base'
p438
(dp439
g48
(dp440
g8
S'_Library_Python_2_7_site-packages_south_migration_base.html'
p441
sg10
S'/Library/Python/2.7/site-packages/south/migration/base'
p442
sg12
g13
(g14
g15
NtRp443
(dp444
g18
I1
sg19
I0
sg20
I274
sg21
I0
sg22
I0
sg23
I167
sg24
I0
sbssg54
S'\xd1\xc0z\xbd\xb1;=\x0b\xe8\x96\xfbSeL\xab\x0e'
p445
ssS'_Library_Python_2_7_site-packages_django_core_files_move'
p446
(dp447
g6
(dp448
g59
S'_Library_Python_2_7_site-packages_django_core_files_move.html'
p449
sg61
S'/Library/Python/2.7/site-packages/django/core/files/move'
p450
sg63
g13
(g14
g15
NtRp451
(dp452
g18
I1
sg19
I0
sg20
I47
sg21
I0
sg22
I0
sg23
I40
sg24
I0
sbssg25
S'y\\\xb7\x8a\xe3\xc5u\x9bK\xa2(CK\x07Q\x90'
p453
ssS'_Library_Python_2_7_site-packages_django_test__doctest'
p454
(dp455
g6
(dp456
g150
S'_Library_Python_2_7_site-packages_django_test__doctest.html'
p457
sg152
S'/Library/Python/2.7/site-packages/django/test/_doctest'
p458
sg154
g13
(g14
g15
NtRp459
(dp460
g18
I1
sg19
I0
sg20
I896
sg21
I0
sg22
I0
sg23
I753
sg24
I0
sbssg25
S'kv{\xa3w\xeb\x05&\xc6\xc6\xecEb\x90\x00\xf9'
p461
ssS'carpoolapp_views'
p462
(dp463
g48
(dp464
g313
S'carpoolapp_views.html'
p465
sg315
S'carpoolapp/views'
p466
sg317
g13
(g14
g15
NtRp467
(dp468
g18
I1
sg19
I0
sg20
I787
sg21
I0
sg22
I0
sg23
I234
sg24
I0
sbssg54
S'9\x19j\x13\x0c\\N\x91-g\x87kzi\xacU'
p469
ssS'_Library_Python_2_7_site-packages_django_middleware_cache'
p470
(dp471
g48
(dp472
g8
S'_Library_Python_2_7_site-packages_django_middleware_cache.html'
p473
sg10
S'/Library/Python/2.7/site-packages/django/middleware/cache'
p474
sg12
g13
(g14
g15
NtRp475
(dp476
g18
I1
sg19
I0
sg20
I91
sg21
I0
sg22
I0
sg23
I78
sg24
I0
sbssg54
S'j\xd2\xba\xdeY|T\xd2\xe2\x10\x1c\x7f\xe4m\x0c\x02'
p477
ssS'_Library_Python_2_7_site-packages_django_forms_util'
p478
(dp479
g6
(dp480
g59
S'_Library_Python_2_7_site-packages_django_forms_util.html'
p481
sg61
S'/Library/Python/2.7/site-packages/django/forms/util'
p482
sg63
g13
(g14
g15
NtRp483
(dp484
g18
I1
sg19
I0
sg20
I41
sg21
I0
sg22
I0
sg23
I22
sg24
I0
sbssg25
S'\xd5\xdd\xf1\x0c1\x8a\rz"\xf1\xc5\'q\xb3EH'
p485
ssS'_Library_Python_2_7_site-packages_django_utils_termcolors'
p486
(dp487
g6
(dp488
g59
S'_Library_Python_2_7_site-packages_django_utils_termcolors.html'
p489
sg61
S'/Library/Python/2.7/site-packages/django/utils/termcolors'
p490
sg63
g13
(g14
g15
NtRp491
(dp492
g18
I1
sg19
I0
sg20
I56
sg21
I0
sg22
I0
sg23
I40
sg24
I0
sbssg25
S')\xd7\xec/\xe0)\xeb\xed\xa3\\\xca\xca\xc8aI\xa8'
p493
ssS'_Library_Python_2_7_site-packages_django_contrib_sites___init__'
p494
(dp495
g48
(dp496
g8
S'_Library_Python_2_7_site-packages_django_contrib_sites___init__.html'
p497
sg10
S'/Library/Python/2.7/site-packages/django/contrib/sites/__init__'
p498
sg12
g13
(g14
g15
NtRp499
(dp500
g18
I1
sg19
I0
sg20
I0
sg21
I0
sg22
I0
sg23
I0
sg24
I0
sbssg54
S'\xb0\xc8pN\xaf>\xa0\xbaz\x144\xe0A9\xb8?'
p501
ssS'_Library_Python_2_7_site-packages_django_contrib_admin_widgets'
p502
(dp503
g48
(dp504
g8
S'_Library_Python_2_7_site-packages_django_contrib_admin_widgets.html'
p505
sg10
S'/Library/Python/2.7/site-packages/django/contrib/admin/widgets'
p506
sg12
g13
(g14
g15
NtRp507
(dp508
g18
I1
sg19
I0
sg20
I211
sg21
I0
sg22
I0
sg23
I148
sg24
I0
sbssg54
S'\xd8:v\xfea\x15\xe1\x01B\x8b\x16\x81\xff\xc7Q\x13'
p509
ssS'_Library_Python_2_7_site-packages_django_utils_baseconv'
p510
(dp511
g6
(dp512
g59
S'_Library_Python_2_7_site-packages_django_utils_baseconv.html'
p513
sg61
S'/Library/Python/2.7/site-packages/django/utils/baseconv'
p514
sg63
g13
(g14
g15
NtRp515
(dp516
g18
I1
sg19
I0
sg20
I48
sg21
I0
sg22
I0
sg23
I25
sg24
I0
sbssg25
S'1\xe8\xf6U\x98C\xe4\x99\x17*\xe3\xe1\x86\xeej\x0b'
p517
ssS'_Library_Python_2_7_site-packages_django_db___init__'
p518
(dp519
g6
(dp520
g59
S'_Library_Python_2_7_site-packages_django_db___init__.html'
p521
sg61
S'/Library/Python/2.7/site-packages/django/db/__init__'
p522
sg63
g13
(g14
g15
NtRp523
(dp524
g18
I1
sg19
I0
sg20
I32
sg21
I0
sg22
I0
sg23
I12
sg24
I0
sbssg25
S'\xbf\x07\xee\x9b\xb06\xa4@\xc5H\xcf\xed&\xbf\xc7\xd2'
p525
ssS'_Library_Python_2_7_site-packages_django_utils_functional'
p526
(dp527
g6
(dp528
g8
S'_Library_Python_2_7_site-packages_django_utils_functional.html'
p529
sg10
S'/Library/Python/2.7/site-packages/django/utils/functional'
p530
sg12
g13
(g14
g15
NtRp531
(dp532
g18
I1
sg19
I0
sg20
I168
sg21
I0
sg22
I0
sg23
I67
sg24
I0
sbssg25
S'\xcd\xf6c\x16\xb0\x06b\xb1\x95\xe3\xeb^\x807\xf3/'
p533
ssS'_Library_Python_2_7_site-packages_django_template___init__'
p534
(dp535
g6
(dp536
g59
S'_Library_Python_2_7_site-packages_django_template___init__.html'
p537
sg61
S'/Library/Python/2.7/site-packages/django/template/__init__'
p538
sg63
g13
(g14
g15
NtRp539
(dp540
g18
I1
sg19
I0
sg20
I6
sg21
I0
sg22
I0
sg23
I0
sg24
I0
sbssg25
S'\xb6\xa0l\x13\xa8q\x87\r\xa8\xea\xdd\x99\xef\xf5k\xd3'
p541
ssS'_Library_Python_2_7_site-packages_django_views_debug'
p542
(dp543
g6
(dp544
g59
S'_Library_Python_2_7_site-packages_django_views_debug.html'
p545
sg61
S'/Library/Python/2.7/site-packages/django/views/debug'
p546
sg63
g13
(g14
g15
NtRp547
(dp548
g18
I1
sg19
I0
sg20
I274
sg21
I0
sg22
I0
sg23
I230
sg24
I0
sbssg25
S'E\x1f\x8e\xc1[\xc0\xa1\xf0{\xa5;G!T\xff\x9f'
p549
ssS'_Library_Python_2_7_site-packages_django_forms_fields'
p550
(dp551
g6
(dp552
g8
S'_Library_Python_2_7_site-packages_django_forms_fields.html'
p553
sg10
S'/Library/Python/2.7/site-packages/django/forms/fields'
p554
sg12
g13
(g14
g15
NtRp555
(dp556
g18
I1
sg19
I0
sg20
I585
sg21
I0
sg22
I0
sg23
I381
sg24
I0
sbssg25
S'^\xd0-\x02o\xb8\x1d\xa2n;<\x87\x1c"V\xb5'
p557
ssS'_Library_Python_2_7_site-packages_django_contrib_contenttypes___init__'
p558
(dp559
g48
(dp560
g8
S'_Library_Python_2_7_site-packages_django_contrib_contenttypes___init__.html'
p561
sg10
S'/Library/Python/2.7/site-packages/django/contrib/contenttypes/__init__'
p562
sg12
g13
(g14
g15
NtRp563
(dp564
g18
I1
sg19
I0
sg20
I0
sg21
I0
sg22
I0
sg23
I0
sg24
I0
sbssg54
S'\xb0\xc8pN\xaf>\xa0\xbaz\x144\xe0A9\xb8?'
p565
ssS'_Library_Python_2_7_site-packages_django_forms_models'
p566
(dp567
g6
(dp568
g8
S'_Library_Python_2_7_site-packages_django_forms_models.html'
p569
sg10
S'/Library/Python/2.7/site-packages/django/forms/models'
p570
sg12
g13
(g14
g15
NtRp571
(dp572
g18
I1
sg19
I0
sg20
I584
sg21
I0
sg22
I0
sg23
I432
sg24
I0
sbssg25
S'Y\x10\x19\xdb\xc87\xc9\nq\x81\xd2i\xaa\x90S\x1e'
p573
ssS'_Library_Python_2_7_site-packages_django_db_models_deletion'
p574
(dp575
g6
(dp576
g8
S'_Library_Python_2_7_site-packages_django_db_models_deletion.html'
p577
sg10
S'/Library/Python/2.7/site-packages/django/db/models/deletion'
p578
sg12
g13
(g14
g15
NtRp579
(dp580
g18
I1
sg19
I0
sg20
I146
sg21
I0
sg22
I0
sg23
I48
sg24
I0
sbssg25
S'O\xa9\xe8F\xedG\xb0\x88\xf2XJ\x88R\xbc.!'
p581
ssS'manage'
p582
(dp583
g6
(dp584
g59
S'manage.html'
p585
sg61
g582
sg63
g13
(g14
g15
NtRp586
(dp587
g18
I1
sg19
I0
sg20
I6
sg21
I0
sg22
I0
sg23
I0
sg24
I0
sbssg25
S'\x80\x94\xf5\xd5\x11\x194\xbd$\xa6%\xe1e\x0c\x17\x15'
p588
ssS'_Library_Python_2_7_site-packages_django_contrib_auth_forms'
p589
(dp590
g48
(dp591
g8
S'_Library_Python_2_7_site-packages_django_contrib_auth_forms.html'
p592
sg10
S'/Library/Python/2.7/site-packages/django/contrib/auth/forms'
p593
sg12
g13
(g14
g15
NtRp594
(dp595
g18
I1
sg19
I0
sg20
I175
sg21
I0
sg22
I0
sg23
I103
sg24
I0
sbssg54
S'\x91\xff\xe6\xf0u\x92\x88\\a\xd6fR\xb5\xf8,E'
p596
ssS'_Library_Python_2_7_site-packages_django_contrib_admin_templatetags___init__'
p597
(dp598
g48
(dp599
g8
S'_Library_Python_2_7_site-packages_django_contrib_admin_templatetags___init__.html'
p600
sg10
S'/Library/Python/2.7/site-packages/django/contrib/admin/templatetags/__init__'
p601
sg12
g13
(g14
g15
NtRp602
(dp603
g18
I1
sg19
I0
sg20
I0
sg21
I0
sg22
I0
sg23
I0
sg24
I0
sbssg54
S'\xb0\xc8pN\xaf>\xa0\xbaz\x144\xe0A9\xb8?'
p604
ssS'_Library_Python_2_7_site-packages_django_contrib_admin___init__'
p605
(dp606
g48
(dp607
g8
S'_Library_Python_2_7_site-packages_django_contrib_admin___init__.html'
p608
sg10
S'/Library/Python/2.7/site-packages/django/contrib/admin/__init__'
p609
sg12
g13
(g14
g15
NtRp610
(dp611
g18
I1
sg19
I0
sg20
I19
sg21
I0
sg22
I0
sg23
I13
sg24
I0
sbssg54
S'yXLFz\xa7\xfe#\x11\xea+\xc9\x1dR"\xfc'
p612
ssS'_Library_Python_2_7_site-packages_south_logger'
p613
(dp614
g48
(dp615
g8
S'_Library_Python_2_7_site-packages_south_logger.html'
p616
sg10
S'/Library/Python/2.7/site-packages/south/logger'
p617
sg12
g13
(g14
g15
NtRp618
(dp619
g18
I1
sg19
I0
sg20
I26
sg21
I0
sg22
I0
sg23
I14
sg24
I0
sbssg54
S'\xbdZM{\x9f\xd1\xfe\xb2\xa9D\xf0\xe2c,\xdf\xee'
p620
ssS'_Library_Python_2_7_site-packages_django_utils_text'
p621
(dp622
g6
(dp623
g59
S'_Library_Python_2_7_site-packages_django_utils_text.html'
p624
sg61
S'/Library/Python/2.7/site-packages/django/utils/text'
p625
sg63
g13
(g14
g15
NtRp626
(dp627
g18
I1
sg19
I0
sg20
I210
sg21
I0
sg22
I0
sg23
I158
sg24
I0
sbssg25
S'\'\x8f\xf8?\xbc\xc41"\xb0\x17\x14V"\x98\x1a\x8e'
p628
ssS'_Library_Python_2_7_site-packages_django_core_signals'
p629
(dp630
g6
(dp631
g59
S'_Library_Python_2_7_site-packages_django_core_signals.html'
p632
sg61
S'/Library/Python/2.7/site-packages/django/core/signals'
p633
sg63
g13
(g14
g15
NtRp634
(dp635
g18
I1
sg19
I0
sg20
I4
sg21
I0
sg22
I0
sg23
I0
sg24
I0
sbssg25
S'\xa8\x92\x82\x13=\x82/\x06\xba\xb2\xa6\xad\xc4o\x81\xc2'
p636
ssS'_Library_Python_2_7_site-packages_django_template_loader_tags'
p637
(dp638
g6
(dp639
g59
S'_Library_Python_2_7_site-packages_django_template_loader_tags.html'
p640
sg61
S'/Library/Python/2.7/site-packages/django/template/loader_tags'
p641
sg63
g13
(g14
g15
NtRp642
(dp643
g18
I1
sg19
I0
sg20
I177
sg21
I0
sg22
I0
sg23
I140
sg24
I0
sbssg25
S'+\x06\xf7\x8aT\x17\x9c\xfcr\x06&\x07\xe8a\t\xc5'
p644
ssS'carpoolapp_testLib'
p645
(dp646
g48
(dp647
S'html_filename'
p648
S'carpoolapp_testLib.html'
p649
sS'name'
p650
S'carpoolapp/testLib'
p651
sS'nums'
p652
g13
(g14
g15
NtRp653
(dp654
g18
I1
sg19
I0
sg20
I86
sg21
I0
sg22
I0
sg23
I43
sg24
I0
sbssg54
S'\xdf,\xa3\x10\xae\x7f\x92\\\xd5\xa5\xdc\x08\xe9*\x98\xa1'
p655
ssS'carpool___init__'
p656
(dp657
g6
(dp658
g59
S'carpool___init__.html'
p659
sg61
S'carpool/__init__'
p660
sg63
g13
(g14
g15
NtRp661
(dp662
g18
I1
sg19
I0
sg20
I0
sg21
I0
sg22
I0
sg23
I0
sg24
I0
sbssg25
S'\xb0\xc8pN\xaf>\xa0\xbaz\x144\xe0A9\xb8?'
p663
ssS'_Library_Python_2_7_site-packages_django_core_management___init__'
p664
(dp665
g6
(dp666
g8
S'_Library_Python_2_7_site-packages_django_core_management___init__.html'
p667
sg10
S'/Library/Python/2.7/site-packages/django/core/management/__init__'
p668
sg12
g13
(g14
g15
NtRp669
(dp670
g18
I1
sg19
I0
sg20
I203
sg21
I0
sg22
I0
sg23
I99
sg24
I0
sbssg25
S'\x92k\xdb\x99\x1b;\xc8c\xc3j\x14\x8b\xa6\xb2\xda\xac'
p671
ssS'_Library_Python_2_7_site-packages_django_utils_tree'
p672
(dp673
g6
(dp674
g8
S'_Library_Python_2_7_site-packages_django_utils_tree.html'
p675
sg10
S'/Library/Python/2.7/site-packages/django/utils/tree'
p676
sg12
g13
(g14
g15
NtRp677
(dp678
g18
I1
sg19
I0
sg20
I62
sg21
I0
sg22
I0
sg23
I18
sg24
I0
sbssg25
S'5I\xa85\xa0#Y\x00\xce\xe3\xc4\xb0=7\xaa\x8c'
p679
ssS'_Library_Python_2_7_site-packages_django_db_models_sql___init__'
p680
(dp681
g6
(dp682
g59
S'_Library_Python_2_7_site-packages_django_db_models_sql___init__.html'
p683
sg61
S'/Library/Python/2.7/site-packages/django/db/models/sql/__init__'
p684
sg63
g13
(g14
g15
NtRp685
(dp686
g18
I1
sg19
I0
sg20
I6
sg21
I0
sg22
I0
sg23
I0
sg24
I0
sbssg25
S'\xea\xf8\xff\x94\xe8\x06\xd7@N\x8e\xb9\x9b)&=f'
p687
ssS'_Library_Python_2_7_site-packages_django_forms_formsets'
p688
(dp689
g6
(dp690
g59
S'_Library_Python_2_7_site-packages_django_forms_formsets.html'
p691
sg61
S'/Library/Python/2.7/site-packages/django/forms/formsets'
p692
sg63
g13
(g14
g15
NtRp693
(dp694
g18
I1
sg19
I0
sg20
I216
sg21
I0
sg22
I0
sg23
I155
sg24
I0
sbssg25
S'U]O\xd9_\xeb\n<EfSe\xd0b\x17\xfd'
p695
ssS'_Library_Python_2_7_site-packages_django_contrib_messages_constants'
p696
(dp697
g48
(dp698
g8
S'_Library_Python_2_7_site-packages_django_contrib_messages_constants.html'
p699
sg10
S'/Library/Python/2.7/site-packages/django/contrib/messages/constants'
p700
sg12
g13
(g14
g15
NtRp701
(dp702
g18
I1
sg19
I0
sg20
I6
sg21
I0
sg22
I0
sg23
I0
sg24
I0
sbssg54
S'\xe2n\xbf/\x11\x9a\xf2\xc6\xa4\x8f~\xd2\x91y\xd4\xda'
p703
ssS'_Library_Python_2_7_site-packages_django_core___init__'
p704
(dp705
g6
(dp706
g59
S'_Library_Python_2_7_site-packages_django_core___init__.html'
p707
sg61
S'/Library/Python/2.7/site-packages/django/core/__init__'
p708
sg63
g13
(g14
g15
NtRp709
(dp710
g18
I1
sg19
I0
sg20
I0
sg21
I0
sg22
I0
sg23
I0
sg24
I0
sbssg25
S'\xb0\xc8pN\xaf>\xa0\xbaz\x144\xe0A9\xb8?'
p711
ssS'_Library_Python_2_7_site-packages_django_contrib_auth___init__'
p712
(dp713
g6
(dp714
g59
S'_Library_Python_2_7_site-packages_django_contrib_auth___init__.html'
p715
sg61
S'/Library/Python/2.7/site-packages/django/contrib/auth/__init__'
p716
sg63
g13
(g14
g15
NtRp717
(dp718
g18
I1
sg19
I0
sg20
I73
sg21
I0
sg22
I0
sg23
I60
sg24
I0
sbssg25
S'B_M\x9d\x87\xec\xba\x84W\x9b\xf6\x96\xf9oC\x9c'
p719
ssS'_Library_Python_2_7_site-packages_django_test_utils'
p720
(dp721
g6
(dp722
g8
S'_Library_Python_2_7_site-packages_django_test_utils.html'
p723
sg10
S'/Library/Python/2.7/site-packages/django/test/utils'
p724
sg12
g13
(g14
g15
NtRp725
(dp726
g18
I1
sg19
I0
sg20
I121
sg21
I0
sg22
I0
sg23
I69
sg24
I0
sbssg25
S'H\xee\x01\x07}\xa41T\xf8t\xe0\r\x00\xba{\xad'
p727
ssS'_Library_Python_2_7_site-packages_south_utils___init__'
p728
(dp729
g48
(dp730
g8
S'_Library_Python_2_7_site-packages_south_utils___init__.html'
p731
sg10
S'/Library/Python/2.7/site-packages/south/utils/__init__'
p732
sg12
g13
(g14
g15
NtRp733
(dp734
g18
I1
sg19
I0
sg20
I38
sg21
I0
sg22
I0
sg23
I12
sg24
I0
sbssg54
S'[\\A\x96\xa4!\x1c\x83Uf\xdd\x08H\x10g\xca'
p735
ssS'_Library_Python_2_7_site-packages_django_test_html'
p736
(dp737
g6
(dp738
g59
S'_Library_Python_2_7_site-packages_django_test_html.html'
p739
sg61
S'/Library/Python/2.7/site-packages/django/test/html'
p740
sg63
g13
(g14
g15
NtRp741
(dp742
g18
I1
sg19
I0
sg20
I160
sg21
I0
sg22
I0
sg23
I126
sg24
I0
sbssg25
S'\x94\x99a\xaf\xa6\x83\xd3\xab\xe4\xc2h`$\xab\xde\xbb'
p743
ssS'_Library_Python_2_7_site-packages_django_core_cache_backends_locmem'
p744
(dp745
g6
(dp746
g59
S'_Library_Python_2_7_site-packages_django_core_cache_backends_locmem.html'
p747
sg61
S'/Library/Python/2.7/site-packages/django/core/cache/backends/locmem'
p748
sg63
g13
(g14
g15
NtRp749
(dp750
g18
I1
sg19
I0
sg20
I120
sg21
I0
sg22
I0
sg23
I93
sg24
I0
sbssg25
S"*\x1f\x1f<\x8b\x1f\x18\xc9zxN\x18S\xa9'\x91"
p751
ssS'_Library_Python_2_7_site-packages_django_db_models_sql_constants'
p752
(dp753
g6
(dp754
g59
S'_Library_Python_2_7_site-packages_django_db_models_sql_constants.html'
p755
sg61
S'/Library/Python/2.7/site-packages/django/db/models/sql/constants'
p756
sg63
g13
(g14
g15
NtRp757
(dp758
g18
I1
sg19
I0
sg20
I15
sg21
I0
sg22
I0
sg23
I0
sg24
I0
sbssg25
S'_\xa8i4X\x9e\xb0\tKL\xa8\xac8"\x1a\x13'
p759
ssS'_Library_Python_2_7_site-packages_django_http_utils'
p760
(dp761
g6
(dp762
g59
S'_Library_Python_2_7_site-packages_django_http_utils.html'
p763
sg61
S'/Library/Python/2.7/site-packages/django/http/utils'
p764
sg63
g13
(g14
g15
NtRp765
(dp766
g18
I1
sg19
I0
sg20
I39
sg21
I0
sg22
I0
sg23
I35
sg24
I0
sbssg25
S"\xbb\xc3'\xa8C\x18g\x9cz\x03V\xe9i\xd4'Y"
p767
ssS'_Library_Python_2_7_site-packages_django_core_files_locks'
p768
(dp769
g6
(dp770
g59
S'_Library_Python_2_7_site-packages_django_core_files_locks.html'
p771
sg61
S'/Library/Python/2.7/site-packages/django/core/files/locks'
p772
sg63
g13
(g14
g15
NtRp773
(dp774
g18
I1
sg19
I0
sg20
I40
sg21
I0
sg22
I0
sg23
I23
sg24
I0
sbssg25
S'\x18\xad\x19x\x91p\n\x1a\x14\xf5\x00\xd2\xaf\xb8\xfa\xc5'
p775
ssS'_Library_Python_2_7_site-packages_django_db_models_expressions'
p776
(dp777
g6
(dp778
g59
S'_Library_Python_2_7_site-packages_django_db_models_expressions.html'
p779
sg61
S'/Library/Python/2.7/site-packages/django/db/models/expressions'
p780
sg63
g13
(g14
g15
NtRp781
(dp782
g18
I1
sg19
I0
sg20
I80
sg21
I0
sg22
I0
sg23
I43
sg24
I0
sbssg25
S'mo\x1e\x15\xa0\xc1\x8a\x13\xf7\xaen\x81\xfc_\x0e\xa5'
p783
ssS'_Library_Python_2_7_site-packages_django_core_files_images'
p784
(dp785
g6
(dp786
g59
S'_Library_Python_2_7_site-packages_django_core_files_images.html'
p787
sg61
S'/Library/Python/2.7/site-packages/django/core/files/images'
p788
sg63
g13
(g14
g15
NtRp789
(dp790
g18
I1
sg19
I0
sg20
I40
sg21
I0
sg22
I0
sg23
I32
sg24
I0
sbssg25
S'\xcf\x19\xca\xed\xd0\x9f\xdd\x00\xc0\xb9\xceq\xff\xa6JJ'
p791
ssS'_Library_Python_2_7_site-packages_django_utils_safestring'
p792
(dp793
g6
(dp794
g8
S'_Library_Python_2_7_site-packages_django_utils_safestring.html'
p795
sg10
S'/Library/Python/2.7/site-packages/django/utils/safestring'
p796
sg12
g13
(g14
g15
NtRp797
(dp798
g18
I1
sg19
I0
sg20
I57
sg21
I0
sg22
I0
sg23
I31
sg24
I0
sbssg25
S'\xd5\x8c/m\x01p\xe3\x00b\xa4\xcf\xe1\xbe\x0c\xa2a'
p799
ssS'_Library_Python_2_7_site-packages_django_template_loader'
p800
(dp801
g6
(dp802
g8
S'_Library_Python_2_7_site-packages_django_template_loader.html'
p803
sg10
S'/Library/Python/2.7/site-packages/django/template/loader'
p804
sg12
g13
(g14
g15
NtRp805
(dp806
g18
I1
sg19
I0
sg20
I104
sg21
I0
sg22
I0
sg23
I80
sg24
I0
sbssg25
S'}*y(\xae\xf9\x12\x11\xd0\xee\xad\xd5\x89\xe9\x9e\xea'
p807
ssS'_Library_Python_2_7_site-packages_django_forms___init__'
p808
(dp809
g6
(dp810
g59
S'_Library_Python_2_7_site-packages_django_forms___init__.html'
p811
sg61
S'/Library/Python/2.7/site-packages/django/forms/__init__'
p812
sg63
g13
(g14
g15
NtRp813
(dp814
g18
I1
sg19
I0
sg20
I6
sg21
I0
sg22
I0
sg23
I0
sg24
I0
sbssg25
S"\xfb\x98'\xfe<\x95\xf2Q\xfe,\xaeF\t[\xfeP"
p815
ssS'_Library_Python_2_7_site-packages_django_contrib_sessions_backends___init__'
p816
(dp817
g48
(dp818
g8
S'_Library_Python_2_7_site-packages_django_contrib_sessions_backends___init__.html'
p819
sg10
S'/Library/Python/2.7/site-packages/django/contrib/sessions/backends/__init__'
p820
sg12
g13
(g14
g15
NtRp821
(dp822
g18
I1
sg19
I0
sg20
I0
sg21
I0
sg22
I0
sg23
I0
sg24
I0
sbssg54
S'\xb0\xc8pN\xaf>\xa0\xbaz\x144\xe0A9\xb8?'
p823
ssS'_Library_Python_2_7_site-packages_south_management_commands_test'
p824
(dp825
g48
(dp826
g8
S'_Library_Python_2_7_site-packages_south_management_commands_test.html'
p827
sg10
S'/Library/Python/2.7/site-packages/south/management/commands/test'
p828
sg12
g13
(g14
g15
NtRp829
(dp830
g18
I1
sg19
I0
sg20
I6
sg21
I0
sg22
I0
sg23
I0
sg24
I0
sbssg54
S"\x98'+\xf5\x95\xb5zx\xee\xd4\x1f\xc1\xe6\xc8\xb3\xfd"
p831
ssS'_Library_Python_2_7_site-packages_psycopg2_extensions'
p832
(dp833
g6
(dp834
g59
S'_Library_Python_2_7_site-packages_psycopg2_extensions.html'
p835
sg61
S'/Library/Python/2.7/site-packages/psycopg2/extensions'
p836
sg63
g13
(g14
g15
NtRp837
(dp838
g18
I1
sg19
I0
sg20
I84
sg21
I0
sg22
I0
sg23
I22
sg24
I0
sbssg25
S'L\xf2+\x0b\x89\x9d\xf8"kV\xbc9\xa5\x8fkz'
p839
ssS'_Library_Python_2_7_site-packages_django_utils_html_parser'
p840
(dp841
g6
(dp842
g59
S'_Library_Python_2_7_site-packages_django_utils_html_parser.html'
p843
sg61
S'/Library/Python/2.7/site-packages/django/utils/html_parser'
p844
sg63
g13
(g14
g15
NtRp845
(dp846
g18
I1
sg19
I0
sg20
I79
sg21
I0
sg22
I0
sg23
I67
sg24
I0
sbssg25
S'\x97\xe2\x0cix\x9d\x1c\x1d\x822\xcb\xcf\xd5\xffO\xd4'
p847
ssS'_Library_Python_2_7_site-packages_django_core_signing'
p848
(dp849
g6
(dp850
g59
S'_Library_Python_2_7_site-packages_django_core_signing.html'
p851
sg61
S'/Library/Python/2.7/site-packages/django/core/signing'
p852
sg63
g13
(g14
g15
NtRp853
(dp854
g18
I1
sg19
I0
sg20
I92
sg21
I0
sg22
I0
sg23
I61
sg24
I0
sbssg25
S'\xb7\x1bS\x13Q\xb4\xf5k\x90\xf7hKv\xf0\xb8\x87'
p855
ssS'_Library_Python_2_7_site-packages_django_utils_translation___init__'
p856
(dp857
g6
(dp858
g8
S'_Library_Python_2_7_site-packages_django_utils_translation___init__.html'
p859
sg10
S'/Library/Python/2.7/site-packages/django/utils/translation/__init__'
p860
sg12
g13
(g14
g15
NtRp861
(dp862
g18
I1
sg19
I0
sg20
I86
sg21
I0
sg22
I0
sg23
I26
sg24
I0
sbssg25
S'\xda\xd8\xce\xd4\xc15\xcb*\xa5\xefV\\\x97\x87L\x0b'
p863
ssS'_Library_Python_2_7_site-packages_django_core_servers___init__'
p864
(dp865
g6
(dp866
g59
S'_Library_Python_2_7_site-packages_django_core_servers___init__.html'
p867
sg61
S'/Library/Python/2.7/site-packages/django/core/servers/__init__'
p868
sg63
g13
(g14
g15
NtRp869
(dp870
g18
I1
sg19
I0
sg20
I0
sg21
I0
sg22
I0
sg23
I0
sg24
I0
sbssg25
S'\xb0\xc8pN\xaf>\xa0\xbaz\x144\xe0A9\xb8?'
p871
ssS'_Library_Python_2_7_site-packages_django_contrib_admin_sites'
p872
(dp873
g48
(dp874
g8
S'_Library_Python_2_7_site-packages_django_contrib_admin_sites.html'
p875
sg10
S'/Library/Python/2.7/site-packages/django/contrib/admin/sites'
p876
sg12
g13
(g14
g15
NtRp877
(dp878
g18
I1
sg19
I0
sg20
I203
sg21
I0
sg22
I0
sg23
I146
sg24
I0
sbssg54
S'Mu\xc1\xf3\xa4\xd9D%Sd\xae\x1e\xcetA\x13'
p879
ssS'_Library_Python_2_7_site-packages_pytz_tzfile'
p880
(dp881
g6
(dp882
g8
S'_Library_Python_2_7_site-packages_pytz_tzfile.html'
p883
sg10
S'/Library/Python/2.7/site-packages/pytz/tzfile'
p884
sg12
g13
(g14
g15
NtRp885
(dp886
g18
I1
sg19
I0
sg20
I81
sg21
I0
sg22
I0
sg23
I18
sg24
I0
sbssg25
S'\xa5\xcd\\>\xec\x1f1p\x01\x0c\x86\x93\x16\x8bI\xb3'
p887
ssS'_Library_Python_2_7_site-packages_django_core_files_base'
p888
(dp889
g6
(dp890
g59
S'_Library_Python_2_7_site-packages_django_core_files_base.html'
p891
sg61
S'/Library/Python/2.7/site-packages/django/core/files/base'
p892
sg63
g13
(g14
g15
NtRp893
(dp894
g18
I1
sg19
I0
sg20
I90
sg21
I0
sg22
I0
sg23
I59
sg24
I0
sbssg25
S'w\x89\xd9X\xe9\xd8\xac\x9b\xd1\xb9\xbc\xa3\xe5\xa3\xa1x'
p895
ssS'_Library_Python_2_7_site-packages_django_core_management_commands_loaddata'
p896
(dp897
g48
(dp898
g8
S'_Library_Python_2_7_site-packages_django_core_management_commands_loaddata.html'
p899
sg10
S'/Library/Python/2.7/site-packages/django/core/management/commands/loaddata'
p900
sg12
g13
(g14
g15
NtRp901
(dp902
g18
I1
sg19
I0
sg20
I163
sg21
I0
sg22
I0
sg23
I141
sg24
I0
sbssg54
S'\xcb?\xf1\x84j\x90\x15\xefx\xfc8\x93+\xd4\x81)'
p903
ssS'_Library_Python_2_7_site-packages_django_template_smartif'
p904
(dp905
g6
(dp906
g59
S'_Library_Python_2_7_site-packages_django_template_smartif.html'
p907
sg61
S'/Library/Python/2.7/site-packages/django/template/smartif'
p908
sg63
g13
(g14
g15
NtRp909
(dp910
g18
I1
sg19
I0
sg20
I104
sg21
I0
sg22
I0
sg23
I61
sg24
I0
sbssg25
S'\xdd)I\xf1\xfb\xd4\xfe\x86hd0\x89\x8a|\xf9\x8a'
p911
ssS'_Library_Python_2_7_site-packages_django_db_models_sql_aggregates'
p912
(dp913
g6
(dp914
g59
S'_Library_Python_2_7_site-packages_django_db_models_sql_aggregates.html'
p915
sg61
S'/Library/Python/2.7/site-packages/django/db/models/sql/aggregates'
p916
sg63
g13
(g14
g15
NtRp917
(dp918
g18
I1
sg19
I0
sg20
I57
sg21
I0
sg22
I0
sg23
I27
sg24
I0
sbssg25
S'"\xd6\xd4\x0f\xa9\xc7/\xabr\x93@\x0b\x90p\xca\xdf'
p919
ssS'_Library_Python_2_7_site-packages_django_shortcuts___init__'
p920
(dp921
g48
(dp922
g8
S'_Library_Python_2_7_site-packages_django_shortcuts___init__.html'
p923
sg10
S'/Library/Python/2.7/site-packages/django/shortcuts/__init__'
p924
sg12
g13
(g14
g15
NtRp925
(dp926
g18
I1
sg19
I0
sg20
I52
sg21
I0
sg22
I0
sg23
I40
sg24
I0
sbssg54
S'\x0e\xab\xe7\xd7E\x98"9p\x14;\xae\x11@l\x7f'
p927
ssS'_Library_Python_2_7_site-packages_django_views_decorators_csrf'
p928
(dp929
g48
(dp930
g8
S'_Library_Python_2_7_site-packages_django_views_decorators_csrf.html'
p931
sg10
S'/Library/Python/2.7/site-packages/django/views/decorators/csrf'
p932
sg12
g13
(g14
g15
NtRp933
(dp934
g18
I1
sg19
I0
sg20
I34
sg21
I0
sg22
I0
sg23
I9
sg24
I0
sbssg54
S'*\xd8+Z\xa9\xf5\x97\xcf\x98o\x88\x910\xe1T\x96'
p935
ssS'_Library_Python_2_7_site-packages_pytz___init__'
p936
(dp937
g6
(dp938
S'html_filename'
p939
S'_Library_Python_2_7_site-packages_pytz___init__.html'
p940
sS'name'
p941
S'/Library/Python/2.7/site-packages/pytz/__init__'
p942
sS'nums'
p943
g13
(g14
g15
NtRp944
(dp945
g18
I1
sg19
I0
sg20
I206
sg21
I0
sg22
I0
sg23
I104
sg24
I0
sbssg25
S'0.\xfcb\xb3\x8f\xb9\xa6=\x8a\xc6\xf2:\xb1\r\xd4'
p946
ssS'_Library_Python_2_7_site-packages_django_contrib_sites_management'
p947
(dp948
g48
(dp949
g8
S'_Library_Python_2_7_site-packages_django_contrib_sites_management.html'
p950
sg10
S'/Library/Python/2.7/site-packages/django/contrib/sites/management'
p951
sg12
g13
(g14
g15
NtRp952
(dp953
g18
I1
sg19
I0
sg20
I20
sg21
I0
sg22
I0
sg23
I2
sg24
I0
sbssg54
S'\xe1\xdc;QH^g.v\x17\x19\x0e\xad\xd9\x96\xdc'
p954
ssS'_Library_Python_2_7_site-packages_django_core_cache_backends_base'
p955
(dp956
g6
(dp957
g59
S'_Library_Python_2_7_site-packages_django_core_cache_backends_base.html'
p958
sg61
S'/Library/Python/2.7/site-packages/django/core/cache/backends/base'
p959
sg63
g13
(g14
g15
NtRp960
(dp961
g18
I1
sg19
I0
sg20
I99
sg21
I0
sg22
I0
sg23
I54
sg24
I0
sbssg25
S'#J\xfe\x1c\xfd\x80\xd1t9\x81\xdc\x9b\xcf\xc9\xd6\xeb'
p962
ssS'_Library_Python_2_7_site-packages_django_utils_encoding'
p963
(dp964
g6
(dp965
g8
S'_Library_Python_2_7_site-packages_django_utils_encoding.html'
p966
sg10
S'/Library/Python/2.7/site-packages/django/utils/encoding'
p967
sg12
g13
(g14
g15
NtRp968
(dp969
g18
I1
sg19
I0
sg20
I82
sg21
I0
sg22
I0
sg23
I34
sg24
I0
sbssg25
S'\xe5]\x9e(\xfc\x0bk\x90\xbf\n\xc8\xb0T\x16c\xe3'
p970
ssS'_Library_Python_2_7_site-packages_django_db_backends_postgresql_psycopg2___init__'
p971
(dp972
g6
(dp973
g59
S'_Library_Python_2_7_site-packages_django_db_backends_postgresql_psycopg2___init__.html'
p974
sg61
S'/Library/Python/2.7/site-packages/django/db/backends/postgresql_psycopg2/__init__'
p975
sg63
g13
(g14
g15
NtRp976
(dp977
g18
I1
sg19
I0
sg20
I0
sg21
I0
sg22
I0
sg23
I0
sg24
I0
sbssg25
S'\xb0\xc8pN\xaf>\xa0\xbaz\x144\xe0A9\xb8?'
p978
ssS'_Library_Python_2_7_site-packages_django_template_context'
p979
(dp980
g6
(dp981
g59
S'_Library_Python_2_7_site-packages_django_template_context.html'
p982
sg61
S'/Library/Python/2.7/site-packages/django/template/context'
p983
sg63
g13
(g14
g15
NtRp984
(dp985
g18
I1
sg19
I0
sg20
I111
sg21
I0
sg22
I0
sg23
I78
sg24
I0
sbssg25
S"\x9b\xe5\x82$\xa9\x97\xdeD\x9f'6\n\xa2\xdcU\xb5"
p986
ssS'_Library_Python_2_7_site-packages_django_template_loaders_cached'
p987
(dp988
g6
(dp989
g59
S'_Library_Python_2_7_site-packages_django_template_loaders_cached.html'
p990
sg61
S'/Library/Python/2.7/site-packages/django/template/loaders/cached'
p991
sg63
g13
(g14
g15
NtRp992
(dp993
g18
I1
sg19
I0
sg20
I39
sg21
I0
sg22
I0
sg23
I29
sg24
I0
sbssg25
S'\xbd\x94\xffb;\xa88z\x13\xeezM[\x94x\xb4'
p994
ssS'_Library_Python_2_7_site-packages_django_db_utils'
p995
(dp996
g6
(dp997
g8
S'_Library_Python_2_7_site-packages_django_db_utils.html'
p998
sg10
S'/Library/Python/2.7/site-packages/django/db/utils'
p999
sg12
g13
(g14
g15
NtRp1000
(dp1001
g18
I1
sg19
I0
sg20
I120
sg21
I0
sg22
I0
sg23
I58
sg24
I0
sbssg25
S'Sv\xb3q\x8e\xc4p\xf3\xddK\xa8I\x86\xb1\xee\xa9'
p1002
ssS'_Library_Python_2_7_site-packages_django_core_management_commands___init__'
p1003
(dp1004
g6
(dp1005
g59
S'_Library_Python_2_7_site-packages_django_core_management_commands___init__.html'
p1006
sg61
S'/Library/Python/2.7/site-packages/django/core/management/commands/__init__'
p1007
sg63
g13
(g14
g15
NtRp1008
(dp1009
g18
I1
sg19
I0
sg20
I0
sg21
I0
sg22
I0
sg23
I0
sg24
I0
sbssg25
S'\xb0\xc8pN\xaf>\xa0\xbaz\x144\xe0A9\xb8?'
p1010
ssS'_Library_Python_2_7_site-packages_django_db_models_fields_related'
p1011
(dp1012
g6
(dp1013
g8
S'_Library_Python_2_7_site-packages_django_db_models_fields_related.html'
p1014
sg10
S'/Library/Python/2.7/site-packages/django/db/models/fields/related'
p1015
sg12
g13
(g14
g15
NtRp1016
(dp1017
g18
I1
sg19
I0
sg20
I713
sg21
I0
sg22
I0
sg23
I406
sg24
I0
sbssg25
S'\x8e0\x9alt\xa6n\x8c\xc04 \x85D\xd6n;'
p1018
ssS'_Library_Python_2_7_site-packages_django_utils_numberformat'
p1019
(dp1020
g6
(dp1021
g59
S'_Library_Python_2_7_site-packages_django_utils_numberformat.html'
p1022
sg61
S'/Library/Python/2.7/site-packages/django/utils/numberformat'
p1023
sg63
g13
(g14
g15
NtRp1024
(dp1025
g18
I1
sg19
I0
sg20
I31
sg21
I0
sg22
I0
sg23
I28
sg24
I0
sbssg25
S't\x93m\x81b\xf9\x03K\xc5\xb4a\xde\xfff \xd7'
p1026
ssS'_Library_Python_2_7_site-packages_django_contrib___init__'
p1027
(dp1028
g6
(dp1029
g59
S'_Library_Python_2_7_site-packages_django_contrib___init__.html'
p1030
sg61
S'/Library/Python/2.7/site-packages/django/contrib/__init__'
p1031
sg63
g13
(g14
g15
NtRp1032
(dp1033
g18
I1
sg19
I0
sg20
I0
sg21
I0
sg22
I0
sg23
I0
sg24
I0
sbssg25
S'\xb0\xc8pN\xaf>\xa0\xbaz\x144\xe0A9\xb8?'
p1034
ssS'_Library_Python_2_7_site-packages_django_contrib_admin_templatetags_admin_static'
p1035
(dp1036
g48
(dp1037
g8
S'_Library_Python_2_7_site-packages_django_contrib_admin_templatetags_admin_static.html'
p1038
sg10
S'/Library/Python/2.7/site-packages/django/contrib/admin/templatetags/admin_static'
p1039
sg12
g13
(g14
g15
NtRp1040
(dp1041
g18
I1
sg19
I0
sg20
I7
sg21
I0
sg22
I0
sg23
I1
sg24
I0
sbssg54
S'\x99{\xd7\xbc\xa3W\x085\xed$9\xd94r\xea\x15'
p1042
ssS'_Library_Python_2_7_site-packages_django_contrib_staticfiles_management___init__'
p1043
(dp1044
g48
(dp1045
g8
S'_Library_Python_2_7_site-packages_django_contrib_staticfiles_management___init__.html'
p1046
sg10
S'/Library/Python/2.7/site-packages/django/contrib/staticfiles/management/__init__'
p1047
sg12
g13
(g14
g15
NtRp1048
(dp1049
g18
I1
sg19
I0
sg20
I0
sg21
I0
sg22
I0
sg23
I0
sg24
I0
sbssg54
S'\xb0\xc8pN\xaf>\xa0\xbaz\x144\xe0A9\xb8?'
p1050
ssS'_Library_Python_2_7_site-packages_django_db_backends_postgresql_psycopg2_client'
p1051
(dp1052
g6
(dp1053
g59
S'_Library_Python_2_7_site-packages_django_db_backends_postgresql_psycopg2_client.html'
p1054
sg61
S'/Library/Python/2.7/site-packages/django/db/backends/postgresql_psycopg2/client'
p1055
sg63
g13
(g14
g15
NtRp1056
(dp1057
g18
I1
sg19
I0
sg20
I18
sg21
I0
sg22
I0
sg23
I12
sg24
I0
sbssg25
S'\xaa[\x13W\x00\x11m\xb4\xd2717LZ\x00M'
p1058
ssS'_Library_Python_2_7_site-packages_south_migration___init__'
p1059
(dp1060
g48
(dp1061
g8
S'_Library_Python_2_7_site-packages_south_migration___init__.html'
p1062
sg10
S'/Library/Python/2.7/site-packages/south/migration/__init__'
p1063
sg12
g13
(g14
g15
NtRp1064
(dp1065
g18
I1
sg19
I0
sg20
I152
sg21
I0
sg22
I0
sg23
I129
sg24
I0
sbssg54
S'\xd2X\xf6S\x03\xd9\x1a}\x1f\xad0X\x14FI\x99'
p1066
ssS'_Library_Python_2_7_site-packages_django_utils_log'
p1067
(dp1068
g6
(dp1069
g59
S'_Library_Python_2_7_site-packages_django_utils_log.html'
p1070
sg61
S'/Library/Python/2.7/site-packages/django/utils/log'
p1071
sg63
g13
(g14
g15
NtRp1072
(dp1073
g18
I1
sg19
I0
sg20
I56
sg21
I0
sg22
I0
sg23
I32
sg24
I0
sbssg25
S'[\xb7U\xe3<\xd4\x88\x90wQ^\x06y%\xb8K'
p1074
ssS'_Library_Python_2_7_site-packages_django_views_decorators_cache'
p1075
(dp1076
g48
(dp1077
g8
S'_Library_Python_2_7_site-packages_django_views_decorators_cache.html'
p1078
sg10
S'/Library/Python/2.7/site-packages/django/views/decorators/cache'
p1079
sg12
g13
(g14
g15
NtRp1080
(dp1081
g18
I1
sg19
I0
sg20
I40
sg21
I0
sg22
I0
sg23
I31
sg24
I0
sbssg54
S'\x02B\x80\x13a\x16\x1dq\xc1oy\xd0\x0e\x1c\x7fW'
p1082
ssS'_Library_Python_2_7_site-packages_psycopg2___init__'
p1083
(dp1084
g6
(dp1085
g8
S'_Library_Python_2_7_site-packages_psycopg2___init__.html'
p1086
sg10
S'/Library/Python/2.7/site-packages/psycopg2/__init__'
p1087
sg12
g13
(g14
g15
NtRp1088
(dp1089
g18
I1
sg19
I0
sg20
I60
sg21
I0
sg22
I0
sg23
I13
sg24
I0
sbssg25
S'\xbe\x94$\x91cq\x9a\xf0\xb56\x8e\xcaw\xc7{X'
p1090
ssS'carpoolapp_googlemaps'
p1091
(dp1092
g48
(dp1093
g8
S'carpoolapp_googlemaps.html'
p1094
sg10
S'carpoolapp/googlemaps'
p1095
sg12
g13
(g14
g15
NtRp1096
(dp1097
g18
I1
sg19
I0
sg20
I106
sg21
I0
sg22
I0
sg23
I69
sg24
I0
sbssg54
S'%\x94\x00\xfa\xf9\xbc\xc2b\xd7\xda\xb8\x15I\xdc\xbe!'
p1098
ssS'_Library_Python_2_7_site-packages_django_dispatch___init__'
p1099
(dp1100
g6
(dp1101
g59
S'_Library_Python_2_7_site-packages_django_dispatch___init__.html'
p1102
sg61
S'/Library/Python/2.7/site-packages/django/dispatch/__init__'
p1103
sg63
g13
(g14
g15
NtRp1104
(dp1105
g18
I1
sg19
I0
sg20
I1
sg21
I0
sg22
I0
sg23
I0
sg24
I0
sbssg25
S'\xe9$\xa4\xf3k\xc7$G\xbe^\x9e5~A\x94\xd1'
p1106
ssS'_Library_Python_2_7_site-packages_django_db_models_sql_datastructures'
p1107
(dp1108
g6
(dp1109
g59
S'_Library_Python_2_7_site-packages_django_db_models_sql_datastructures.html'
p1110
sg61
S'/Library/Python/2.7/site-packages/django/db/models/sql/datastructures'
p1111
sg63
g13
(g14
g15
NtRp1112
(dp1113
g18
I1
sg19
I0
sg20
I25
sg21
I0
sg22
I0
sg23
I11
sg24
I0
sbssg25
S"\xab\x99\\\xa2\x90\x03\x16\xdf\xd8p\x82'\xa1\xd3\x8ct"
p1114
ssS'_Library_Python_2_7_site-packages_django_utils_unittest___init__'
p1115
(dp1116
g6
(dp1117
g59
S'_Library_Python_2_7_site-packages_django_utils_unittest___init__.html'
p1118
sg61
S'/Library/Python/2.7/site-packages/django/utils/unittest/__init__'
p1119
sg63
g13
(g14
g15
NtRp1120
(dp1121
g18
I1
sg19
I0
sg20
I23
sg21
I0
sg22
I0
sg23
I17
sg24
I0
sbssg25
S'\xccP\x9c\xf4\x9b(\x7f#1\xb9\xe3X7\xb4\xe6B'
p1122
ssS'_Library_Python_2_7_site-packages_django_db_transaction'
p1123
(dp1124
g6
(dp1125
g8
S'_Library_Python_2_7_site-packages_django_db_transaction.html'
p1126
sg10
S'/Library/Python/2.7/site-packages/django/db/transaction'
p1127
sg12
g13
(g14
g15
NtRp1128
(dp1129
g18
I1
sg19
I0
sg20
I131
sg21
I0
sg22
I0
sg23
I70
sg24
I0
sbssg25
S'M\xc23e\xb0y\xd0\xa21\xb6M>A*u\x15'
p1130
ssS'_Library_Python_2_7_site-packages_django_db_models_related'
p1131
(dp1132
g6
(dp1133
g8
S'_Library_Python_2_7_site-packages_django_db_models_related.html'
p1134
sg10
S'/Library/Python/2.7/site-packages/django/db/models/related'
p1135
sg12
g13
(g14
g15
NtRp1136
(dp1137
g18
I1
sg19
I0
sg20
I41
sg21
I0
sg22
I0
sg23
I17
sg24
I0
sbssg25
S'\x01\xed\xbb\xef\xa5\xbe\xb0\xfd\xe7\x006\xbd\xc1=\x9a)'
p1138
ssS'_Library_Python_2_7_site-packages_django_utils_formats'
p1139
(dp1140
g6
(dp1141
g8
S'_Library_Python_2_7_site-packages_django_utils_formats.html'
p1142
sg10
S'/Library/Python/2.7/site-packages/django/utils/formats'
p1143
sg12
g13
(g14
g15
NtRp1144
(dp1145
g18
I1
sg19
I0
sg20
I108
sg21
I0
sg22
I0
sg23
I54
sg24
I0
sbssg25
S'R\x02|\xdd[\xba\xaet\xb11\x03\xbb\xf9\x0f\x1b\xe2'
p1146
ssS'_Library_Python_2_7_site-packages_django_utils_datastructures'
p1147
(dp1148
g6
(dp1149
g8
S'_Library_Python_2_7_site-packages_django_utils_datastructures.html'
p1150
sg10
S'/Library/Python/2.7/site-packages/django/utils/datastructures'
p1151
sg12
g13
(g14
g15
NtRp1152
(dp1153
g18
I1
sg19
I0
sg20
I292
sg21
I0
sg22
I0
sg23
I159
sg24
I0
sbssg25
S'[\x14E\xb4\xb6\xa5\x99\xe8ge\x9b/\x1e<ww'
p1154
ssS'carpoolapp___init__'
p1155
(dp1156
g48
(dp1157
g8
S'carpoolapp___init__.html'
p1158
sg10
S'carpoolapp/__init__'
p1159
sg12
g13
(g14
g15
NtRp1160
(dp1161
g18
I1
sg19
I0
sg20
I0
sg21
I0
sg22
I0
sg23
I0
sg24
I0
sbssg54
S'\xb0\xc8pN\xaf>\xa0\xbaz\x144\xe0A9\xb8?'
p1162
ssS'_Library_Python_2_7_site-packages_django_contrib_admin_actions'
p1163
(dp1164
g48
(dp1165
g8
S'_Library_Python_2_7_site-packages_django_contrib_admin_actions.html'
p1166
sg10
S'/Library/Python/2.7/site-packages/django/contrib/admin/actions'
p1167
sg12
g13
(g14
g15
NtRp1168
(dp1169
g18
I1
sg19
I0
sg20
I34
sg21
I0
sg22
I0
sg23
I25
sg24
I0
sbssg54
S'!\xc3\xbf\x11\xd1\xcc\x7fa\xf0\x1d\xaep\xafI\xf5\x0b'
p1170
ssS'_Library_Python_2_7_site-packages_django_db_models_fields___init__'
p1171
(dp1172
g6
(dp1173
g381
S'_Library_Python_2_7_site-packages_django_db_models_fields___init__.html'
p1174
sg383
S'/Library/Python/2.7/site-packages/django/db/models/fields/__init__'
p1175
sg385
g13
(g14
g15
NtRp1176
(dp1177
g18
I1
sg19
I0
sg20
I778
sg21
I0
sg22
I0
sg23
I372
sg24
I0
sbssg25
S'3g4\xc1/>/\xf4\x9eC\xae\x91{[qP'
p1178
ssS'_Library_Python_2_7_site-packages_django_utils_synch'
p1179
(dp1180
g6
(dp1181
g59
S'_Library_Python_2_7_site-packages_django_utils_synch.html'
p1182
sg61
S'/Library/Python/2.7/site-packages/django/utils/synch'
p1183
sg63
g13
(g14
g15
NtRp1184
(dp1185
g18
I1
sg19
I0
sg20
I60
sg21
I0
sg22
I0
sg23
I41
sg24
I0
sbssg25
S'\xda\xed\xb8;\x18\xf0IL\xc7`[\xdd\xd9\xde\xb4e'
p1186
ssS'_Library_Python_2_7_site-packages_south_db_generic'
p1187
(dp1188
g48
(dp1189
g8
S'_Library_Python_2_7_site-packages_south_db_generic.html'
p1190
sg10
S'/Library/Python/2.7/site-packages/south/db/generic'
p1191
sg12
g13
(g14
g15
NtRp1192
(dp1193
g18
I1
sg19
I0
sg20
I569
sg21
I0
sg22
I0
sg23
I438
sg24
I0
sbssg54
S".^R\xe1\xa7'p\xecP*[\xa0\xb6\xa2\xfeL"
p1194
ssS'_Library_Python_2_7_site-packages_django_core_handlers___init__'
p1195
(dp1196
g6
(dp1197
g59
S'_Library_Python_2_7_site-packages_django_core_handlers___init__.html'
p1198
sg61
S'/Library/Python/2.7/site-packages/django/core/handlers/__init__'
p1199
sg63
g13
(g14
g15
NtRp1200
(dp1201
g18
I1
sg19
I0
sg20
I0
sg21
I0
sg22
I0
sg23
I0
sg24
I0
sbssg25
S'\xb0\xc8pN\xaf>\xa0\xbaz\x144\xe0A9\xb8?'
p1202
ssS'_Library_Python_2_7_site-packages_django_contrib_sessions___init__'
p1203
(dp1204
g48
(dp1205
g8
S'_Library_Python_2_7_site-packages_django_contrib_sessions___init__.html'
p1206
sg10
S'/Library/Python/2.7/site-packages/django/contrib/sessions/__init__'
p1207
sg12
g13
(g14
g15
NtRp1208
(dp1209
g18
I1
sg19
I0
sg20
I0
sg21
I0
sg22
I0
sg23
I0
sg24
I0
sbssg54
S'\xb0\xc8pN\xaf>\xa0\xbaz\x144\xe0A9\xb8?'
p1210
ssS'_Library_Python_2_7_site-packages_django_utils_http'
p1211
(dp1212
g6
(dp1213
g59
S'_Library_Python_2_7_site-packages_django_utils_http.html'
p1214
sg61
S'/Library/Python/2.7/site-packages/django/utils/http'
p1215
sg63
g13
(g14
g15
NtRp1216
(dp1217
g18
I1
sg19
I0
sg20
I115
sg21
I0
sg22
I0
sg23
I74
sg24
I0
sbssg25
S"\x81\x9f&\xec\x13\x05\x0b\xce\x99\x8a\xa4\x82'`\xf2\x9c"
p1218
ssS'_Library_Python_2_7_site-packages_south_hacks___init__'
p1219
(dp1220
g48
(dp1221
g8
S'_Library_Python_2_7_site-packages_south_hacks___init__.html'
p1222
sg10
S'/Library/Python/2.7/site-packages/south/hacks/__init__'
p1223
sg12
g13
(g14
g15
NtRp1224
(dp1225
g18
I1
sg19
I0
sg20
I2
sg21
I0
sg22
I0
sg23
I0
sg24
I0
sbssg54
S'\xe8V3k\xb0\xad\xbb\xda\xbeP\x9d]y\xd9\xfcT'
p1226
ssS'_Library_Python_2_7_site-packages_django_utils_itercompat'
p1227
(dp1228
g6
(dp1229
g59
S'_Library_Python_2_7_site-packages_django_utils_itercompat.html'
p1230
sg61
S'/Library/Python/2.7/site-packages/django/utils/itercompat'
p1231
sg63
g13
(g14
g15
NtRp1232
(dp1233
g18
I1
sg19
I0
sg20
I24
sg21
I0
sg22
I0
sg23
I15
sg24
I0
sbssg25
S'OXMhC\xbe8\xb9E{b\x17w\xbf\xa2~'
p1234
ssS'_Library_Python_2_7_site-packages_django_db_models_loading'
p1235
(dp1236
g6
(dp1237
g8
S'_Library_Python_2_7_site-packages_django_db_models_loading.html'
p1238
sg10
S'/Library/Python/2.7/site-packages/django/db/models/loading'
p1239
sg12
g13
(g14
g15
NtRp1240
(dp1241
g18
I1
sg19
I0
sg20
I119
sg21
I0
sg22
I0
sg23
I21
sg24
I0
sbssg25
S"\xf9\xacF\xab\x13j\xfe'|\xc6\x90\xea\x97]q\xb3"
p1242
ssS'_Library_Python_2_7_site-packages_django_conf_global_settings'
p1243
(dp1244
g6
(dp1245
g59
S'_Library_Python_2_7_site-packages_django_conf_global_settings.html'
p1246
sg61
S'/Library/Python/2.7/site-packages/django/conf/global_settings'
p1247
sg63
g13
(g14
g15
NtRp1248
(dp1249
g18
I1
sg19
I0
sg20
I118
sg21
I0
sg22
I0
sg23
I0
sg24
I0
sbssg25
S'\xba\x06~\xde\x10?\xd3q\xeb#i&\x19H\xe2l'
p1250
ssS'_Library_Python_2_7_site-packages_django_contrib_messages___init__'
p1251
(dp1252
g48
(dp1253
g8
S'_Library_Python_2_7_site-packages_django_contrib_messages___init__.html'
p1254
sg10
S'/Library/Python/2.7/site-packages/django/contrib/messages/__init__'
p1255
sg12
g13
(g14
g15
NtRp1256
(dp1257
g18
I1
sg19
I0
sg20
I3
sg21
I0
sg22
I0
sg23
I0
sg24
I0
sbssg54
S'\x01~\xb7\xc9ZD\xe5N\xc3\x01\xc2\x94u\x0b`\x9e'
p1258
ssS'_Library_Python_2_7_site-packages_django_contrib_sessions_backends_base'
p1259
(dp1260
g48
(dp1261
g8
S'_Library_Python_2_7_site-packages_django_contrib_sessions_backends_base.html'
p1262
sg10
S'/Library/Python/2.7/site-packages/django/contrib/sessions/backends/base'
p1263
sg12
g13
(g14
g15
NtRp1264
(dp1265
g18
I1
sg19
I0
sg20
I160
sg21
I0
sg22
I0
sg23
I104
sg24
I0
sbssg54
S'r\x1ed\xed\xe2u\x92g\xd3}\xf3\x7f\xae:AK'
p1266
ssS'_Library_Python_2_7_site-packages_django_core_management_color'
p1267
(dp1268
g6
(dp1269
g8
S'_Library_Python_2_7_site-packages_django_core_management_color.html'
p1270
sg10
S'/Library/Python/2.7/site-packages/django/core/management/color'
p1271
sg12
g13
(g14
g15
NtRp1272
(dp1273
g18
I1
sg19
I0
sg20
I28
sg21
I0
sg22
I0
sg23
I3
sg24
I0
sbssg25
S'\x1f\x18m\xdf\x9b&\x90\xbe\xf5\x15C\x10\x8e\x16\xcd\xc4'
p1274
ssS'_Library_Python_2_7_site-packages_django_core_serializers_python'
p1275
(dp1276
g48
(dp1277
g8
S'_Library_Python_2_7_site-packages_django_core_serializers_python.html'
p1278
sg10
S'/Library/Python/2.7/site-packages/django/core/serializers/python'
p1279
sg12
g13
(g14
g15
NtRp1280
(dp1281
g18
I1
sg19
I0
sg20
I78
sg21
I0
sg22
I0
sg23
I62
sg24
I0
sbssg54
S'\xe1\xe7\x12\xa2\xca\xdc\xf5\xa3DW\x8f\x1b\x816H\xe3'
p1282
ssS'_Library_Python_2_7_site-packages_django_contrib_messages_api'
p1283
(dp1284
g48
(dp1285
g8
S'_Library_Python_2_7_site-packages_django_contrib_messages_api.html'
p1286
sg10
S'/Library/Python/2.7/site-packages/django/contrib/messages/api'
p1287
sg12
g13
(g14
g15
NtRp1288
(dp1289
g18
I1
sg19
I0
sg20
I34
sg21
I0
sg22
I0
sg23
I20
sg24
I0
sbssg54
S'i\xb5\x8fk2\x89\xf2JF0\xfa\xd1z\x05\xaf\xe5'
p1290
ssS'_Library_Python_2_7_site-packages_django_utils_dateparse'
p1291
(dp1292
g6
(dp1293
g59
S'_Library_Python_2_7_site-packages_django_utils_dateparse.html'
p1294
sg61
S'/Library/Python/2.7/site-packages/django/utils/dateparse'
p1295
sg63
g13
(g14
g15
NtRp1296
(dp1297
g18
I1
sg19
I0
sg20
I37
sg21
I0
sg22
I0
sg23
I27
sg24
I0
sbssg25
S'\xf9]\xb0\xe3\xc6\x83\xc7\xfa\x95\x83<<\x8e0\xa2\x11'
p1298
ssS'_Library_Python_2_7_site-packages_south_management___init__'
p1299
(dp1300
g48
(dp1301
g8
S'_Library_Python_2_7_site-packages_south_management___init__.html'
p1302
sg10
S'/Library/Python/2.7/site-packages/south/management/__init__'
p1303
sg12
g13
(g14
g15
NtRp1304
(dp1305
g18
I1
sg19
I0
sg20
I0
sg21
I0
sg22
I0
sg23
I0
sg24
I0
sbssg54
S'\xb0\xc8pN\xaf>\xa0\xbaz\x144\xe0A9\xb8?'
p1306
ssS'_Library_Python_2_7_site-packages_django_views___init__'
p1307
(dp1308
g6
(dp1309
g59
S'_Library_Python_2_7_site-packages_django_views___init__.html'
p1310
sg61
S'/Library/Python/2.7/site-packages/django/views/__init__'
p1311
sg63
g13
(g14
g15
NtRp1312
(dp1313
g18
I1
sg19
I0
sg20
I0
sg21
I0
sg22
I0
sg23
I0
sg24
I0
sbssg25
S'\xb0\xc8pN\xaf>\xa0\xbaz\x144\xe0A9\xb8?'
p1314
ssS'_Library_Python_2_7_site-packages_django_utils_module_loading'
p1315
(dp1316
g6
(dp1317
g59
S'_Library_Python_2_7_site-packages_django_utils_module_loading.html'
p1318
sg61
S'/Library/Python/2.7/site-packages/django/utils/module_loading'
p1319
sg63
g13
(g14
g15
NtRp1320
(dp1321
g18
I1
sg19
I0
sg20
I48
sg21
I0
sg22
I0
sg23
I44
sg24
I0
sbssg25
S'\x81\xbe\xb4\xca\xff\xe8Z\x15]\x06\xfc\xf1\xc4\xd9\x9a;'
p1322
ssS'_Library_Python_2_7_site-packages_django_contrib_sessions_backends_db'
p1323
(dp1324
g48
(dp1325
g8
S'_Library_Python_2_7_site-packages_django_contrib_sessions_backends_db.html'
p1326
sg10
S'/Library/Python/2.7/site-packages/django/contrib/sessions/backends/db'
p1327
sg12
g13
(g14
g15
NtRp1328
(dp1329
g18
I1
sg19
I0
sg20
I48
sg21
I0
sg22
I0
sg23
I35
sg24
I0
sbssg54
S'\xa8\xfcSLV\x1eW\x07\x8e\x07\xe0H\xb4\xfd\xb2\xaa'
p1330
ssS'_Library_Python_2_7_site-packages_django_core_handlers_wsgi'
p1331
(dp1332
g6
(dp1333
g59
S'_Library_Python_2_7_site-packages_django_core_handlers_wsgi.html'
p1334
sg61
S'/Library/Python/2.7/site-packages/django/core/handlers/wsgi'
p1335
sg63
g13
(g14
g15
NtRp1336
(dp1337
g18
I1
sg19
I0
sg20
I142
sg21
I0
sg22
I0
sg23
I103
sg24
I0
sbssg25
S'\xa83\xcc]\xf1\xe5\xea,\xf9m+\xb2l\x89&V'
p1338
ssS'_Library_Python_2_7_site-packages_django_core_management_commands_test'
p1339
(dp1340
g6
(dp1341
g150
S'_Library_Python_2_7_site-packages_django_core_management_commands_test.html'
p1342
sg152
S'/Library/Python/2.7/site-packages/django/core/management/commands/test'
p1343
sg154
g13
(g14
g15
NtRp1344
(dp1345
g18
I1
sg19
I0
sg20
I37
sg21
I0
sg22
I0
sg23
I5
sg24
I0
sbssg25
S'\xbf\x7f\xf75F!\xdb\xb2\xb5\xf1V\xa5a\xd1\x86\x8f'
p1346
ssS'_Library_Python_2_7_site-packages_django_views_decorators___init__'
p1347
(dp1348
g48
(dp1349
g8
S'_Library_Python_2_7_site-packages_django_views_decorators___init__.html'
p1350
sg10
S'/Library/Python/2.7/site-packages/django/views/decorators/__init__'
p1351
sg12
g13
(g14
g15
NtRp1352
(dp1353
g18
I1
sg19
I0
sg20
I0
sg21
I0
sg22
I0
sg23
I0
sg24
I0
sbssg54
S'\xb0\xc8pN\xaf>\xa0\xbaz\x144\xe0A9\xb8?'
p1354
ssS'_Library_Python_2_7_site-packages_django_core_wsgi'
p1355
(dp1356
g6
(dp1357
g59
S'_Library_Python_2_7_site-packages_django_core_wsgi.html'
p1358
sg61
S'/Library/Python/2.7/site-packages/django/core/wsgi'
p1359
sg63
g13
(g14
g15
NtRp1360
(dp1361
g18
I1
sg19
I0
sg20
I3
sg21
I0
sg22
I0
sg23
I1
sg24
I0
sbssg25
S' \x0e\x1b\xd1D\xd0\x13<c\x84?v\xdf\xd1\xf8\x84'
p1362
ssS'_Library_Python_2_7_site-packages_django_utils_dateformat'
p1363
(dp1364
g6
(dp1365
g59
S'_Library_Python_2_7_site-packages_django_utils_dateformat.html'
p1366
sg61
S'/Library/Python/2.7/site-packages/django/utils/dateformat'
p1367
sg63
g13
(g14
g15
NtRp1368
(dp1369
g18
I1
sg19
I0
sg20
I179
sg21
I0
sg22
I0
sg23
I119
sg24
I0
sbssg25
S'\xdc\xcf>\x08@dl\xf9\xb7\x16\x8bmQ\x05\x80?'
p1370
ssS'_Library_Python_2_7_site-packages_django_contrib_staticfiles_utils'
p1371
(dp1372
g6
(dp1373
g59
S'_Library_Python_2_7_site-packages_django_contrib_staticfiles_utils.html'
p1374
sg61
S'/Library/Python/2.7/site-packages/django/contrib/staticfiles/utils'
p1375
sg63
g13
(g14
g15
NtRp1376
(dp1377
g18
I1
sg19
I0
sg20
I37
sg21
I0
sg22
I0
sg23
I30
sg24
I0
sbssg25
S'Q\x99\xe3\x98\xf4\xbc\tTg\xbc\xed\xbd\\\xf9Q\xdd'
p1378
ssS'_Library_Python_2_7_site-packages_django_contrib_staticfiles_storage'
p1379
(dp1380
g6
(dp1381
g59
S'_Library_Python_2_7_site-packages_django_contrib_staticfiles_storage.html'
p1382
sg61
S'/Library/Python/2.7/site-packages/django/contrib/staticfiles/storage'
p1383
sg63
g13
(g14
g15
NtRp1384
(dp1385
g18
I1
sg19
I0
sg20
I160
sg21
I0
sg22
I0
sg23
I123
sg24
I0
sbssg25
S'\xaa\r\x86\xab~\xed\x19m\xcd\x7f\xc7\xc9\xd2up\x99'
p1386
ssS'_Library_Python_2_7_site-packages_django_contrib_staticfiles_handlers'
p1387
(dp1388
g6
(dp1389
g59
S'_Library_Python_2_7_site-packages_django_contrib_staticfiles_handlers.html'
p1390
sg61
S'/Library/Python/2.7/site-packages/django/contrib/staticfiles/handlers'
p1391
sg63
g13
(g14
g15
NtRp1392
(dp1393
g18
I1
sg19
I0
sg20
I40
sg21
I0
sg22
I0
sg23
I25
sg24
I0
sbssg25
S'\xc9\xf1t\x83\xcf\x01k\x14\x7f1\xa8\xd7,\xaf\xb3}'
p1394
ssS'_Library_Python_2_7_site-packages_dj_database_url'
p1395
(dp1396
g6
(dp1397
g59
S'_Library_Python_2_7_site-packages_dj_database_url.html'
p1398
sg61
S'/Library/Python/2.7/site-packages/dj_database_url'
p1399
sg63
g13
(g14
g15
NtRp1400
(dp1401
g18
I1
sg19
I0
sg20
I28
sg21
I0
sg22
I0
sg23
I15
sg24
I0
sbssg25
S'\xdd\xd7\xce\xa7\xb2\x1b\xe3zmb\xa2(\x13x\xc9\xba'
p1402
ssS'carpool_settings'
p1403
(dp1404
g6
(dp1405
g8
S'carpool_settings.html'
p1406
sg10
S'carpool/settings'
p1407
sg12
g13
(g14
g15
NtRp1408
(dp1409
g18
I1
sg19
I0
sg20
I33
sg21
I0
sg22
I0
sg23
I0
sg24
I0
sbssg25
S'f\xe9\xd1OsQ\xecz4\x11\xc4\x89\x9e\xbd\x8f\xca'
p1410
ssS'_Library_Python_2_7_site-packages_django_db_models_fields_files'
p1411
(dp1412
g6
(dp1413
g59
S'_Library_Python_2_7_site-packages_django_db_models_fields_files.html'
p1414
sg61
S'/Library/Python/2.7/site-packages/django/db/models/fields/files'
p1415
sg63
g13
(g14
g15
NtRp1416
(dp1417
g18
I1
sg19
I0
sg20
I203
sg21
I0
sg22
I0
sg23
I136
sg24
I0
sbssg25
S'\xf4\xb4\x1e?\xfe\x16\xa2[\xe6\x86\xd1\x06\xc4\xd8\x1cn'
p1418
ssS'_Library_Python_2_7_site-packages_django_conf_locale___init__'
p1419
(dp1420
g48
(dp1421
g8
S'_Library_Python_2_7_site-packages_django_conf_locale___init__.html'
p1422
sg10
S'/Library/Python/2.7/site-packages/django/conf/locale/__init__'
p1423
sg12
g13
(g14
g15
NtRp1424
(dp1425
g18
I1
sg19
I0
sg20
I1
sg21
I0
sg22
I0
sg23
I0
sg24
I0
sbssg54
S'\xca\x13\xff\x014\xc8\xe6I\xcb\xd3B<uIk\xbe'
p1426
ssS'_Library_Python_2_7_site-packages_django_contrib_staticfiles_finders'
p1427
(dp1428
g6
(dp1429
g59
S'_Library_Python_2_7_site-packages_django_contrib_staticfiles_finders.html'
p1430
sg61
S'/Library/Python/2.7/site-packages/django/contrib/staticfiles/finders'
p1431
sg63
g13
(g14
g15
NtRp1432
(dp1433
g18
I1
sg19
I0
sg20
I158
sg21
I0
sg22
I0
sg23
I121
sg24
I0
sbssg25
S'\xa8\nv\xabZ\xf0a.\xaf\x0b\xa78\xba\n\xa2\x9b'
p1434
ssS'carpoolapp_tests'
p1435
(dp1436
g48
(dp1437
g381
S'carpoolapp_tests.html'
p1438
sg383
S'carpoolapp/tests'
p1439
sg385
g13
(g14
g15
NtRp1440
(dp1441
g18
I1
sg19
I0
sg20
I223
sg21
I0
sg22
I0
sg23
I141
sg24
I0
sbssg54
S'\xcb\xb1z\x96\x99#1)\xa3\xf4\x0b.\x18M\xe1\xed'
p1442
ssS'_Library_Python_2_7_site-packages_south_db_postgresql_psycopg2'
p1443
(dp1444
g48
(dp1445
g8
S'_Library_Python_2_7_site-packages_south_db_postgresql_psycopg2.html'
p1446
sg10
S'/Library/Python/2.7/site-packages/south/db/postgresql_psycopg2'
p1447
sg12
g13
(g14
g15
NtRp1448
(dp1449
g18
I1
sg19
I0
sg20
I44
sg21
I0
sg22
I0
sg23
I31
sg24
I0
sbssg54
S'<e\x82\xd9\xff\xa2\xf6\xe9R\x98N9\x06\xecF\xe4'
p1450
ssS'_Library_Python_2_7_site-packages_django_core_validators'
p1451
(dp1452
g6
(dp1453
g8
S'_Library_Python_2_7_site-packages_django_core_validators.html'
p1454
sg10
S'/Library/Python/2.7/site-packages/django/core/validators'
p1455
sg12
g13
(g14
g15
NtRp1456
(dp1457
g18
I1
sg19
I0
sg20
I157
sg21
I0
sg22
I0
sg23
I86
sg24
I0
sbssg25
S'\xf3\xf8\xd1\x02\x01\xf0\x8a\xe3D\x8a?hk\x87s\x83'
p1458
ssS'_Library_Python_2_7_site-packages_django_contrib_auth_signals'
p1459
(dp1460
g6
(dp1461
g59
S'_Library_Python_2_7_site-packages_django_contrib_auth_signals.html'
p1462
sg61
S'/Library/Python/2.7/site-packages/django/contrib/auth/signals'
p1463
sg63
g13
(g14
g15
NtRp1464
(dp1465
g18
I1
sg19
I0
sg20
I3
sg21
I0
sg22
I0
sg23
I0
sg24
I0
sbssg25
S'\x13\x17\x85\x98\x81\r`\x1b~4\x04;\x16\x9b%L'
p1466
ssS'_Library_Python_2_7_site-packages_django_core_urlresolvers'
p1467
(dp1468
g6
(dp1469
g59
S'_Library_Python_2_7_site-packages_django_core_urlresolvers.html'
p1470
sg61
S'/Library/Python/2.7/site-packages/django/core/urlresolvers'
p1471
sg63
g13
(g14
g15
NtRp1472
(dp1473
g18
I1
sg19
I0
sg20
I339
sg21
I0
sg22
I0
sg23
I269
sg24
I0
sbssg25
S'\n\xe9\xc0\x1f\x92Y\xa4\xbb\xb7\xdc!/\x03\xfdZ%'
p1474
ssS'_Library_Python_2_7_site-packages_django_forms_forms'
p1475
(dp1476
g6
(dp1477
g59
S'_Library_Python_2_7_site-packages_django_forms_forms.html'
p1478
sg61
S'/Library/Python/2.7/site-packages/django/forms/forms'
p1479
sg63
g13
(g14
g15
NtRp1480
(dp1481
g18
I1
sg19
I0
sg20
I280
sg21
I0
sg22
I0
sg23
I196
sg24
I0
sbssg25
S'\x140\xadHhu71\x9e$\xd4\x11\xc0e\tC'
p1482
ssS'_Library_Python_2_7_site-packages_django_core_management_base'
p1483
(dp1484
g6
(dp1485
g150
S'_Library_Python_2_7_site-packages_django_core_management_base.html'
p1486
sg152
S'/Library/Python/2.7/site-packages/django/core/management/base'
p1487
sg154
g13
(g14
g15
NtRp1488
(dp1489
g18
I1
sg19
I0
sg20
I133
sg21
I0
sg22
I0
sg23
I56
sg24
I0
sbssg25
S'\x8e\x15\x17\xb7\xc1\xd2\xd1M\x17\xb0\\6\xb0o\xc7t'
p1490
ssS'_Library_Python_2_7_site-packages_django_contrib_messages_models'
p1491
(dp1492
g48
(dp1493
g8
S'_Library_Python_2_7_site-packages_django_contrib_messages_models.html'
p1494
sg10
S'/Library/Python/2.7/site-packages/django/contrib/messages/models'
p1495
sg12
g13
(g14
g15
NtRp1496
(dp1497
g18
I1
sg19
I0
sg20
I0
sg21
I0
sg22
I0
sg23
I0
sg24
I0
sbssg54
S'}\xf8)\x98N\x1e\xef\xd8Ky\x9f\x03d\x14L\xac'
p1498
ssS'_Library_Python_2_7_site-packages_django_core_files_storage'
p1499
(dp1500
g6
(dp1501
g59
S'_Library_Python_2_7_site-packages_django_core_files_storage.html'
p1502
sg61
S'/Library/Python/2.7/site-packages/django/core/files/storage'
p1503
sg63
g13
(g14
g15
NtRp1504
(dp1505
g18
I1
sg19
I0
sg20
I150
sg21
I0
sg22
I0
sg23
I104
sg24
I0
sbssg25
S'G\xe6\x06\xdc\xdb#\xe2EAMn~]\x1d\xe8\xb8'
p1506
ssS'_Library_Python_2_7_site-packages_django_db_models___init__'
p1507
(dp1508
g6
(dp1509
g59
S'_Library_Python_2_7_site-packages_django_db_models___init__.html'
p1510
sg61
S'/Library/Python/2.7/site-packages/django/db/models/__init__'
p1511
sg63
g13
(g14
g15
NtRp1512
(dp1513
g18
I1
sg19
I0
sg20
I23
sg21
I0
sg22
I0
sg23
I5
sg24
I0
sbssg25
S'B\xac\xe1\xdaQ\x957k\x0e\xba`\x9f\xd0\xa2\xd87'
p1514
ssS'carpoolapp_models'
p1515
(dp1516
g48
(dp1517
g313
S'carpoolapp_models.html'
p1518
sg315
S'carpoolapp/models'
p1519
sg317
g13
(g14
g15
NtRp1520
(dp1521
g18
I1
sg19
I0
sg20
I173
sg21
I0
sg22
I0
sg23
I49
sg24
I0
sbssg54
S'\xa1r\x83.\x89\n\xd1\x13\xa3\xfaU\x0e\xac8w\xa3'
p1522
ssS'_Library_Python_2_7_site-packages_django_core_serializers_base'
p1523
(dp1524
g48
(dp1525
g8
S'_Library_Python_2_7_site-packages_django_core_serializers_base.html'
p1526
sg10
S'/Library/Python/2.7/site-packages/django/core/serializers/base'
p1527
sg12
g13
(g14
g15
NtRp1528
(dp1529
g18
I1
sg19
I0
sg20
I74
sg21
I0
sg22
I0
sg23
I46
sg24
I0
sbssg54
S'\xfca\xe3x\xd1\xc5\x90\x8b\xcd\x06T\x1frS\xb1P'
p1530
ssS'_Library_Python_2_7_site-packages_django_utils__os'
p1531
(dp1532
g6
(dp1533
g59
S'_Library_Python_2_7_site-packages_django_utils__os.html'
p1534
sg61
S'/Library/Python/2.7/site-packages/django/utils/_os'
p1535
sg63
g13
(g14
g15
NtRp1536
(dp1537
g18
I1
sg19
I0
sg20
I32
sg21
I0
sg22
I0
sg23
I19
sg24
I0
sbssg25
S'\x00\x87*\xe1Z\xd9w\xa9\xefK\xab/\xb8P4\xe7'
p1538
ssS'_Library_Python_2_7_site-packages_django_core_paginator'
p1539
(dp1540
g48
(dp1541
g8
S'_Library_Python_2_7_site-packages_django_core_paginator.html'
p1542
sg10
S'/Library/Python/2.7/site-packages/django/core/paginator'
p1543
sg12
g13
(g14
g15
NtRp1544
(dp1545
g18
I1
sg19
I0
sg20
I103
sg21
I0
sg22
I0
sg23
I69
sg24
I0
sbssg54
S'l\x81\xf4\xe4\xf0\xa1\xe9\x101\xd8\x90y\xed\xdb_\x81'
p1546
ssS'_Library_Python_2_7_site-packages_django_utils_crypto'
p1547
(dp1548
g6
(dp1549
g59
S'_Library_Python_2_7_site-packages_django_utils_crypto.html'
p1550
sg61
S'/Library/Python/2.7/site-packages/django/utils/crypto'
p1551
sg63
g13
(g14
g15
NtRp1552
(dp1553
g18
I1
sg19
I0
sg20
I68
sg21
I0
sg22
I0
sg23
I48
sg24
I0
sbssg25
S'\xa3\xc5}l\x04ww\x01\xe1\xf0$\xbc\x1dW\xe7\x06'
p1554
ssS'_Library_Python_2_7_site-packages_django_core_handlers_base'
p1555
(dp1556
g6
(dp1557
g59
S'_Library_Python_2_7_site-packages_django_core_handlers_base.html'
p1558
sg61
S'/Library/Python/2.7/site-packages/django/core/handlers/base'
p1559
sg63
g13
(g14
g15
NtRp1560
(dp1561
g18
I1
sg19
I0
sg20
I151
sg21
I0
sg22
I0
sg23
I136
sg24
I0
sbssg25
S'\xdad\xee\x14\x17\x9bxc\xbc\xbd@:}Z\x18\xe1'
p1562
ssS'_Library_Python_2_7_site-packages_django_core_files___init__'
p1563
(dp1564
g6
(dp1565
g59
S'_Library_Python_2_7_site-packages_django_core_files___init__.html'
p1566
sg61
S'/Library/Python/2.7/site-packages/django/core/files/__init__'
p1567
sg63
g13
(g14
g15
NtRp1568
(dp1569
g18
I1
sg19
I0
sg20
I1
sg21
I0
sg22
I0
sg23
I0
sg24
I0
sbssg25
S"\xa1\xbfiA'\x85B\x1e\xd8\xe0\x91\xe3\xf7\x86\x81\xb2"
p1570
ssS'_Library_Python_2_7_site-packages_django_db_models_base'
p1571
(dp1572
g6
(dp1573
g648
S'_Library_Python_2_7_site-packages_django_db_models_base.html'
p1574
sg650
S'/Library/Python/2.7/site-packages/django/db/models/base'
p1575
sg652
g13
(g14
g15
NtRp1576
(dp1577
g18
I1
sg19
I0
sg20
I501
sg21
I0
sg22
I0
sg23
I287
sg24
I0
sbssg25
S'A\x12\xf4\xa5\x07\xc9\xcc\x12\x8e\x7fd\xc8g1\xfb\x88'
p1578
ssS'_Library_Python_2_7_site-packages_django_core_mail_utils'
p1579
(dp1580
g6
(dp1581
g59
S'_Library_Python_2_7_site-packages_django_core_mail_utils.html'
p1582
sg61
S'/Library/Python/2.7/site-packages/django/core/mail/utils'
p1583
sg63
g13
(g14
g15
NtRp1584
(dp1585
g18
I1
sg19
I0
sg20
I9
sg21
I0
sg22
I0
sg23
I4
sg24
I0
sbssg25
S'q\x8f\x86\xa8\x10\xa1\x04\x98^\x0e\xe8\x93\xb7X\xaan'
p1586
ssS'_Library_Python_2_7_site-packages_django_conf_locale_en_formats'
p1587
(dp1588
g48
(dp1589
g8
S'_Library_Python_2_7_site-packages_django_conf_locale_en_formats.html'
p1590
sg10
S'/Library/Python/2.7/site-packages/django/conf/locale/en/formats'
p1591
sg12
g13
(g14
g15
NtRp1592
(dp1593
g18
I1
sg19
I0
sg20
I14
sg21
I0
sg22
I0
sg23
I0
sg24
I0
sbssg54
S"\x93\xc2\xcc\x9d\xd2\x99\xd1G=\xce'\xb0K\x93#R"
p1594
ssS'_Library_Python_2_7_site-packages_django_contrib_admin_options'
p1595
(dp1596
g48
(dp1597
g8
S'_Library_Python_2_7_site-packages_django_contrib_admin_options.html'
p1598
sg10
S'/Library/Python/2.7/site-packages/django/contrib/admin/options'
p1599
sg12
g13
(g14
g15
NtRp1600
(dp1601
g18
I1
sg19
I0
sg20
I735
sg21
I0
sg22
I0
sg23
I575
sg24
I0
sbssg54
S'\xc8\x08r%t\xb5\x9d}<\x1eQ\x8ezF\\\x9c'
p1602
ssS'_Library_Python_2_7_site-packages_django_test___init__'
p1603
(dp1604
g6
(dp1605
g59
S'_Library_Python_2_7_site-packages_django_test___init__.html'
p1606
sg61
S'/Library/Python/2.7/site-packages/django/test/__init__'
p1607
sg63
g13
(g14
g15
NtRp1608
(dp1609
g18
I1
sg19
I0
sg20
I3
sg21
I0
sg22
I0
sg23
I0
sg24
I0
sbssg25
S'~\xbeB^\xffy\x92\x8f\x9e\xd7\xdc\xd8\xa1\xe5\xe0\x03'
p1610
ssS'_Library_Python_2_7_site-packages_django_core_serializers___init__'
p1611
(dp1612
g48
(dp1613
g8
S'_Library_Python_2_7_site-packages_django_core_serializers___init__.html'
p1614
sg10
S'/Library/Python/2.7/site-packages/django/core/serializers/__init__'
p1615
sg12
g13
(g14
g15
NtRp1616
(dp1617
g18
I1
sg19
I0
sg20
I58
sg21
I0
sg22
I0
sg23
I40
sg24
I0
sbssg54
S'\x89\xbaB\x85\x82\xf4\n3d!d\xbf\xab\xe9e\x1a'
p1618
ssS'_Library_Python_2_7_site-packages_django_test_signals'
p1619
(dp1620
g6
(dp1621
g59
S'_Library_Python_2_7_site-packages_django_test_signals.html'
p1622
sg61
S'/Library/Python/2.7/site-packages/django/test/signals'
p1623
sg63
g13
(g14
g15
NtRp1624
(dp1625
g18
I1
sg19
I0
sg20
I17
sg21
I0
sg22
I0
sg23
I10
sg24
I0
sbssg25
S'6\xfb\xb9q?8\xcb\x90\x15G}\x9b\x9b\x8d\x82\x9d'
p1626
ssS'_Library_Python_2_7_site-packages_django_db_models_fields_subclassing'
p1627
(dp1628
g6
(dp1629
g59
S'_Library_Python_2_7_site-packages_django_db_models_fields_subclassing.html'
p1630
sg61
S'/Library/Python/2.7/site-packages/django/db/models/fields/subclassing'
p1631
sg63
g13
(g14
g15
NtRp1632
(dp1633
g18
I1
sg19
I0
sg20
I21
sg21
I0
sg22
I0
sg23
I14
sg24
I0
sbssg25
S'\x94\xfa\xe1\x9f\xf6\xcb\xa6\xb1N\xc5v\xa4\xcb\x9e\xd0n'
p1634
ssS'_Library_Python_2_7_site-packages_django_contrib_staticfiles_templatetags_staticfiles'
p1635
(dp1636
g48
(dp1637
g8
S'_Library_Python_2_7_site-packages_django_contrib_staticfiles_templatetags_staticfiles.html'
p1638
sg10
S'/Library/Python/2.7/site-packages/django/contrib/staticfiles/templatetags/staticfiles'
p1639
sg12
g13
(g14
g15
NtRp1640
(dp1641
g18
I1
sg19
I0
sg20
I5
sg21
I0
sg22
I0
sg23
I1
sg24
I0
sbssg54
S'\x83Er\x85\xa40\xc8\x00]b\x13\xde%\xb7\xc7\xc2'
p1642
ssS'_Library_Python_2_7_site-packages_django_test_testcases'
p1643
(dp1644
g6
(dp1645
g59
S'_Library_Python_2_7_site-packages_django_test_testcases.html'
p1646
sg61
S'/Library/Python/2.7/site-packages/django/test/testcases'
p1647
sg63
g13
(g14
g15
NtRp1648
(dp1649
g18
I1
sg19
I0
sg20
I583
sg21
I0
sg22
I0
sg23
I456
sg24
I0
sbssg25
S'\xe0\xb8]0>\xf2\x13@\xaf\xc3\xf4.vl[\xd3'
p1650
ssS'_Library_Python_2_7_site-packages_django_contrib_staticfiles___init__'
p1651
(dp1652
g6
(dp1653
g59
S'_Library_Python_2_7_site-packages_django_contrib_staticfiles___init__.html'
p1654
sg61
S'/Library/Python/2.7/site-packages/django/contrib/staticfiles/__init__'
p1655
sg63
g13
(g14
g15
NtRp1656
(dp1657
g18
I1
sg19
I0
sg20
I0
sg21
I0
sg22
I0
sg23
I0
sg24
I0
sbssg25
S'\xb0\xc8pN\xaf>\xa0\xbaz\x144\xe0A9\xb8?'
p1658
ssS'_Library_Python_2_7_site-packages_django_db_models_query_utils'
p1659
(dp1660
g6
(dp1661
g8
S'_Library_Python_2_7_site-packages_django_db_models_query_utils.html'
p1662
sg10
S'/Library/Python/2.7/site-packages/django/db/models/query_utils'
p1663
sg12
g13
(g14
g15
NtRp1664
(dp1665
g18
I1
sg19
I0
sg20
I78
sg21
I0
sg22
I0
sg23
I53
sg24
I0
sbssg25
S'\x81r,\xe6%{i\xa9EW\xc8\x03\x0b\xe9\x80\xdd'
p1666
ssS'_Library_Python_2_7_site-packages_django_utils_regex_helper'
p1667
(dp1668
g6
(dp1669
g59
S'_Library_Python_2_7_site-packages_django_utils_regex_helper.html'
p1670
sg61
S'/Library/Python/2.7/site-packages/django/utils/regex_helper'
p1671
sg63
g13
(g14
g15
NtRp1672
(dp1673
g18
I1
sg19
I0
sg20
I185
sg21
I0
sg22
I0
sg23
I175
sg24
I0
sbssg25
S'2\x17q\n3`<\x0f\xce\x8az\xb4\xd1\xc7s7'
p1674
ssS'_Library_Python_2_7_site-packages_django_utils_unittest_util'
p1675
(dp1676
g6
(dp1677
g59
S'_Library_Python_2_7_site-packages_django_utils_unittest_util.html'
p1678
sg61
S'/Library/Python/2.7/site-packages/django/utils/unittest/util'
p1679
sg63
g13
(g14
g15
NtRp1680
(dp1681
g18
I1
sg19
I0
sg20
I74
sg21
I0
sg22
I0
sg23
I67
sg24
I0
sbssg25
S'\xb2x_,\x84YY\x16\x91\xcb5(\xe8\x1c<\t'
p1682
ssS'_Library_Python_2_7_site-packages_validate_email'
p1683
(dp1684
g48
(dp1685
g8
S'_Library_Python_2_7_site-packages_validate_email.html'
p1686
sg10
S'/Library/Python/2.7/site-packages/validate_email'
p1687
sg12
g13
(g14
g15
NtRp1688
(dp1689
g18
I1
sg19
I0
sg20
I59
sg21
I0
sg22
I0
sg23
I20
sg24
I0
sbssg54
S"A\xf01\x95PU\x06O\xe7\x85\x05\xbe'\x15h\x87"
p1690
ssS'_Library_Python_2_7_site-packages_django_utils_importlib'
p1691
(dp1692
g6
(dp1693
g59
S'_Library_Python_2_7_site-packages_django_utils_importlib.html'
p1694
sg61
S'/Library/Python/2.7/site-packages/django/utils/importlib'
p1695
sg63
g13
(g14
g15
NtRp1696
(dp1697
g18
I1
sg19
I0
sg20
I23
sg21
I0
sg22
I0
sg23
I6
sg24
I0
sbssg25
S'\xba\x10A\xccg\xac\xd0\xe2\xb9QBQ3\x8d\xc0\x01'
p1698
ssS'_Library_Python_2_7_site-packages_django_middleware___init__'
p1699
(dp1700
g48
(dp1701
g8
S'_Library_Python_2_7_site-packages_django_middleware___init__.html'
p1702
sg10
S'/Library/Python/2.7/site-packages/django/middleware/__init__'
p1703
sg12
g13
(g14
g15
NtRp1704
(dp1705
g18
I1
sg19
I0
sg20
I0
sg21
I0
sg22
I0
sg23
I0
sg24
I0
sbssg54
S'\xb0\xc8pN\xaf>\xa0\xbaz\x144\xe0A9\xb8?'
p1706
ssS'_Library_Python_2_7_site-packages_south_orm'
p1707
(dp1708
g48
(dp1709
g8
S'_Library_Python_2_7_site-packages_south_orm.html'
p1710
sg10
S'/Library/Python/2.7/site-packages/south/orm'
p1711
sg12
g13
(g14
g15
NtRp1712
(dp1713
g18
I1
sg19
I0
sg20
I210
sg21
I0
sg22
I0
sg23
I179
sg24
I0
sbssg54
S"^\x14Q\xcf\x19\x196'\xdf\x8a\xc2VI\xc2n:"
p1714
ssS'_Library_Python_2_7_site-packages_django_conf_locale_en___init__'
p1715
(dp1716
g48
(dp1717
g8
S'_Library_Python_2_7_site-packages_django_conf_locale_en___init__.html'
p1718
sg10
S'/Library/Python/2.7/site-packages/django/conf/locale/en/__init__'
p1719
sg12
g13
(g14
g15
NtRp1720
(dp1721
g18
I1
sg19
I0
sg20
I0
sg21
I0
sg22
I0
sg23
I0
sg24
I0
sbssg54
S'\xb0\xc8pN\xaf>\xa0\xbaz\x144\xe0A9\xb8?'
p1722
ssS'_Library_Python_2_7_site-packages_django_contrib_sessions_models'
p1723
(dp1724
g48
(dp1725
g8
S'_Library_Python_2_7_site-packages_django_contrib_sessions_models.html'
p1726
sg10
S'/Library/Python/2.7/site-packages/django/contrib/sessions/models'
p1727
sg12
g13
(g14
g15
NtRp1728
(dp1729
g18
I1
sg19
I0
sg20
I23
sg21
I0
sg22
I0
sg23
I7
sg24
I0
sbssg54
S'< \xef\x96\xa0\x8c\xd8\xe9~\n\xbb7\xe7U\xf3['
p1730
ssS'_Library_Python_2_7_site-packages_django_db_backends_postgresql_psycopg2_base'
p1731
(dp1732
g6
(dp1733
g8
S'_Library_Python_2_7_site-packages_django_db_backends_postgresql_psycopg2_base.html'
p1734
sg10
S'/Library/Python/2.7/site-packages/django/db/backends/postgresql_psycopg2/base'
p1735
sg12
g13
(g14
g15
NtRp1736
(dp1737
g18
I1
sg19
I0
sg20
I154
sg21
I0
sg22
I0
sg23
I38
sg24
I0
sbssg25
S'\xc3M\xf871\x9f$\xe8\x91\x10?W\xe7\xf3\xc4U'
p1738
ssS'_Library_Python_2_7_site-packages_django_template_loaders_app_directories'
p1739
(dp1740
g48
(dp1741
g8
S'_Library_Python_2_7_site-packages_django_template_loaders_app_directories.html'
p1742
sg10
S'/Library/Python/2.7/site-packages/django/template/loaders/app_directories'
p1743
sg12
g13
(g14
g15
NtRp1744
(dp1745
g18
I1
sg19
I0
sg20
I42
sg21
I0
sg22
I0
sg23
I20
sg24
I0
sbssg54
S'\x0b=hb\xe7\xba\x95^\r\x85\xe1ja]rL'
p1746
ssS'_Library_Python_2_7_site-packages_django_db_backends_postgresql_psycopg2_introspection'
p1747
(dp1748
g6
(dp1749
g8
S'_Library_Python_2_7_site-packages_django_db_backends_postgresql_psycopg2_introspection.html'
p1750
sg10
S'/Library/Python/2.7/site-packages/django/db/backends/postgresql_psycopg2/introspection'
p1751
sg12
g13
(g14
g15
NtRp1752
(dp1753
g18
I1
sg19
I0
sg20
I25
sg21
I0
sg22
I0
sg23
I16
sg24
I0
sbssg25
S'\x92\xd68\x82%\xc0\xc8\xbc\xe9\xa5\xfb\x07\xf9\t5\x87'
p1754
ssS'_Library_Python_2_7_site-packages_django_template_defaulttags'
p1755
(dp1756
g6
(dp1757
g59
S'_Library_Python_2_7_site-packages_django_template_defaulttags.html'
p1758
sg61
S'/Library/Python/2.7/site-packages/django/template/defaulttags'
p1759
sg63
g13
(g14
g15
NtRp1760
(dp1761
g18
I1
sg19
I0
sg20
I613
sg21
I0
sg22
I0
sg23
I502
sg24
I0
sbssg25
S'g\xf1\x83\xf1&T\x08e2f\x06\xb2*A@\x87'
p1762
ssS'_Library_Python_2_7_site-packages_django_contrib_contenttypes_management'
p1763
(dp1764
g48
(dp1765
g8
S'_Library_Python_2_7_site-packages_django_contrib_contenttypes_management.html'
p1766
sg10
S'/Library/Python/2.7/site-packages/django/contrib/contenttypes/management'
p1767
sg12
g13
(g14
g15
NtRp1768
(dp1769
g18
I1
sg19
I0
sg20
I34
sg21
I0
sg22
I0
sg23
I16
sg24
I0
sbssg54
S'\xd2\xa7CS\xcd\x03C\xa7\x93\x97MR0>\x84e'
p1770
ssS'_Library_Python_2_7_site-packages_django_contrib_messages_storage___init__'
p1771
(dp1772
g48
(dp1773
g8
S'_Library_Python_2_7_site-packages_django_contrib_messages_storage___init__.html'
p1774
sg10
S'/Library/Python/2.7/site-packages/django/contrib/messages/storage/__init__'
p1775
sg12
g13
(g14
g15
NtRp1776
(dp1777
g18
I1
sg19
I0
sg20
I18
sg21
I0
sg22
I0
sg23
I13
sg24
I0
sbssg54
S'\xa0\t\xb5\xe9\x01S\x15\\f\x1d\xb6\xd2t\x937\x8a'
p1778
ssS'_Library_Python_2_7_site-packages_django_contrib_admin_models'
p1779
(dp1780
g48
(dp1781
g8
S'_Library_Python_2_7_site-packages_django_contrib_admin_models.html'
p1782
sg10
S'/Library/Python/2.7/site-packages/django/contrib/admin/models'
p1783
sg12
g13
(g14
g15
NtRp1784
(dp1785
g18
I1
sg19
I0
sg20
I50
sg21
I0
sg22
I0
sg23
I17
sg24
I0
sbssg54
S'\x01\x0byuK}\x1eM\xc7\xc6Yf\x8f=\xd3\xbf'
p1786
ssS'_Library_Python_2_7_site-packages_django_contrib_staticfiles_templatetags___init__'
p1787
(dp1788
g48
(dp1789
g8
S'_Library_Python_2_7_site-packages_django_contrib_staticfiles_templatetags___init__.html'
p1790
sg10
S'/Library/Python/2.7/site-packages/django/contrib/staticfiles/templatetags/__init__'
p1791
sg12
g13
(g14
g15
NtRp1792
(dp1793
g18
I1
sg19
I0
sg20
I0
sg21
I0
sg22
I0
sg23
I0
sg24
I0
sbssg54
S'\xb0\xc8pN\xaf>\xa0\xbaz\x144\xe0A9\xb8?'
p1794
ssS'_Library_Python_2_7_site-packages_django_contrib_admin_util'
p1795
(dp1796
g48
(dp1797
g8
S'_Library_Python_2_7_site-packages_django_contrib_admin_util.html'
p1798
sg10
S'/Library/Python/2.7/site-packages/django/contrib/admin/util'
p1799
sg12
g13
(g14
g15
NtRp1800
(dp1801
g18
I1
sg19
I0
sg20
I256
sg21
I0
sg22
I0
sg23
I217
sg24
I0
sbssg54
S'U\x0b\xcc\xa7dQ\x96k\x9bc\x9e\x19\xc7\x9f?b'
p1802
ssS'_Library_Python_2_7_site-packages_psycopg2_tz'
p1803
(dp1804
g6
(dp1805
g59
S'_Library_Python_2_7_site-packages_psycopg2_tz.html'
p1806
sg61
S'/Library/Python/2.7/site-packages/psycopg2/tz'
p1807
sg63
g13
(g14
g15
NtRp1808
(dp1809
g18
I1
sg19
I0
sg20
I61
sg21
I0
sg22
I0
sg23
I37
sg24
I0
sbssg25
S'\x8a\x91&\x8c\x99\xa5\xaa|k3l\xbe(\xb4\xfe8'
p1810
ssS'_Library_Python_2_7_site-packages_django_core_files_uploadedfile'
p1811
(dp1812
g6
(dp1813
g59
S'_Library_Python_2_7_site-packages_django_core_files_uploadedfile.html'
p1814
sg61
S'/Library/Python/2.7/site-packages/django/core/files/uploadedfile'
p1815
sg63
g13
(g14
g15
NtRp1816
(dp1817
g18
I1
sg19
I0
sg20
I63
sg21
I0
sg22
I0
sg23
I34
sg24
I0
sbssg25
S'yv\x0b\xbdw\xa4\xc6\xdf\xafC\xedY\xae\xd2\xc2\xda'
p1818
ssS'_Library_Python_2_7_site-packages_django_db_backends_postgresql_psycopg2_creation'
p1819
(dp1820
g6
(dp1821
g8
S'_Library_Python_2_7_site-packages_django_db_backends_postgresql_psycopg2_creation.html'
p1822
sg10
S'/Library/Python/2.7/site-packages/django/db/backends/postgresql_psycopg2/creation'
p1823
sg12
g13
(g14
g15
NtRp1824
(dp1825
g18
I1
sg19
I0
sg20
I35
sg21
I0
sg22
I0
sg23
I7
sg24
I0
sbssg25
S'\x9c\xa8\xd2\x1a\x05\xd1\xb7\x80\xeeS\x12\xaa\x1dnI\xee'
p1826
ssS'_Library_Python_2_7_site-packages_django_db_backends_creation'
p1827
(dp1828
g6
(dp1829
g8
S'_Library_Python_2_7_site-packages_django_db_backends_creation.html'
p1830
sg10
S'/Library/Python/2.7/site-packages/django/db/backends/creation'
p1831
sg12
g13
(g14
g15
NtRp1832
(dp1833
g18
I1
sg19
I0
sg20
I212
sg21
I0
sg22
I0
sg23
I72
sg24
I0
sbssg25
S'\xa8\xb3\x8c\xed\x02\x861r\x80\xb9|\xee\x89\xe6\xe1\xbc'
p1834
ssS'_Library_Python_2_7_site-packages_django_core_mail_message'
p1835
(dp1836
g6
(dp1837
g381
S'_Library_Python_2_7_site-packages_django_core_mail_message.html'
p1838
sg383
S'/Library/Python/2.7/site-packages/django/core/mail/message'
p1839
sg385
g13
(g14
g15
NtRp1840
(dp1841
g18
I1
sg19
I0
sg20
I210
sg21
I0
sg22
I0
sg23
I138
sg24
I0
sbssg25
S'\xda\x07\xe2\xdd\xf0\xbcX\xfe<\xc0Oe\x98hh`'
p1842
ssS'_Library_Python_2_7_site-packages_south_db___init__'
p1843
(dp1844
g48
(dp1845
g8
S'_Library_Python_2_7_site-packages_south_db___init__.html'
p1846
sg10
S'/Library/Python/2.7/site-packages/south/db/__init__'
p1847
sg12
g13
(g14
g15
NtRp1848
(dp1849
g18
I1
sg19
I0
sg20
I24
sg21
I0
sg22
I0
sg23
I9
sg24
I0
sbssg54
S'\xff\x0e\xb2\x8d\xb9x\xab1H}\\\x8e\x8f\xe5",'
p1850
ssS'_Library_Python_2_7_site-packages_django_core_cache_backends___init__'
p1851
(dp1852
g6
(dp1853
g59
S'_Library_Python_2_7_site-packages_django_core_cache_backends___init__.html'
p1854
sg61
S'/Library/Python/2.7/site-packages/django/core/cache/backends/__init__'
p1855
sg63
g13
(g14
g15
NtRp1856
(dp1857
g18
I1
sg19
I0
sg20
I0
sg21
I0
sg22
I0
sg23
I0
sg24
I0
sbssg25
S'\xb0\xc8pN\xaf>\xa0\xbaz\x144\xe0A9\xb8?'
p1858
ssS'_Library_Python_2_7_site-packages_django_template_defaultfilters'
p1859
(dp1860
g6
(dp1861
g59
S'_Library_Python_2_7_site-packages_django_template_defaultfilters.html'
p1862
sg61
S'/Library/Python/2.7/site-packages/django/template/defaultfilters'
p1863
sg63
g13
(g14
g15
NtRp1864
(dp1865
g18
I1
sg19
I0
sg20
I457
sg21
I0
sg22
I0
sg23
I326
sg24
I0
sbssg25
S'\xb8\xee\x1e9\xb8a\x93\xb8\xec\xec\xd2\x124A\xc8&'
p1866
ssS'_Library_Python_2_7_site-packages_south_exceptions'
p1867
(dp1868
g48
(dp1869
g8
S'_Library_Python_2_7_site-packages_south_exceptions.html'
p1870
sg10
S'/Library/Python/2.7/site-packages/south/exceptions'
p1871
sg12
g13
(g14
g15
NtRp1872
(dp1873
g18
I1
sg19
I0
sg20
I92
sg21
I0
sg22
I0
sg23
I42
sg24
I0
sbssg54
S"\xf6\xb5\xe7\xed\x83\xa5E\xca\x95\x13\x82 w'\xe1\x99"
p1874
ssS'_Library_Python_2_7_site-packages_south_migration_utils'
p1875
(dp1876
g48
(dp1877
g8
S'_Library_Python_2_7_site-packages_south_migration_utils.html'
p1878
sg10
S'/Library/Python/2.7/site-packages/south/migration/utils'
p1879
sg12
g13
(g14
g15
NtRp1880
(dp1881
g18
I1
sg19
I0
sg20
I55
sg21
I0
sg22
I0
sg23
I33
sg24
I0
sbssg54
S'\xad\xb9E\xb6\tu\xaa}\x8byA\xb9\xc60\xde8'
p1882
ssS'_Library_Python_2_7_site-packages_django_utils_translation_trans_real'
p1883
(dp1884
g6
(dp1885
g8
S'_Library_Python_2_7_site-packages_django_utils_translation_trans_real.html'
p1886
sg10
S'/Library/Python/2.7/site-packages/django/utils/translation/trans_real'
p1887
sg12
g13
(g14
g15
NtRp1888
(dp1889
g18
I1
sg19
I0
sg20
I365
sg21
I0
sg22
I0
sg23
I226
sg24
I0
sbssg25
S"\x14:\xab+qr&'\xc6\xd3\x0b\xac\x8b1^!"
p1890
ssS'_Library_Python_2_7_site-packages_django_core_exceptions'
p1891
(dp1892
g6
(dp1893
g59
S'_Library_Python_2_7_site-packages_django_core_exceptions.html'
p1894
sg61
S'/Library/Python/2.7/site-packages/django/core/exceptions'
p1895
sg63
g13
(g14
g15
NtRp1896
(dp1897
g18
I1
sg19
I0
sg20
I48
sg21
I0
sg22
I0
sg23
I24
sg24
I0
sbssg25
S'a\xe3\xad\nKH\xdek\xda\xd5\x03\x9fP\x15\xc6\xc6'
p1898
ssS'_Library_Python_2_7_site-packages_django_core_mail_backends_locmem'
p1899
(dp1900
g379
(dp1901
g381
S'_Library_Python_2_7_site-packages_django_core_mail_backends_locmem.html'
p1902
sg383
S'/Library/Python/2.7/site-packages/django/core/mail/backends/locmem'
p1903
sg385
g13
(g14
g15
NtRp1904
(dp1905
g18
I1
sg19
I0
sg20
I10
sg21
I0
sg22
I0
sg23
I1
sg24
I0
sbssg388
S'\xb6\x11\x81\xba\xb1\xf7\xee\xeb<4\xad*&\xe0\xb7\xe6'
p1906
ssS'carpoolapp_testUtils'
p1907
(dp1908
g48
(dp1909
g8
S'carpoolapp_testUtils.html'
p1910
sg10
S'carpoolapp/testUtils'
p1911
sg12
g13
(g14
g15
NtRp1912
(dp1913
g18
I1
sg19
I0
sg20
I55
sg21
I0
sg22
I0
sg23
I0
sg24
I0
sbssg54
S'\xc2\x04YV\x8d6\x8d\xfe\x90\x87>W3z\x1c\xec'
p1914
ssS'_Library_Python_2_7_site-packages_south_signals'
p1915
(dp1916
g48
(dp1917
g8
S'_Library_Python_2_7_site-packages_south_signals.html'
p1918
sg10
S'/Library/Python/2.7/site-packages/south/signals'
p1919
sg12
g13
(g14
g15
NtRp1920
(dp1921
g18
I1
sg19
I0
sg20
I5
sg21
I0
sg22
I0
sg23
I0
sg24
I0
sbssg54
S']\x7fp!\xd57kP\xa7oZjp4\x8eu'
p1922
ssS'carpoolapp_unitTest'
p1923
(dp1924
g48
(dp1925
g313
S'carpoolapp_unitTest.html'
p1926
sg315
S'carpoolapp/unitTest'
p1927
sg317
g13
(g14
g15
NtRp1928
(dp1929
g18
I1
sg19
I0
sg20
I784
sg21
I0
sg22
I0
sg23
I0
sg24
I0
sbssg54
S'/RP\xb5\xdf_\x03\xbfi\xd0\xf3\x84v^m\xc2'
p1930
ssS'_Library_Python_2_7_site-packages_django_core_serializers_json'
p1931
(dp1932
g48
(dp1933
g939
S'_Library_Python_2_7_site-packages_django_core_serializers_json.html'
p1934
sg941
S'/Library/Python/2.7/site-packages/django/core/serializers/json'
p1935
sg943
g13
(g14
g15
NtRp1936
(dp1937
g18
I1
sg19
I0
sg20
I50
sg21
I0
sg22
I0
sg23
I25
sg24
I0
sbssg54
S'\xa9\xcd\xe5\xd4\xc9\xa3\xccC!\x92\x95hK\xd1\xc1K'
p1938
ssS'_Library_Python_2_7_site-packages_django_template_response'
p1939
(dp1940
g48
(dp1941
g8
S'_Library_Python_2_7_site-packages_django_template_response.html'
p1942
sg10
S'/Library/Python/2.7/site-packages/django/template/response'
p1943
sg12
g13
(g14
g15
NtRp1944
(dp1945
g18
I1
sg19
I0
sg20
I72
sg21
I0
sg22
I0
sg23
I50
sg24
I0
sbssg54
S'\xb1\xac\xaba\xdcM\xb4\x07\xb1\xe5\xcb\xf3\x13&v\xf8'
p1946
ssS'_Library_Python_2_7_site-packages_django_db_models_sql_compiler'
p1947
(dp1948
g48
(dp1949
g30
S'_Library_Python_2_7_site-packages_django_db_models_sql_compiler.html'
p1950
sg32
S'/Library/Python/2.7/site-packages/django/db/models/sql/compiler'
p1951
sg34
g13
(g14
g15
NtRp1952
(dp1953
g18
I1
sg19
I0
sg20
I653
sg21
I0
sg22
I0
sg23
I324
sg24
I0
sbssg54
S'\xa6\xebU\\7?\x8aU\xefe\xc6\xa1\xc1\x80e\xa3'
p1954
ssS'_Library_Python_2_7_site-packages_django_contrib_staticfiles_views'
p1955
(dp1956
g6
(dp1957
g59
S'_Library_Python_2_7_site-packages_django_contrib_staticfiles_views.html'
p1958
sg61
S'/Library/Python/2.7/site-packages/django/contrib/staticfiles/views'
p1959
sg63
g13
(g14
g15
NtRp1960
(dp1961
g18
I1
sg19
I0
sg20
I19
sg21
I0
sg22
I0
sg23
I10
sg24
I0
sbssg25
S'Vs\xc8u\t8L5\x1d\x00\x8b\x0c&\xbd  '
p1962
ssS'_Library_Python_2_7_site-packages_django_contrib_contenttypes_models'
p1963
(dp1964
g48
(dp1965
g8
S'_Library_Python_2_7_site-packages_django_contrib_contenttypes_models.html'
p1966
sg10
S'/Library/Python/2.7/site-packages/django/contrib/contenttypes/models'
p1967
sg12
g13
(g14
g15
NtRp1968
(dp1969
g18
I1
sg19
I0
sg20
I91
sg21
I0
sg22
I0
sg23
I45
sg24
I0
sbssg54
S'\xa2X\xbdIa\x05\x16m\xea%\xd8\x1e\x81\xa2\xc2\xa1'
p1970
ssS'_Library_Python_2_7_site-packages_south_models'
p1971
(dp1972
g48
(dp1973
g8
S'_Library_Python_2_7_site-packages_south_models.html'
p1974
sg10
S'/Library/Python/2.7/site-packages/south/models'
p1975
sg12
g13
(g14
g15
NtRp1976
(dp1977
g18
I1
sg19
I0
sg20
I21
sg21
I0
sg22
I0
sg23
I11
sg24
I0
sbssg54
S'\x0b\x1b\xa5\x01\x13\xbe\x84\xa8\xdf \xb2+\xdf\xbf\xcc\xe2'
p1978
ssS'_Library_Python_2_7_site-packages_django_db_models_sql_expressions'
p1979
(dp1980
g6
(dp1981
g59
S'_Library_Python_2_7_site-packages_django_db_models_sql_expressions.html'
p1982
sg61
S'/Library/Python/2.7/site-packages/django/db/models/sql/expressions'
p1983
sg63
g13
(g14
g15
NtRp1984
(dp1985
g18
I1
sg19
I0
sg20
I61
sg21
I0
sg22
I0
sg23
I48
sg24
I0
sbssg25
S'g\x06[\x98\xcbA\xf39\xba=F\xdf\xd4\x8dJ\x9f'
p1986
ssS'_Library_Python_2_7_site-packages_django_db_backends_postgresql_psycopg2_operations'
p1987
(dp1988
g6
(dp1989
g8
S'_Library_Python_2_7_site-packages_django_db_backends_postgresql_psycopg2_operations.html'
p1990
sg10
S'/Library/Python/2.7/site-packages/django/db/backends/postgresql_psycopg2/operations'
p1991
sg12
g13
(g14
g15
NtRp1992
(dp1993
g18
I1
sg19
I0
sg20
I99
sg21
I0
sg22
I0
sg23
I44
sg24
I0
sbssg25
S'x\xbd~\xe7>R\xf1\xf3\n\xe0&\xfb\x10"\xf40'
p1994
ssS'_Library_Python_2_7_site-packages_django_core_mail_backends___init__'
p1995
(dp1996
g379
(dp1997
g381
S'_Library_Python_2_7_site-packages_django_core_mail_backends___init__.html'
p1998
sg383
S'/Library/Python/2.7/site-packages/django/core/mail/backends/__init__'
p1999
sg385
g13
(g14
g15
NtRp2000
(dp2001
g18
I1
sg19
I0
sg20
I0
sg21
I0
sg22
I0
sg23
I0
sg24
I0
sbssg388
S'Yd\x89\xd2u\xf7\x1dgvmQ.\xe1\xce/\xd0'
p2002
ssS'_Library_Python_2_7_site-packages_django_utils_ipv6'
p2003
(dp2004
g6
(dp2005
g59
S'_Library_Python_2_7_site-packages_django_utils_ipv6.html'
p2006
sg61
S'/Library/Python/2.7/site-packages/django/utils/ipv6'
p2007
sg63
g13
(g14
g15
NtRp2008
(dp2009
g18
I1
sg19
I0
sg20
I107
sg21
I0
sg22
I0
sg23
I100
sg24
I0
sbssg25
S'J^YM\xe4\x01\xa3\xee\xad\x9chj"c\x15~'
p2010
ssS'_Library_Python_2_7_site-packages_django_middleware_csrf'
p2011
(dp2012
g48
(dp2013
g8
S'_Library_Python_2_7_site-packages_django_middleware_csrf.html'
p2014
sg10
S'/Library/Python/2.7/site-packages/django/middleware/csrf'
p2015
sg12
g13
(g14
g15
NtRp2016
(dp2017
g18
I1
sg19
I0
sg20
I82
sg21
I0
sg22
I0
sg23
I58
sg24
I0
sbssg54
S'M\xd3.z\x18\xb9\x8d\xbf\x0bU6\xb8D\x06\xca\x04'
p2018
ssS'_Library_Python_2_7_site-packages_django_contrib_auth_tokens'
p2019
(dp2020
g48
(dp2021
g8
S'_Library_Python_2_7_site-packages_django_contrib_auth_tokens.html'
p2022
sg10
S'/Library/Python/2.7/site-packages/django/contrib/auth/tokens'
p2023
sg12
g13
(g14
g15
NtRp2024
(dp2025
g18
I1
sg19
I0
sg20
I33
sg21
I0
sg22
I0
sg23
I22
sg24
I0
sbssg54
S'\xd5\x0c3\xaaa\x07\xe1\x06.\xfe\xeaP\xc3b\xdb\x96'
p2026
ssS'_Library_Python_2_7_site-packages_pytz_exceptions'
p2027
(dp2028
g6
(dp2029
g59
S'_Library_Python_2_7_site-packages_pytz_exceptions.html'
p2030
sg61
S'/Library/Python/2.7/site-packages/pytz/exceptions'
p2031
sg63
g13
(g14
g15
NtRp2032
(dp2033
g18
I1
sg19
I0
sg20
I6
sg21
I0
sg22
I0
sg23
I0
sg24
I0
sbssg25
S'\xca\xbadT#j\x8b\xb1Q\x18(s\xf5>\x99\xe1'
p2034
ssS'_Library_Python_2_7_site-packages_django_contrib_contenttypes_views'
p2035
(dp2036
g48
(dp2037
g8
S'_Library_Python_2_7_site-packages_django_contrib_contenttypes_views.html'
p2038
sg10
S'/Library/Python/2.7/site-packages/django/contrib/contenttypes/views'
p2039
sg12
g13
(g14
g15
NtRp2040
(dp2041
g18
I1
sg19
I0
sg20
I49
sg21
I0
sg22
I0
sg23
I43
sg24
I0
sbssg54
S'\x9a\x02]\x07#\xb5\x9e\x0c\xa1\xd2\x93\x89^\xeeF\xa7'
p2042
ssS'_Library_Python_2_7_site-packages_django_core_mail___init__'
p2043
(dp2044
g6
(dp2045
g381
S'_Library_Python_2_7_site-packages_django_core_mail___init__.html'
p2046
sg383
S'/Library/Python/2.7/site-packages/django/core/mail/__init__'
p2047
sg385
g13
(g14
g15
NtRp2048
(dp2049
g18
I1
sg19
I0
sg20
I38
sg21
I0
sg22
I0
sg23
I19
sg24
I0
sbssg25
S'\xa7\xb0Us\x80\xfc\x85\xa9rJ\x7f\xb6\xc5\xdcS\xf4'
p2050
ssS'_Library_Python_2_7_site-packages_django_core_management_validation'
p2051
(dp2052
g48
(dp2053
g8
S'_Library_Python_2_7_site-packages_django_core_management_validation.html'
p2054
sg10
S'/Library/Python/2.7/site-packages/django/core/management/validation'
p2055
sg12
g13
(g14
g15
NtRp2056
(dp2057
g18
I1
sg19
I0
sg20
I213
sg21
I0
sg22
I0
sg23
I102
sg24
I0
sbssg54
S'jgI&\x003\xd19ZmWEx\xdc:~'
p2058
ssS'_Library_Python_2_7_site-packages_django_core_files_uploadhandler'
p2059
(dp2060
g6
(dp2061
g59
S'_Library_Python_2_7_site-packages_django_core_files_uploadhandler.html'
p2062
sg61
S'/Library/Python/2.7/site-packages/django/core/files/uploadhandler'
p2063
sg63
g13
(g14
g15
NtRp2064
(dp2065
g18
I1
sg19
I0
sg20
I89
sg21
I0
sg22
I0
sg23
I54
sg24
I0
sbssg25
S'\xd7\x85G\xd1\xdc3<\xf5\xe9\xd6UF?\xc2\x90\xde'
p2066
ssS'_Library_Python_2_7_site-packages_django_contrib_auth_models'
p2067
(dp2068
g48
(dp2069
g8
S'_Library_Python_2_7_site-packages_django_contrib_auth_models.html'
p2070
sg10
S'/Library/Python/2.7/site-packages/django/contrib/auth/models'
p2071
sg12
g13
(g14
g15
NtRp2072
(dp2073
g18
I1
sg19
I0
sg20
I244
sg21
I0
sg22
I0
sg23
I129
sg24
I0
sbssg54
S'\xb9/yoz\'SU\xdf\xe0\xb0\xa6\xcdD"\xc6'
p2074
ssS'_Library_Python_2_7_site-packages_django_contrib_auth_management___init__'
p2075
(dp2076
g48
(dp2077
g8
S'_Library_Python_2_7_site-packages_django_contrib_auth_management___init__.html'
p2078
sg10
S'/Library/Python/2.7/site-packages/django/contrib/auth/management/__init__'
p2079
sg12
g13
(g14
g15
NtRp2080
(dp2081
g18
I1
sg19
I0
sg20
I64
sg21
I0
sg22
I0
sg23
I30
sg24
I0
sbssg54
S'\xe0\xdb"?K/\x90\x8cms\xbfq\xf5\x04=\xc4'
p2082
ssS'_Library_Python_2_7_site-packages_south_utils_datetime_utils'
p2083
(dp2084
g48
(dp2085
g8
S'_Library_Python_2_7_site-packages_south_utils_datetime_utils.html'
p2086
sg10
S'/Library/Python/2.7/site-packages/south/utils/datetime_utils'
p2087
sg12
g13
(g14
g15
NtRp2088
(dp2089
g18
I1
sg19
I0
sg20
I13
sg21
I0
sg22
I0
sg23
I5
sg24
I0
sbssg54
S'#\xd4%\xc1\x13b\xbe\xdc\x97\xcbi\xabX\x00\xa2\xa7'
p2090
ssS'_Library_Python_2_7_site-packages_django_template_loaders___init__'
p2091
(dp2092
g6
(dp2093
g59
S'_Library_Python_2_7_site-packages_django_template_loaders___init__.html'
p2094
sg61
S'/Library/Python/2.7/site-packages/django/template/loaders/__init__'
p2095
sg63
g13
(g14
g15
NtRp2096
(dp2097
g18
I1
sg19
I0
sg20
I0
sg21
I0
sg22
I0
sg23
I0
sg24
I0
sbssg25
S'\xb0\xc8pN\xaf>\xa0\xbaz\x144\xe0A9\xb8?'
p2098
ssS'_Library_Python_2_7_site-packages_django_http_multipartparser'
p2099
(dp2100
g6
(dp2101
g59
S'_Library_Python_2_7_site-packages_django_http_multipartparser.html'
p2102
sg61
S'/Library/Python/2.7/site-packages/django/http/multipartparser'
p2103
sg63
g13
(g14
g15
NtRp2104
(dp2105
g18
I1
sg19
I0
sg20
I337
sg21
I0
sg22
I0
sg23
I288
sg24
I0
sbssg25
S'\xd2\xb9 \x03\xe5*`\xbd*\x88\xd9I\x92\xb4~\xbb'
p2106
ssS'_Library_Python_2_7_site-packages_pytz_tzinfo'
p2107
(dp2108
g6
(dp2109
g8
S'_Library_Python_2_7_site-packages_pytz_tzinfo.html'
p2110
sg10
S'/Library/Python/2.7/site-packages/pytz/tzinfo'
p2111
sg12
g13
(g14
g15
NtRp2112
(dp2113
g18
I1
sg19
I0
sg20
I178
sg21
I0
sg22
I0
sg23
I79
sg24
I0
sbssg25
S"\xa3\xd9iA@\xe8c\x0b\xc1V\xb0]'5\xd0\x9c"
p2114
ssS'_Library_Python_2_7_site-packages_django_contrib_admin_helpers'
p2115
(dp2116
g48
(dp2117
g8
S'_Library_Python_2_7_site-packages_django_contrib_admin_helpers.html'
p2118
sg10
S'/Library/Python/2.7/site-packages/django/contrib/admin/helpers'
p2119
sg12
g13
(g14
g15
NtRp2120
(dp2121
g18
I1
sg19
I0
sg20
I245
sg21
I0
sg22
I0
sg23
I182
sg24
I0
sbssg54
S'2\x07\xb3\xfcP!\xc7\x02\xd7\xd9"\xf4\xab\xfd\xbfX'
p2122
ssS'_Library_Python_2_7_site-packages_django_core_servers_basehttp'
p2123
(dp2124
g6
(dp2125
g59
S'_Library_Python_2_7_site-packages_django_core_servers_basehttp.html'
p2126
sg61
S'/Library/Python/2.7/site-packages/django/core/servers/basehttp'
p2127
sg63
g13
(g14
g15
NtRp2128
(dp2129
g18
I1
sg19
I0
sg20
I142
sg21
I0
sg22
I0
sg23
I103
sg24
I0
sbssg25
S'\xdc\x86;\x06\x84B\xf8\xf4\xb2-F\xf8\x7f\x05\xcb\xf0'
p2130
ssS'_Library_Python_2_7_site-packages_django_contrib_admin_filters'
p2131
(dp2132
g48
(dp2133
g8
S'_Library_Python_2_7_site-packages_django_contrib_admin_filters.html'
p2134
sg10
S'/Library/Python/2.7/site-packages/django/contrib/admin/filters'
p2135
sg12
g13
(g14
g15
NtRp2136
(dp2137
g18
I1
sg19
I0
sg20
I187
sg21
I0
sg22
I0
sg23
I126
sg24
I0
sbssg54
S'\xaa\xce@\xb7\xca\xc7\xa3\x11F\x02\xb9\xff\xef\xe5\xf61'
p2138
ssS'_Library_Python_2_7_site-packages_django_core_cache_backends_db'
p2139
(dp2140
g48
(dp2141
g8
S'_Library_Python_2_7_site-packages_django_core_cache_backends_db.html'
p2142
sg10
S'/Library/Python/2.7/site-packages/django/core/cache/backends/db'
p2143
sg12
g13
(g14
g15
NtRp2144
(dp2145
g18
I1
sg19
I0
sg20
I127
sg21
I0
sg22
I0
sg23
I103
sg24
I0
sbssg54
S"\xee\x8a'\xb6\x8d\x06\x8ca\t\x1c\x9dE\x8b\x854H"
p2146
sssS'version'
p2147
S'3.6'
p2148
sS'settings'
p2149
S'3\xcf\xa1\x19.\x88o$\x8cA\xde\xbd\xcd\x06\xa1\x0f'
p2150
sS'format'
p2151
I1
s.