(dp1
S'files'
p2
(dp3
S'_Library_Python_2_7_site-packages_django_utils_decorators'
p4
(dp5
S'index'
p6
(dp7
S'html_filename'
p8
S'_Library_Python_2_7_site-packages_django_utils_decorators.html'
p9
sS'name'
p10
S'/Library/Python/2.7/site-packages/django/utils/decorators'
p11
sS'nums'
p12
ccopy_reg
_reconstructor
p13
(ccoverage.results
Numbers
p14
c__builtin__
object
p15
NtRp16
(dp17
S'n_files'
p18
I1
sS'n_branches'
p19
I0
sS'n_statements'
p20
I59
sS'n_excluded'
p21
I0
sS'n_partial_branches'
p22
I0
sS'n_missing'
p23
I33
sS'n_missing_branches'
p24
I0
sbssS'hash'
p25
S'\xd4C\xaf\x8d\xf9z (\xa8J9\xf4\x84\x8eHg'
p26
ssS'_Library_Python_2_7_site-packages_django_db_models_query'
p27
(dp28
g6
(dp29
g8
S'_Library_Python_2_7_site-packages_django_db_models_query.html'
p30
sg10
S'/Library/Python/2.7/site-packages/django/db/models/query'
p31
sg12
g13
(g14
g15
NtRp32
(dp33
g18
I1
sg19
I0
sg20
I925
sg21
I0
sg22
I0
sg23
I613
sg24
I0
sbssg25
S'\x0b\x08\xfe\xda\x92\xe6\x98 :7\x89:RkG\x82'
p34
ssS'_Library_Python_2_7_site-packages_south_hacks_django_1_0'
p35
(dp36
S'index'
p37
(dp38
g8
S'_Library_Python_2_7_site-packages_south_hacks_django_1_0.html'
p39
sg10
S'/Library/Python/2.7/site-packages/south/hacks/django_1_0'
p40
sg12
g13
(g14
g15
NtRp41
(dp42
g18
I1
sg19
I0
sg20
I48
sg21
I0
sg22
I0
sg23
I20
sg24
I0
sbssS'hash'
p43
S'\xcf\xe2\xeeD\x8d-\xcd\x0e,\x91\xad\x8b1)\xfd\x9a'
p44
ssS'_Library_Python_2_7_site-packages_django_core_files_temp'
p45
(dp46
g6
(dp47
S'html_filename'
p48
S'_Library_Python_2_7_site-packages_django_core_files_temp.html'
p49
sS'name'
p50
S'/Library/Python/2.7/site-packages/django/core/files/temp'
p51
sS'nums'
p52
g13
(g14
g15
NtRp53
(dp54
g18
I1
sg19
I0
sg20
I28
sg21
I0
sg22
I0
sg23
I21
sg24
I0
sbssg25
S'\x14%Z\x18\x8e\x18K\xa3Y\x1f\xa7\x988\xdc)X'
p55
ssS'_Library_Python_2_7_site-packages_django_db_models_manager'
p56
(dp57
g6
(dp58
g8
S'_Library_Python_2_7_site-packages_django_db_models_manager.html'
p59
sg10
S'/Library/Python/2.7/site-packages/django/db/models/manager'
p60
sg12
g13
(g14
g15
NtRp61
(dp62
g18
I1
sg19
I0
sg20
I139
sg21
I0
sg22
I0
sg23
I43
sg24
I0
sbssg25
S'\xe7}j\xe7\xaa&]\xcf\x87\xccb\xe5\x98mhb'
p63
ssS'_Library_Python_2_7_site-packages_south_migration_migrators'
p64
(dp65
g37
(dp66
g8
S'_Library_Python_2_7_site-packages_south_migration_migrators.html'
p67
sg10
S'/Library/Python/2.7/site-packages/south/migration/migrators'
p68
sg12
g13
(g14
g15
NtRp69
(dp70
g18
I1
sg19
I0
sg20
I231
sg21
I0
sg22
I0
sg23
I165
sg24
I0
sbssg43
S'!\xbe\x94\xc9o\x81\x91\x17\xd2\x10\xbf\x1b\n\xf4\x18\x98'
p71
ssS'_Library_Python_2_7_site-packages_django_utils_dates'
p72
(dp73
g6
(dp74
g48
S'_Library_Python_2_7_site-packages_django_utils_dates.html'
p75
sg50
S'/Library/Python/2.7/site-packages/django/utils/dates'
p76
sg52
g13
(g14
g15
NtRp77
(dp78
g18
I1
sg19
I0
sg20
I9
sg21
I0
sg22
I0
sg23
I0
sg24
I0
sbssg25
S'\xed\xe1n\x81\x12\xc1\xc6\x8b\xd8\x98O4:mTA'
p79
ssS'_Library_Python_2_7_site-packages_django_db_models_sql_subqueries'
p80
(dp81
g6
(dp82
g8
S'_Library_Python_2_7_site-packages_django_db_models_sql_subqueries.html'
p83
sg10
S'/Library/Python/2.7/site-packages/django/db/models/sql/subqueries'
p84
sg12
g13
(g14
g15
NtRp85
(dp86
g18
I1
sg19
I0
sg20
I113
sg21
I0
sg22
I0
sg23
I60
sg24
I0
sbssg25
S"(\xa1\xff\x97%'\x7fG)\x08\xd4<\xf0\xa1'1"
p87
ssS'_Library_Python_2_7_site-packages_south_management_commands_migrate'
p88
(dp89
g37
(dp90
g8
S'_Library_Python_2_7_site-packages_south_management_commands_migrate.html'
p91
sg10
S'/Library/Python/2.7/site-packages/south/management/commands/migrate'
p92
sg12
g13
(g14
g15
NtRp93
(dp94
g18
I1
sg19
I0
sg20
I123
sg21
I0
sg22
I0
sg23
I91
sg24
I0
sbssg43
S'd\xc5=\xaf\xd6G\xbaJ\x1c\xc0\xce]k\xa8\x18\xa1'
p95
ssS'_Library_Python_2_7_site-packages_django_db_models_aggregates'
p96
(dp97
g6
(dp98
g48
S'_Library_Python_2_7_site-packages_django_db_models_aggregates.html'
p99
sg50
S'/Library/Python/2.7/site-packages/django/db/models/aggregates'
p100
sg52
g13
(g14
g15
NtRp101
(dp102
g18
I1
sg19
I0
sg20
I25
sg21
I0
sg22
I0
sg23
I6
sg24
I0
sbssg25
S'TO\x1e/\xbc\x9c\x17\xc0\xd4\xad\xd9\xae\xc4\\\xa4I'
p103
ssS'_Library_Python_2_7_site-packages_django_db_backends_postgresql_psycopg2_version'
p104
(dp105
g6
(dp106
g8
S'_Library_Python_2_7_site-packages_django_db_backends_postgresql_psycopg2_version.html'
p107
sg10
S'/Library/Python/2.7/site-packages/django/db/backends/postgresql_psycopg2/version'
p108
sg12
g13
(g14
g15
NtRp109
(dp110
g18
I1
sg19
I0
sg20
I14
sg21
I0
sg22
I0
sg23
I8
sg24
I0
sbssg25
S'\xa8n\xb3&\xe2\xd0\x98\x7f\xee#\x05\x97\xa4\xb9\xf54'
p111
ssS'_Library_Python_2_7_site-packages_south_management_commands___init__'
p112
(dp113
g37
(dp114
g8
S'_Library_Python_2_7_site-packages_south_management_commands___init__.html'
p115
sg10
S'/Library/Python/2.7/site-packages/south/management/commands/__init__'
p116
sg12
g13
(g14
g15
NtRp117
(dp118
g18
I1
sg19
I0
sg20
I18
sg21
I0
sg22
I0
sg23
I1
sg24
I0
sbssg43
S'b&]\x8bu\x13\xcde\x13\xe0\xdc1\xc1\xe6B|'
p119
ssS'_Library_Python_2_7_site-packages_django_core_management_sql'
p120
(dp121
g37
(dp122
g8
S'_Library_Python_2_7_site-packages_django_core_management_sql.html'
p123
sg10
S'/Library/Python/2.7/site-packages/django/core/management/sql'
p124
sg12
g13
(g14
g15
NtRp125
(dp126
g18
I1
sg19
I0
sg20
I107
sg21
I0
sg22
I0
sg23
I76
sg24
I0
sbssg43
S'\xf7v;\xcd\x12\xa3\xdc\x13\x8a\x89\xe5l\xe3\xcc`\x9d'
p127
ssS'_Library_Python_2_7_site-packages_django_contrib_auth_hashers'
p128
(dp129
g37
(dp130
g8
S'_Library_Python_2_7_site-packages_django_contrib_auth_hashers.html'
p131
sg10
S'/Library/Python/2.7/site-packages/django/contrib/auth/hashers'
p132
sg12
g13
(g14
g15
NtRp133
(dp134
g18
I1
sg19
I0
sg20
I200
sg21
I0
sg22
I0
sg23
I134
sg24
I0
sbssg43
S':\x81\xf2h\xfaUD\xd8\xa9\xd3K\xbaz\xceY\xf6'
p135
ssS'_Library_Python_2_7_site-packages_django_test_simple'
p136
(dp137
g6
(dp138
S'html_filename'
p139
S'_Library_Python_2_7_site-packages_django_test_simple.html'
p140
sS'name'
p141
S'/Library/Python/2.7/site-packages/django/test/simple'
p142
sS'nums'
p143
g13
(g14
g15
NtRp144
(dp145
g18
I1
sg19
I0
sg20
I198
sg21
I0
sg22
I0
sg23
I72
sg24
I0
sbssg25
S'\x92\xa3\xaccV,\xdf\x8f.\xef\x96<\xe4i\xd6~'
p146
ssS'_Library_Python_2_7_site-packages_django_utils_tzinfo'
p147
(dp148
g6
(dp149
g48
S'_Library_Python_2_7_site-packages_django_utils_tzinfo.html'
p150
sg50
S'/Library/Python/2.7/site-packages/django/utils/tzinfo'
p151
sg52
g13
(g14
g15
NtRp152
(dp153
g18
I1
sg19
I0
sg20
I52
sg21
I0
sg22
I0
sg23
I34
sg24
I0
sbssg25
S'J\x85\xf4\xb5CA45\x13xif\xcd\x822M'
p154
ssS'_Library_Python_2_7_site-packages_south_management_commands_syncdb'
p155
(dp156
g37
(dp157
g8
S'_Library_Python_2_7_site-packages_south_management_commands_syncdb.html'
p158
sg10
S'/Library/Python/2.7/site-packages/south/management/commands/syncdb'
p159
sg12
g13
(g14
g15
NtRp160
(dp161
g18
I1
sg19
I0
sg20
I65
sg21
I0
sg22
I0
sg23
I13
sg24
I0
sbssg43
S'\r\xf5\n\xc4U-\x96X\xea]\xed\xf4-\xa0\xb5 '
p162
ssS'_Library_Python_2_7_site-packages_django_views_static'
p163
(dp164
g6
(dp165
g48
S'_Library_Python_2_7_site-packages_django_views_static.html'
p166
sg50
S'/Library/Python/2.7/site-packages/django/views/static'
p167
sg52
g13
(g14
g15
NtRp168
(dp169
g18
I1
sg19
I0
sg20
I74
sg21
I0
sg22
I0
sg23
I58
sg24
I0
sbssg25
S'\xc03WiA\xf43pq\xf8\xbc\x92?\xc6~\xa2'
p170
ssS'_Library_Python_2_7_site-packages_django_test_client'
p171
(dp172
g6
(dp173
g48
S'_Library_Python_2_7_site-packages_django_test_client.html'
p174
sg50
S'/Library/Python/2.7/site-packages/django/test/client'
p175
sg52
g13
(g14
g15
NtRp176
(dp177
g18
I1
sg19
I0
sg20
I260
sg21
I0
sg22
I0
sg23
I195
sg24
I0
sbssg25
S'O\xed`)\xcf.z\x08\x02\xa4\x82\x15f\x7f\x0e}'
p178
ssS'_Library_Python_2_7_site-packages_django_db_models_fields_proxy'
p179
(dp180
g6
(dp181
g48
S'_Library_Python_2_7_site-packages_django_db_models_fields_proxy.html'
p182
sg50
S'/Library/Python/2.7/site-packages/django/db/models/fields/proxy'
p183
sg52
g13
(g14
g15
NtRp184
(dp185
g18
I1
sg19
I0
sg20
I6
sg21
I0
sg22
I0
sg23
I3
sg24
I0
sbssg25
S'\xaf:\xd7\xa5\xadun\x1b\xb7\x141\x81\x80j\x94\xe6'
p186
ssS'_Library_Python_2_7_site-packages_django_utils_html'
p187
(dp188
g6
(dp189
g48
S'_Library_Python_2_7_site-packages_django_utils_html.html'
p190
sg50
S'/Library/Python/2.7/site-packages/django/utils/html'
p191
sg52
g13
(g14
g15
NtRp192
(dp193
g18
I1
sg19
I0
sg20
I133
sg21
I0
sg22
I0
sg23
I89
sg24
I0
sbssg25
S'\x16y \nh\x14<P\x87\x1b0\x11\xeeh]\xec'
p194
ssS'_Library_Python_2_7_site-packages_django_contrib_staticfiles_models'
p195
(dp196
g37
(dp197
g8
S'_Library_Python_2_7_site-packages_django_contrib_staticfiles_models.html'
p198
sg10
S'/Library/Python/2.7/site-packages/django/contrib/staticfiles/models'
p199
sg12
g13
(g14
g15
NtRp200
(dp201
g18
I1
sg19
I0
sg20
I0
sg21
I0
sg22
I0
sg23
I0
sg24
I0
sbssg43
S'\xb0\xc8pN\xaf>\xa0\xbaz\x144\xe0A9\xb8?'
p202
ssS'_Library_Python_2_7_site-packages_django___init__'
p203
(dp204
g6
(dp205
g48
S'_Library_Python_2_7_site-packages_django___init__.html'
p206
sg50
S'/Library/Python/2.7/site-packages/django/__init__'
p207
sg52
g13
(g14
g15
NtRp208
(dp209
g18
I1
sg19
I0
sg20
I18
sg21
I0
sg22
I0
sg23
I6
sg24
I0
sbssg25
S'\xf0\x13?\xd9\xba.\xecb\x02\xbc\xc7\x99)\xd7:\xea'
p210
ssS'_Library_Python_2_7_site-packages_django_db_backends_signals'
p211
(dp212
g6
(dp213
g48
S'_Library_Python_2_7_site-packages_django_db_backends_signals.html'
p214
sg50
S'/Library/Python/2.7/site-packages/django/db/backends/signals'
p215
sg52
g13
(g14
g15
NtRp216
(dp217
g18
I1
sg19
I0
sg20
I2
sg21
I0
sg22
I0
sg23
I0
sg24
I0
sbssg25
S'\xac\xe8\xc0\xe9\x8a\xd9d\xcc\x03\xc1\x89\xd4\xde\xa8x<'
p218
ssS'_Library_Python_2_7_site-packages_django_utils_datetime_safe'
p219
(dp220
g6
(dp221
g48
S'_Library_Python_2_7_site-packages_django_utils_datetime_safe.html'
p222
sg50
S'/Library/Python/2.7/site-packages/django/utils/datetime_safe'
p223
sg52
g13
(g14
g15
NtRp224
(dp225
g18
I1
sg19
I0
sg20
I56
sg21
I0
sg22
I0
sg23
I42
sg24
I0
sbssg25
S'\xcf\x16v\x83I\x1c\x906G\x91=\xec\x94\xfdf\xbe'
p226
ssS'_Library_Python_2_7_site-packages_django_conf_locale___init__'
p227
(dp228
g37
(dp229
g8
S'_Library_Python_2_7_site-packages_django_conf_locale___init__.html'
p230
sg10
S'/Library/Python/2.7/site-packages/django/conf/locale/__init__'
p231
sg12
g13
(g14
g15
NtRp232
(dp233
g18
I1
sg19
I0
sg20
I1
sg21
I0
sg22
I0
sg23
I0
sg24
I0
sbssg43
S'\xca\x13\xff\x014\xc8\xe6I\xcb\xd3B<uIk\xbe'
p234
ssS'_Library_Python_2_7_site-packages_django_utils_simplejson___init__'
p235
(dp236
g6
(dp237
g48
S'_Library_Python_2_7_site-packages_django_utils_simplejson___init__.html'
p238
sg50
S'/Library/Python/2.7/site-packages/django/utils/simplejson/__init__'
p239
sg52
g13
(g14
g15
NtRp240
(dp241
g18
I1
sg19
I0
sg20
I54
sg21
I0
sg22
I0
sg23
I39
sg24
I0
sbssg25
S"\xe5$x;'\x91@\x12\x06\xab)\x0c\x93\xca\xbde"
p242
ssS'_Library_Python_2_7_site-packages_django_core_management_commands_flush'
p243
(dp244
g37
(dp245
g8
S'_Library_Python_2_7_site-packages_django_core_management_commands_flush.html'
p246
sg10
S'/Library/Python/2.7/site-packages/django/core/management/commands/flush'
p247
sg12
g13
(g14
g15
NtRp248
(dp249
g18
I1
sg19
I0
sg20
I43
sg21
I0
sg22
I0
sg23
I31
sg24
I0
sbssg43
S'#jK\xce\x08\xd5\x8a\x8b\xac\xc6\x8c\x97\rC\xe0\x08'
p250
ssS'_Library_Python_2_7_site-packages_django_contrib_admin_forms'
p251
(dp252
g37
(dp253
g8
S'_Library_Python_2_7_site-packages_django_contrib_admin_forms.html'
p254
sg10
S'/Library/Python/2.7/site-packages/django/contrib/admin/forms'
p255
sg12
g13
(g14
g15
NtRp256
(dp257
g18
I1
sg19
I0
sg20
I27
sg21
I0
sg22
I0
sg23
I18
sg24
I0
sbssg43
S'\xde\xbf\x04\xd5\xeb\xcbdH\xcc\x8d\xbb\n\xcd\xd1\xa0\x98'
p258
ssS'_Library_Python_2_7_site-packages_django_db_backends___init__'
p259
(dp260
g6
(dp261
g8
S'_Library_Python_2_7_site-packages_django_db_backends___init__.html'
p262
sg10
S'/Library/Python/2.7/site-packages/django/db/backends/__init__'
p263
sg12
g13
(g14
g15
NtRp264
(dp265
g18
I1
sg19
I0
sg20
I428
sg21
I0
sg22
I0
sg23
I166
sg24
I0
sbssg25
S'\xc6\xcf=Y\xc1\xd5\xad V8\xf4\xd8M\x04s\x97'
p266
ssS'_Library_Python_2_7_site-packages_django_core_serializers___init__'
p267
(dp268
g37
(dp269
g8
S'_Library_Python_2_7_site-packages_django_core_serializers___init__.html'
p270
sg10
S'/Library/Python/2.7/site-packages/django/core/serializers/__init__'
p271
sg12
g13
(g14
g15
NtRp272
(dp273
g18
I1
sg19
I0
sg20
I58
sg21
I0
sg22
I0
sg23
I40
sg24
I0
sbssg43
S'\x89\xbaB\x85\x82\xf4\n3d!d\xbf\xab\xe9e\x1a'
p274
ssS'_Library_Python_2_7_site-packages_django_utils___init__'
p275
(dp276
g6
(dp277
g48
S'_Library_Python_2_7_site-packages_django_utils___init__.html'
p278
sg50
S'/Library/Python/2.7/site-packages/django/utils/__init__'
p279
sg52
g13
(g14
g15
NtRp280
(dp281
g18
I1
sg19
I0
sg20
I0
sg21
I0
sg22
I0
sg23
I0
sg24
I0
sbssg25
S'\xb0\xc8pN\xaf>\xa0\xbaz\x144\xe0A9\xb8?'
p282
ssS'_Library_Python_2_7_site-packages_django_utils_timezone'
p283
(dp284
g6
(dp285
g8
S'_Library_Python_2_7_site-packages_django_utils_timezone.html'
p286
sg10
S'/Library/Python/2.7/site-packages/django/utils/timezone'
p287
sg12
g13
(g14
g15
NtRp288
(dp289
g18
I1
sg19
I0
sg20
I110
sg21
I0
sg22
I0
sg23
I63
sg24
I0
sbssg25
S'b\x8f\xd3fy\xd8\xd9\xd8\xc5d6\x00\xa3e\xdf\xac'
p290
ssS'carpoolapp_models'
p291
(dp292
g37
(dp293
S'html_filename'
p294
S'carpoolapp_models.html'
p295
sS'name'
p296
S'carpoolapp/models'
p297
sS'nums'
p298
g13
(g14
g15
NtRp299
(dp300
g18
I1
sg19
I0
sg20
I171
sg21
I0
sg22
I0
sg23
I59
sg24
I0
sbssg43
S'Y>\xf6\xa9f*A\x05\x91V\xb2\x0ck\xb6M"'
p301
ssS'_Library_Python_2_7_site-packages_django_core_files_utils'
p302
(dp303
g6
(dp304
g48
S'_Library_Python_2_7_site-packages_django_core_files_utils.html'
p305
sg50
S'/Library/Python/2.7/site-packages/django/core/files/utils'
p306
sg52
g13
(g14
g15
NtRp307
(dp308
g18
I1
sg19
I0
sg20
I19
sg21
I0
sg22
I0
sg23
I1
sg24
I0
sbssg25
S'\x91@)\xe4(\x81\xd6\xb8\x9b\x16\xc4\xeeh\x11e\xff'
p309
ssS'_Library_Python_2_7_site-packages_django_db_models_options'
p310
(dp311
g6
(dp312
g8
S'_Library_Python_2_7_site-packages_django_db_models_options.html'
p313
sg10
S'/Library/Python/2.7/site-packages/django/db/models/options'
p314
sg12
g13
(g14
g15
NtRp315
(dp316
g18
I1
sg19
I0
sg20
I319
sg21
I0
sg22
I0
sg23
I84
sg24
I0
sbssg25
S'\xb1\x18\xee\x00\x1a\xb9<3B\x12\xd2\xd3\x19D+\xa4'
p317
ssS'_Library_Python_2_7_site-packages_django_db_models_sql_query'
p318
(dp319
g6
(dp320
g8
S'_Library_Python_2_7_site-packages_django_db_models_sql_query.html'
p321
sg10
S'/Library/Python/2.7/site-packages/django/db/models/sql/query'
p322
sg12
g13
(g14
g15
NtRp323
(dp324
g18
I1
sg19
I0
sg20
I1041
sg21
I0
sg22
I0
sg23
I579
sg24
I0
sbssg25
S'\x89l\x00\xca\x18|\xc3\x1d\xc3-\n*\x87l\x06\x1e'
p325
ssS'_Library_Python_2_7_site-packages_django_db_backends_util'
p326
(dp327
g6
(dp328
g8
S'_Library_Python_2_7_site-packages_django_db_backends_util.html'
p329
sg10
S'/Library/Python/2.7/site-packages/django/db/backends/util'
p330
sg12
g13
(g14
g15
NtRp331
(dp332
g18
I1
sg19
I0
sg20
I93
sg21
I0
sg22
I0
sg23
I62
sg24
I0
sbssg25
S'\x9cGE\xe0r\xef]p\x05\xd5K\xd6\x92j\x90\x9d'
p333
ssS'_Library_Python_2_7_site-packages_south___init__'
p334
(dp335
g37
(dp336
g8
S'_Library_Python_2_7_site-packages_south___init__.html'
p337
sg10
S'/Library/Python/2.7/site-packages/south/__init__'
p338
sg12
g13
(g14
g15
NtRp339
(dp340
g18
I1
sg19
I0
sg20
I2
sg21
I0
sg22
I0
sg23
I0
sg24
I0
sbssg43
S'2P\xd7RK.\x97\xb6\xc8\xb4\xc183\x03\xb2\x13'
p341
ssS'carpoolapp___init__'
p342
(dp343
g37
(dp344
g8
S'carpoolapp___init__.html'
p345
sg10
S'carpoolapp/__init__'
p346
sg12
g13
(g14
g15
NtRp347
(dp348
g18
I1
sg19
I0
sg20
I0
sg21
I0
sg22
I0
sg23
I0
sg24
I0
sbssg43
S'\xb0\xc8pN\xaf>\xa0\xbaz\x144\xe0A9\xb8?'
p349
ssS'_Library_Python_2_7_site-packages_django_template_base'
p350
(dp351
g6
(dp352
g8
S'_Library_Python_2_7_site-packages_django_template_base.html'
p353
sg10
S'/Library/Python/2.7/site-packages/django/template/base'
p354
sg12
g13
(g14
g15
NtRp355
(dp356
g18
I1
sg19
I0
sg20
I770
sg21
I0
sg22
I0
sg23
I557
sg24
I0
sbssg25
S'\xe3\x8b\xabY\x12\xaa\xad\xea\x89t\xb4o+f\x05\x15'
p357
ssS'_Library_Python_2_7_site-packages_django_utils_timesince'
p358
(dp359
g6
(dp360
g48
S'_Library_Python_2_7_site-packages_django_utils_timesince.html'
p361
sg50
S'/Library/Python/2.7/site-packages/django/utils/timesince'
p362
sg52
g13
(g14
g15
NtRp363
(dp364
g18
I1
sg19
I0
sg20
I28
sg21
I0
sg22
I0
sg23
I23
sg24
I0
sbssg25
S'\xfd1-5\xb5\xd0-~\xd5u\xc2\xb4/\xe6"0'
p365
ssS'_Library_Python_2_7_site-packages_django_forms_widgets'
p366
(dp367
g6
(dp368
g8
S'_Library_Python_2_7_site-packages_django_forms_widgets.html'
p369
sg10
S'/Library/Python/2.7/site-packages/django/forms/widgets'
p370
sg12
g13
(g14
g15
NtRp371
(dp372
g18
I1
sg19
I0
sg20
I559
sg21
I0
sg22
I0
sg23
I381
sg24
I0
sbssg25
S'D\xb0[]\x8a\x00\x86\xc8\xfe\xa2\x0f\x92\x9e\x8d\x8b3'
p373
ssS'_Library_Python_2_7_site-packages_django_core_urlresolvers'
p374
(dp375
g6
(dp376
g48
S'_Library_Python_2_7_site-packages_django_core_urlresolvers.html'
p377
sg50
S'/Library/Python/2.7/site-packages/django/core/urlresolvers'
p378
sg52
g13
(g14
g15
NtRp379
(dp380
g18
I1
sg19
I0
sg20
I339
sg21
I0
sg22
I0
sg23
I269
sg24
I0
sbssg25
S'\n\xe9\xc0\x1f\x92Y\xa4\xbb\xb7\xdc!/\x03\xfdZ%'
p381
ssS'_Library_Python_2_7_site-packages_django_core_mail_backends_base'
p382
(dp383
S'index'
p384
(dp385
g294
S'_Library_Python_2_7_site-packages_django_core_mail_backends_base.html'
p386
sg296
S'/Library/Python/2.7/site-packages/django/core/mail/backends/base'
p387
sg298
g13
(g14
g15
NtRp388
(dp389
g18
I1
sg19
I0
sg20
I9
sg21
I0
sg22
I0
sg23
I3
sg24
I0
sbssS'hash'
p390
S'\xa8\x17\x18B\xfa\x01\xff\x94\xdd\xbb\xd5<\x91\x11s\xb3'
p391
ssS'_Library_Python_2_7_site-packages_django_contrib_sites_models'
p392
(dp393
g37
(dp394
g8
S'_Library_Python_2_7_site-packages_django_contrib_sites_models.html'
p395
sg10
S'/Library/Python/2.7/site-packages/django/contrib/sites/models'
p396
sg12
g13
(g14
g15
NtRp397
(dp398
g18
I1
sg19
I0
sg20
I55
sg21
I0
sg22
I0
sg23
I28
sg24
I0
sbssg43
S"\xea\x872\xf1'e3H\x04\xc9\x8d\x18;WZg"
p399
ssS'_Library_Python_2_7_site-packages_django_core_management_validation'
p400
(dp401
g37
(dp402
g8
S'_Library_Python_2_7_site-packages_django_core_management_validation.html'
p403
sg10
S'/Library/Python/2.7/site-packages/django/core/management/validation'
p404
sg12
g13
(g14
g15
NtRp405
(dp406
g18
I1
sg19
I0
sg20
I213
sg21
I0
sg22
I0
sg23
I102
sg24
I0
sbssg43
S'jgI&\x003\xd19ZmWEx\xdc:~'
p407
ssS'_Library_Python_2_7_site-packages_django_utils_cache'
p408
(dp409
g37
(dp410
g8
S'_Library_Python_2_7_site-packages_django_utils_cache.html'
p411
sg10
S'/Library/Python/2.7/site-packages/django/utils/cache'
p412
sg12
g13
(g14
g15
NtRp413
(dp414
g18
I1
sg19
I0
sg20
I124
sg21
I0
sg22
I0
sg23
I101
sg24
I0
sbssg43
S'qc4\xc9\x18\xe4\x19"D\x96\xf9\x19\x0e\xac\xe3\xea'
p415
ssS'_Library_Python_2_7_site-packages_django_core_cache___init__'
p416
(dp417
g6
(dp418
g48
S'_Library_Python_2_7_site-packages_django_core_cache___init__.html'
p419
sg50
S'/Library/Python/2.7/site-packages/django/core/cache/__init__'
p420
sg52
g13
(g14
g15
NtRp421
(dp422
g18
I1
sg19
I0
sg20
I83
sg21
I0
sg22
I0
sg23
I29
sg24
I0
sbssg25
S'\x03J\xd1\xea9s5\xa2\x1c\xd2\x9d|J\xbeu\xb9'
p423
ssS'_Library_Python_2_7_site-packages_django_dispatch_saferef'
p424
(dp425
g6
(dp426
g48
S'_Library_Python_2_7_site-packages_django_dispatch_saferef.html'
p427
sg50
S'/Library/Python/2.7/site-packages/django/dispatch/saferef'
p428
sg52
g13
(g14
g15
NtRp429
(dp430
g18
I1
sg19
I0
sg20
I80
sg21
I0
sg22
I0
sg23
I59
sg24
I0
sbssg25
S'\xb8\xa2)1-\x80o\x8bm\x1e\x0bO\xe5\x12*\xd8'
p431
ssS'_Library_Python_2_7_site-packages_django_conf___init__'
p432
(dp433
g6
(dp434
g48
S'_Library_Python_2_7_site-packages_django_conf___init__.html'
p435
sg50
S'/Library/Python/2.7/site-packages/django/conf/__init__'
p436
sg52
g13
(g14
g15
NtRp437
(dp438
g18
I1
sg19
I0
sg20
I85
sg21
I0
sg22
I0
sg23
I28
sg24
I0
sbssg25
S'\xde\x01%5C\xac\xc9\xac\xb3\x10T\x7f`\xf7,r'
p439
ssS'_Library_Python_2_7_site-packages_south_migration_base'
p440
(dp441
g37
(dp442
g8
S'_Library_Python_2_7_site-packages_south_migration_base.html'
p443
sg10
S'/Library/Python/2.7/site-packages/south/migration/base'
p444
sg12
g13
(g14
g15
NtRp445
(dp446
g18
I1
sg19
I0
sg20
I274
sg21
I0
sg22
I0
sg23
I167
sg24
I0
sbssg43
S'\xd1\xc0z\xbd\xb1;=\x0b\xe8\x96\xfbSeL\xab\x0e'
p447
ssS'_Library_Python_2_7_site-packages_django_core_files_move'
p448
(dp449
g6
(dp450
g48
S'_Library_Python_2_7_site-packages_django_core_files_move.html'
p451
sg50
S'/Library/Python/2.7/site-packages/django/core/files/move'
p452
sg52
g13
(g14
g15
NtRp453
(dp454
g18
I1
sg19
I0
sg20
I47
sg21
I0
sg22
I0
sg23
I40
sg24
I0
sbssg25
S'y\\\xb7\x8a\xe3\xc5u\x9bK\xa2(CK\x07Q\x90'
p455
ssS'_Library_Python_2_7_site-packages_django_test__doctest'
p456
(dp457
g6
(dp458
g139
S'_Library_Python_2_7_site-packages_django_test__doctest.html'
p459
sg141
S'/Library/Python/2.7/site-packages/django/test/_doctest'
p460
sg143
g13
(g14
g15
NtRp461
(dp462
g18
I1
sg19
I0
sg20
I896
sg21
I0
sg22
I0
sg23
I753
sg24
I0
sbssg25
S'kv{\xa3w\xeb\x05&\xc6\xc6\xecEb\x90\x00\xf9'
p463
ssS'_Library_Python_2_7_site-packages_django_template___init__'
p464
(dp465
g6
(dp466
g48
S'_Library_Python_2_7_site-packages_django_template___init__.html'
p467
sg50
S'/Library/Python/2.7/site-packages/django/template/__init__'
p468
sg52
g13
(g14
g15
NtRp469
(dp470
g18
I1
sg19
I0
sg20
I6
sg21
I0
sg22
I0
sg23
I0
sg24
I0
sbssg25
S'\xb6\xa0l\x13\xa8q\x87\r\xa8\xea\xdd\x99\xef\xf5k\xd3'
p471
ssS'_Library_Python_2_7_site-packages_django_middleware_cache'
p472
(dp473
g37
(dp474
g8
S'_Library_Python_2_7_site-packages_django_middleware_cache.html'
p475
sg10
S'/Library/Python/2.7/site-packages/django/middleware/cache'
p476
sg12
g13
(g14
g15
NtRp477
(dp478
g18
I1
sg19
I0
sg20
I91
sg21
I0
sg22
I0
sg23
I78
sg24
I0
sbssg43
S'j\xd2\xba\xdeY|T\xd2\xe2\x10\x1c\x7f\xe4m\x0c\x02'
p479
ssS'_Library_Python_2_7_site-packages_django_forms_util'
p480
(dp481
g6
(dp482
g48
S'_Library_Python_2_7_site-packages_django_forms_util.html'
p483
sg50
S'/Library/Python/2.7/site-packages/django/forms/util'
p484
sg52
g13
(g14
g15
NtRp485
(dp486
g18
I1
sg19
I0
sg20
I41
sg21
I0
sg22
I0
sg23
I22
sg24
I0
sbssg25
S'\xd5\xdd\xf1\x0c1\x8a\rz"\xf1\xc5\'q\xb3EH'
p487
ssS'_Library_Python_2_7_site-packages_django_utils_termcolors'
p488
(dp489
g6
(dp490
g48
S'_Library_Python_2_7_site-packages_django_utils_termcolors.html'
p491
sg50
S'/Library/Python/2.7/site-packages/django/utils/termcolors'
p492
sg52
g13
(g14
g15
NtRp493
(dp494
g18
I1
sg19
I0
sg20
I56
sg21
I0
sg22
I0
sg23
I40
sg24
I0
sbssg25
S')\xd7\xec/\xe0)\xeb\xed\xa3\\\xca\xca\xc8aI\xa8'
p495
ssS'_Library_Python_2_7_site-packages_django_contrib_sites___init__'
p496
(dp497
g37
(dp498
g8
S'_Library_Python_2_7_site-packages_django_contrib_sites___init__.html'
p499
sg10
S'/Library/Python/2.7/site-packages/django/contrib/sites/__init__'
p500
sg12
g13
(g14
g15
NtRp501
(dp502
g18
I1
sg19
I0
sg20
I0
sg21
I0
sg22
I0
sg23
I0
sg24
I0
sbssg43
S'\xb0\xc8pN\xaf>\xa0\xbaz\x144\xe0A9\xb8?'
p503
ssS'_Library_Python_2_7_site-packages_django_contrib_admin_widgets'
p504
(dp505
g37
(dp506
g8
S'_Library_Python_2_7_site-packages_django_contrib_admin_widgets.html'
p507
sg10
S'/Library/Python/2.7/site-packages/django/contrib/admin/widgets'
p508
sg12
g13
(g14
g15
NtRp509
(dp510
g18
I1
sg19
I0
sg20
I211
sg21
I0
sg22
I0
sg23
I148
sg24
I0
sbssg43
S'\xd8:v\xfea\x15\xe1\x01B\x8b\x16\x81\xff\xc7Q\x13'
p511
ssS'_Library_Python_2_7_site-packages_django_utils_baseconv'
p512
(dp513
g6
(dp514
g48
S'_Library_Python_2_7_site-packages_django_utils_baseconv.html'
p515
sg50
S'/Library/Python/2.7/site-packages/django/utils/baseconv'
p516
sg52
g13
(g14
g15
NtRp517
(dp518
g18
I1
sg19
I0
sg20
I48
sg21
I0
sg22
I0
sg23
I25
sg24
I0
sbssg25
S'1\xe8\xf6U\x98C\xe4\x99\x17*\xe3\xe1\x86\xeej\x0b'
p519
ssS'_Library_Python_2_7_site-packages_django_db___init__'
p520
(dp521
g6
(dp522
g48
S'_Library_Python_2_7_site-packages_django_db___init__.html'
p523
sg50
S'/Library/Python/2.7/site-packages/django/db/__init__'
p524
sg52
g13
(g14
g15
NtRp525
(dp526
g18
I1
sg19
I0
sg20
I32
sg21
I0
sg22
I0
sg23
I12
sg24
I0
sbssg25
S'\xbf\x07\xee\x9b\xb06\xa4@\xc5H\xcf\xed&\xbf\xc7\xd2'
p527
ssS'_Library_Python_2_7_site-packages_django_utils_functional'
p528
(dp529
g6
(dp530
g8
S'_Library_Python_2_7_site-packages_django_utils_functional.html'
p531
sg10
S'/Library/Python/2.7/site-packages/django/utils/functional'
p532
sg12
g13
(g14
g15
NtRp533
(dp534
g18
I1
sg19
I0
sg20
I168
sg21
I0
sg22
I0
sg23
I67
sg24
I0
sbssg25
S'\xcd\xf6c\x16\xb0\x06b\xb1\x95\xe3\xeb^\x807\xf3/'
p535
ssS'carpoolapp_views'
p536
(dp537
g37
(dp538
g294
S'carpoolapp_views.html'
p539
sg296
S'carpoolapp/views'
p540
sg298
g13
(g14
g15
NtRp541
(dp542
g18
I1
sg19
I0
sg20
I782
sg21
I0
sg22
I0
sg23
I389
sg24
I0
sbssg43
S'\n\x9d"\x1f8\x02\xb9\xfa)\\z\xef\xfe\xf5\xcf\xf0'
p543
ssS'_Library_Python_2_7_site-packages_django_views_debug'
p544
(dp545
g6
(dp546
g48
S'_Library_Python_2_7_site-packages_django_views_debug.html'
p547
sg50
S'/Library/Python/2.7/site-packages/django/views/debug'
p548
sg52
g13
(g14
g15
NtRp549
(dp550
g18
I1
sg19
I0
sg20
I274
sg21
I0
sg22
I0
sg23
I230
sg24
I0
sbssg25
S'E\x1f\x8e\xc1[\xc0\xa1\xf0{\xa5;G!T\xff\x9f'
p551
ssS'_Library_Python_2_7_site-packages_django_contrib_admin_actions'
p552
(dp553
g37
(dp554
g8
S'_Library_Python_2_7_site-packages_django_contrib_admin_actions.html'
p555
sg10
S'/Library/Python/2.7/site-packages/django/contrib/admin/actions'
p556
sg12
g13
(g14
g15
NtRp557
(dp558
g18
I1
sg19
I0
sg20
I34
sg21
I0
sg22
I0
sg23
I25
sg24
I0
sbssg43
S'!\xc3\xbf\x11\xd1\xcc\x7fa\xf0\x1d\xaep\xafI\xf5\x0b'
p559
ssS'_Library_Python_2_7_site-packages_django_contrib_contenttypes___init__'
p560
(dp561
g37
(dp562
g8
S'_Library_Python_2_7_site-packages_django_contrib_contenttypes___init__.html'
p563
sg10
S'/Library/Python/2.7/site-packages/django/contrib/contenttypes/__init__'
p564
sg12
g13
(g14
g15
NtRp565
(dp566
g18
I1
sg19
I0
sg20
I0
sg21
I0
sg22
I0
sg23
I0
sg24
I0
sbssg43
S'\xb0\xc8pN\xaf>\xa0\xbaz\x144\xe0A9\xb8?'
p567
ssS'_Library_Python_2_7_site-packages_django_core_handlers___init__'
p568
(dp569
g6
(dp570
g48
S'_Library_Python_2_7_site-packages_django_core_handlers___init__.html'
p571
sg50
S'/Library/Python/2.7/site-packages/django/core/handlers/__init__'
p572
sg52
g13
(g14
g15
NtRp573
(dp574
g18
I1
sg19
I0
sg20
I0
sg21
I0
sg22
I0
sg23
I0
sg24
I0
sbssg25
S'\xb0\xc8pN\xaf>\xa0\xbaz\x144\xe0A9\xb8?'
p575
ssS'_Library_Python_2_7_site-packages_django_db_models_deletion'
p576
(dp577
g6
(dp578
g8
S'_Library_Python_2_7_site-packages_django_db_models_deletion.html'
p579
sg10
S'/Library/Python/2.7/site-packages/django/db/models/deletion'
p580
sg12
g13
(g14
g15
NtRp581
(dp582
g18
I1
sg19
I0
sg20
I146
sg21
I0
sg22
I0
sg23
I48
sg24
I0
sbssg25
S'O\xa9\xe8F\xedG\xb0\x88\xf2XJ\x88R\xbc.!'
p583
ssS'_Library_Python_2_7_site-packages_django_contrib_auth_forms'
p584
(dp585
g37
(dp586
g8
S'_Library_Python_2_7_site-packages_django_contrib_auth_forms.html'
p587
sg10
S'/Library/Python/2.7/site-packages/django/contrib/auth/forms'
p588
sg12
g13
(g14
g15
NtRp589
(dp590
g18
I1
sg19
I0
sg20
I175
sg21
I0
sg22
I0
sg23
I103
sg24
I0
sbssg43
S'\x91\xff\xe6\xf0u\x92\x88\\a\xd6fR\xb5\xf8,E'
p591
ssS'_Library_Python_2_7_site-packages_django_contrib_admin_templatetags___init__'
p592
(dp593
g37
(dp594
g8
S'_Library_Python_2_7_site-packages_django_contrib_admin_templatetags___init__.html'
p595
sg10
S'/Library/Python/2.7/site-packages/django/contrib/admin/templatetags/__init__'
p596
sg12
g13
(g14
g15
NtRp597
(dp598
g18
I1
sg19
I0
sg20
I0
sg21
I0
sg22
I0
sg23
I0
sg24
I0
sbssg43
S'\xb0\xc8pN\xaf>\xa0\xbaz\x144\xe0A9\xb8?'
p599
ssS'_Library_Python_2_7_site-packages_django_utils_http'
p600
(dp601
g6
(dp602
g48
S'_Library_Python_2_7_site-packages_django_utils_http.html'
p603
sg50
S'/Library/Python/2.7/site-packages/django/utils/http'
p604
sg52
g13
(g14
g15
NtRp605
(dp606
g18
I1
sg19
I0
sg20
I115
sg21
I0
sg22
I0
sg23
I74
sg24
I0
sbssg25
S"\x81\x9f&\xec\x13\x05\x0b\xce\x99\x8a\xa4\x82'`\xf2\x9c"
p607
ssS'_Library_Python_2_7_site-packages_django_contrib_admin___init__'
p608
(dp609
g37
(dp610
g8
S'_Library_Python_2_7_site-packages_django_contrib_admin___init__.html'
p611
sg10
S'/Library/Python/2.7/site-packages/django/contrib/admin/__init__'
p612
sg12
g13
(g14
g15
NtRp613
(dp614
g18
I1
sg19
I0
sg20
I19
sg21
I0
sg22
I0
sg23
I13
sg24
I0
sbssg43
S'yXLFz\xa7\xfe#\x11\xea+\xc9\x1dR"\xfc'
p615
ssS'_Library_Python_2_7_site-packages_south_logger'
p616
(dp617
g37
(dp618
g8
S'_Library_Python_2_7_site-packages_south_logger.html'
p619
sg10
S'/Library/Python/2.7/site-packages/south/logger'
p620
sg12
g13
(g14
g15
NtRp621
(dp622
g18
I1
sg19
I0
sg20
I26
sg21
I0
sg22
I0
sg23
I14
sg24
I0
sbssg43
S'\xbdZM{\x9f\xd1\xfe\xb2\xa9D\xf0\xe2c,\xdf\xee'
p623
ssS'_Library_Python_2_7_site-packages_django_utils_text'
p624
(dp625
g6
(dp626
g48
S'_Library_Python_2_7_site-packages_django_utils_text.html'
p627
sg50
S'/Library/Python/2.7/site-packages/django/utils/text'
p628
sg52
g13
(g14
g15
NtRp629
(dp630
g18
I1
sg19
I0
sg20
I210
sg21
I0
sg22
I0
sg23
I158
sg24
I0
sbssg25
S'\'\x8f\xf8?\xbc\xc41"\xb0\x17\x14V"\x98\x1a\x8e'
p631
ssS'_Library_Python_2_7_site-packages_django_core_paginator'
p632
(dp633
g37
(dp634
g8
S'_Library_Python_2_7_site-packages_django_core_paginator.html'
p635
sg10
S'/Library/Python/2.7/site-packages/django/core/paginator'
p636
sg12
g13
(g14
g15
NtRp637
(dp638
g18
I1
sg19
I0
sg20
I103
sg21
I0
sg22
I0
sg23
I69
sg24
I0
sbssg43
S'l\x81\xf4\xe4\xf0\xa1\xe9\x101\xd8\x90y\xed\xdb_\x81'
p639
ssS'_Library_Python_2_7_site-packages_django_core_signals'
p640
(dp641
g6
(dp642
g48
S'_Library_Python_2_7_site-packages_django_core_signals.html'
p643
sg50
S'/Library/Python/2.7/site-packages/django/core/signals'
p644
sg52
g13
(g14
g15
NtRp645
(dp646
g18
I1
sg19
I0
sg20
I4
sg21
I0
sg22
I0
sg23
I0
sg24
I0
sbssg25
S'\xa8\x92\x82\x13=\x82/\x06\xba\xb2\xa6\xad\xc4o\x81\xc2'
p647
ssS'_Library_Python_2_7_site-packages_django_template_loader_tags'
p648
(dp649
g6
(dp650
g48
S'_Library_Python_2_7_site-packages_django_template_loader_tags.html'
p651
sg50
S'/Library/Python/2.7/site-packages/django/template/loader_tags'
p652
sg52
g13
(g14
g15
NtRp653
(dp654
g18
I1
sg19
I0
sg20
I177
sg21
I0
sg22
I0
sg23
I140
sg24
I0
sbssg25
S'+\x06\xf7\x8aT\x17\x9c\xfcr\x06&\x07\xe8a\t\xc5'
p655
ssS'carpoolapp_testLib'
p656
(dp657
g37
(dp658
g294
S'carpoolapp_testLib.html'
p659
sg296
S'carpoolapp/testLib'
p660
sg298
g13
(g14
g15
NtRp661
(dp662
g18
I1
sg19
I0
sg20
I85
sg21
I0
sg22
I0
sg23
I43
sg24
I0
sbssg43
S'eza\x17#\xb0@\xf1\xe1fnl\xdd\xd01\xcc'
p663
ssS'carpool___init__'
p664
(dp665
g6
(dp666
g48
S'carpool___init__.html'
p667
sg50
S'carpool/__init__'
p668
sg52
g13
(g14
g15
NtRp669
(dp670
g18
I1
sg19
I0
sg20
I0
sg21
I0
sg22
I0
sg23
I0
sg24
I0
sbssg25
S'\xb0\xc8pN\xaf>\xa0\xbaz\x144\xe0A9\xb8?'
p671
ssS'_Library_Python_2_7_site-packages_django_core_management___init__'
p672
(dp673
g6
(dp674
g8
S'_Library_Python_2_7_site-packages_django_core_management___init__.html'
p675
sg10
S'/Library/Python/2.7/site-packages/django/core/management/__init__'
p676
sg12
g13
(g14
g15
NtRp677
(dp678
g18
I1
sg19
I0
sg20
I203
sg21
I0
sg22
I0
sg23
I99
sg24
I0
sbssg25
S'\x92k\xdb\x99\x1b;\xc8c\xc3j\x14\x8b\xa6\xb2\xda\xac'
p679
ssS'_Library_Python_2_7_site-packages_django_utils_tree'
p680
(dp681
g6
(dp682
g8
S'_Library_Python_2_7_site-packages_django_utils_tree.html'
p683
sg10
S'/Library/Python/2.7/site-packages/django/utils/tree'
p684
sg12
g13
(g14
g15
NtRp685
(dp686
g18
I1
sg19
I0
sg20
I62
sg21
I0
sg22
I0
sg23
I18
sg24
I0
sbssg25
S'5I\xa85\xa0#Y\x00\xce\xe3\xc4\xb0=7\xaa\x8c'
p687
ssS'_Library_Python_2_7_site-packages_django_db_models_sql___init__'
p688
(dp689
g6
(dp690
g48
S'_Library_Python_2_7_site-packages_django_db_models_sql___init__.html'
p691
sg50
S'/Library/Python/2.7/site-packages/django/db/models/sql/__init__'
p692
sg52
g13
(g14
g15
NtRp693
(dp694
g18
I1
sg19
I0
sg20
I6
sg21
I0
sg22
I0
sg23
I0
sg24
I0
sbssg25
S'\xea\xf8\xff\x94\xe8\x06\xd7@N\x8e\xb9\x9b)&=f'
p695
ssS'_Library_Python_2_7_site-packages_django_forms_formsets'
p696
(dp697
g6
(dp698
g48
S'_Library_Python_2_7_site-packages_django_forms_formsets.html'
p699
sg50
S'/Library/Python/2.7/site-packages/django/forms/formsets'
p700
sg52
g13
(g14
g15
NtRp701
(dp702
g18
I1
sg19
I0
sg20
I216
sg21
I0
sg22
I0
sg23
I155
sg24
I0
sbssg25
S'U]O\xd9_\xeb\n<EfSe\xd0b\x17\xfd'
p703
ssS'_Library_Python_2_7_site-packages_django_core_mail_backends_locmem'
p704
(dp705
g384
(dp706
g294
S'_Library_Python_2_7_site-packages_django_core_mail_backends_locmem.html'
p707
sg296
S'/Library/Python/2.7/site-packages/django/core/mail/backends/locmem'
p708
sg298
g13
(g14
g15
NtRp709
(dp710
g18
I1
sg19
I0
sg20
I10
sg21
I0
sg22
I0
sg23
I1
sg24
I0
sbssg390
S'\xb6\x11\x81\xba\xb1\xf7\xee\xeb<4\xad*&\xe0\xb7\xe6'
p711
ssS'_Library_Python_2_7_site-packages_django_core___init__'
p712
(dp713
g6
(dp714
g48
S'_Library_Python_2_7_site-packages_django_core___init__.html'
p715
sg50
S'/Library/Python/2.7/site-packages/django/core/__init__'
p716
sg52
g13
(g14
g15
NtRp717
(dp718
g18
I1
sg19
I0
sg20
I0
sg21
I0
sg22
I0
sg23
I0
sg24
I0
sbssg25
S'\xb0\xc8pN\xaf>\xa0\xbaz\x144\xe0A9\xb8?'
p719
ssS'_Library_Python_2_7_site-packages_django_contrib_auth___init__'
p720
(dp721
g6
(dp722
g48
S'_Library_Python_2_7_site-packages_django_contrib_auth___init__.html'
p723
sg50
S'/Library/Python/2.7/site-packages/django/contrib/auth/__init__'
p724
sg52
g13
(g14
g15
NtRp725
(dp726
g18
I1
sg19
I0
sg20
I73
sg21
I0
sg22
I0
sg23
I60
sg24
I0
sbssg25
S'B_M\x9d\x87\xec\xba\x84W\x9b\xf6\x96\xf9oC\x9c'
p727
ssS'_Library_Python_2_7_site-packages_south_hacks___init__'
p728
(dp729
g37
(dp730
g8
S'_Library_Python_2_7_site-packages_south_hacks___init__.html'
p731
sg10
S'/Library/Python/2.7/site-packages/south/hacks/__init__'
p732
sg12
g13
(g14
g15
NtRp733
(dp734
g18
I1
sg19
I0
sg20
I2
sg21
I0
sg22
I0
sg23
I0
sg24
I0
sbssg43
S'\xe8V3k\xb0\xad\xbb\xda\xbeP\x9d]y\xd9\xfcT'
p735
ssS'carpoolapp_testUtils'
p736
(dp737
g37
(dp738
g8
S'carpoolapp_testUtils.html'
p739
sg10
S'carpoolapp/testUtils'
p740
sg12
g13
(g14
g15
NtRp741
(dp742
g18
I1
sg19
I0
sg20
I55
sg21
I0
sg22
I0
sg23
I0
sg24
I0
sbssg43
S'\xc2\x04YV\x8d6\x8d\xfe\x90\x87>W3z\x1c\xec'
p743
ssS'_Library_Python_2_7_site-packages_django_db_models_sql_constants'
p744
(dp745
g6
(dp746
g48
S'_Library_Python_2_7_site-packages_django_db_models_sql_constants.html'
p747
sg50
S'/Library/Python/2.7/site-packages/django/db/models/sql/constants'
p748
sg52
g13
(g14
g15
NtRp749
(dp750
g18
I1
sg19
I0
sg20
I15
sg21
I0
sg22
I0
sg23
I0
sg24
I0
sbssg25
S'_\xa8i4X\x9e\xb0\tKL\xa8\xac8"\x1a\x13'
p751
ssS'_Library_Python_2_7_site-packages_django_http_utils'
p752
(dp753
g6
(dp754
g48
S'_Library_Python_2_7_site-packages_django_http_utils.html'
p755
sg50
S'/Library/Python/2.7/site-packages/django/http/utils'
p756
sg52
g13
(g14
g15
NtRp757
(dp758
g18
I1
sg19
I0
sg20
I39
sg21
I0
sg22
I0
sg23
I35
sg24
I0
sbssg25
S"\xbb\xc3'\xa8C\x18g\x9cz\x03V\xe9i\xd4'Y"
p759
ssS'_Library_Python_2_7_site-packages_django_core_handlers_base'
p760
(dp761
g6
(dp762
g48
S'_Library_Python_2_7_site-packages_django_core_handlers_base.html'
p763
sg50
S'/Library/Python/2.7/site-packages/django/core/handlers/base'
p764
sg52
g13
(g14
g15
NtRp765
(dp766
g18
I1
sg19
I0
sg20
I151
sg21
I0
sg22
I0
sg23
I136
sg24
I0
sbssg25
S'\xdad\xee\x14\x17\x9bxc\xbc\xbd@:}Z\x18\xe1'
p767
ssS'_Library_Python_2_7_site-packages_django_utils_itercompat'
p768
(dp769
g6
(dp770
g48
S'_Library_Python_2_7_site-packages_django_utils_itercompat.html'
p771
sg50
S'/Library/Python/2.7/site-packages/django/utils/itercompat'
p772
sg52
g13
(g14
g15
NtRp773
(dp774
g18
I1
sg19
I0
sg20
I24
sg21
I0
sg22
I0
sg23
I15
sg24
I0
sbssg25
S'OXMhC\xbe8\xb9E{b\x17w\xbf\xa2~'
p775
ssS'_Library_Python_2_7_site-packages_django_template_loader'
p776
(dp777
g6
(dp778
g8
S'_Library_Python_2_7_site-packages_django_template_loader.html'
p779
sg10
S'/Library/Python/2.7/site-packages/django/template/loader'
p780
sg12
g13
(g14
g15
NtRp781
(dp782
g18
I1
sg19
I0
sg20
I104
sg21
I0
sg22
I0
sg23
I80
sg24
I0
sbssg25
S'}*y(\xae\xf9\x12\x11\xd0\xee\xad\xd5\x89\xe9\x9e\xea'
p783
ssS'_Library_Python_2_7_site-packages_django_forms___init__'
p784
(dp785
g6
(dp786
g48
S'_Library_Python_2_7_site-packages_django_forms___init__.html'
p787
sg50
S'/Library/Python/2.7/site-packages/django/forms/__init__'
p788
sg52
g13
(g14
g15
NtRp789
(dp790
g18
I1
sg19
I0
sg20
I6
sg21
I0
sg22
I0
sg23
I0
sg24
I0
sbssg25
S"\xfb\x98'\xfe<\x95\xf2Q\xfe,\xaeF\t[\xfeP"
p791
ssS'_Library_Python_2_7_site-packages_django_contrib_sessions_backends___init__'
p792
(dp793
g37
(dp794
g8
S'_Library_Python_2_7_site-packages_django_contrib_sessions_backends___init__.html'
p795
sg10
S'/Library/Python/2.7/site-packages/django/contrib/sessions/backends/__init__'
p796
sg12
g13
(g14
g15
NtRp797
(dp798
g18
I1
sg19
I0
sg20
I0
sg21
I0
sg22
I0
sg23
I0
sg24
I0
sbssg43
S'\xb0\xc8pN\xaf>\xa0\xbaz\x144\xe0A9\xb8?'
p799
ssS'_Library_Python_2_7_site-packages_south_management_commands_test'
p800
(dp801
g37
(dp802
g8
S'_Library_Python_2_7_site-packages_south_management_commands_test.html'
p803
sg10
S'/Library/Python/2.7/site-packages/south/management/commands/test'
p804
sg12
g13
(g14
g15
NtRp805
(dp806
g18
I1
sg19
I0
sg20
I6
sg21
I0
sg22
I0
sg23
I0
sg24
I0
sbssg43
S"\x98'+\xf5\x95\xb5zx\xee\xd4\x1f\xc1\xe6\xc8\xb3\xfd"
p807
ssS'_Library_Python_2_7_site-packages_psycopg2_extensions'
p808
(dp809
g6
(dp810
g48
S'_Library_Python_2_7_site-packages_psycopg2_extensions.html'
p811
sg50
S'/Library/Python/2.7/site-packages/psycopg2/extensions'
p812
sg52
g13
(g14
g15
NtRp813
(dp814
g18
I1
sg19
I0
sg20
I84
sg21
I0
sg22
I0
sg23
I22
sg24
I0
sbssg25
S'L\xf2+\x0b\x89\x9d\xf8"kV\xbc9\xa5\x8fkz'
p815
ssS'_Library_Python_2_7_site-packages_django_utils_html_parser'
p816
(dp817
g6
(dp818
g48
S'_Library_Python_2_7_site-packages_django_utils_html_parser.html'
p819
sg50
S'/Library/Python/2.7/site-packages/django/utils/html_parser'
p820
sg52
g13
(g14
g15
NtRp821
(dp822
g18
I1
sg19
I0
sg20
I79
sg21
I0
sg22
I0
sg23
I67
sg24
I0
sbssg25
S'\x97\xe2\x0cix\x9d\x1c\x1d\x822\xcb\xcf\xd5\xffO\xd4'
p823
ssS'_Library_Python_2_7_site-packages_django_core_signing'
p824
(dp825
g6
(dp826
g48
S'_Library_Python_2_7_site-packages_django_core_signing.html'
p827
sg50
S'/Library/Python/2.7/site-packages/django/core/signing'
p828
sg52
g13
(g14
g15
NtRp829
(dp830
g18
I1
sg19
I0
sg20
I92
sg21
I0
sg22
I0
sg23
I61
sg24
I0
sbssg25
S'\xb7\x1bS\x13Q\xb4\xf5k\x90\xf7hKv\xf0\xb8\x87'
p831
ssS'_Library_Python_2_7_site-packages_django_utils_translation___init__'
p832
(dp833
g6
(dp834
g8
S'_Library_Python_2_7_site-packages_django_utils_translation___init__.html'
p835
sg10
S'/Library/Python/2.7/site-packages/django/utils/translation/__init__'
p836
sg12
g13
(g14
g15
NtRp837
(dp838
g18
I1
sg19
I0
sg20
I86
sg21
I0
sg22
I0
sg23
I26
sg24
I0
sbssg25
S'\xda\xd8\xce\xd4\xc15\xcb*\xa5\xefV\\\x97\x87L\x0b'
p839
ssS'_Library_Python_2_7_site-packages_django_core_servers___init__'
p840
(dp841
g6
(dp842
g48
S'_Library_Python_2_7_site-packages_django_core_servers___init__.html'
p843
sg50
S'/Library/Python/2.7/site-packages/django/core/servers/__init__'
p844
sg52
g13
(g14
g15
NtRp845
(dp846
g18
I1
sg19
I0
sg20
I0
sg21
I0
sg22
I0
sg23
I0
sg24
I0
sbssg25
S'\xb0\xc8pN\xaf>\xa0\xbaz\x144\xe0A9\xb8?'
p847
ssS'_Library_Python_2_7_site-packages_django_contrib_admin_sites'
p848
(dp849
g37
(dp850
g8
S'_Library_Python_2_7_site-packages_django_contrib_admin_sites.html'
p851
sg10
S'/Library/Python/2.7/site-packages/django/contrib/admin/sites'
p852
sg12
g13
(g14
g15
NtRp853
(dp854
g18
I1
sg19
I0
sg20
I203
sg21
I0
sg22
I0
sg23
I146
sg24
I0
sbssg43
S'Mu\xc1\xf3\xa4\xd9D%Sd\xae\x1e\xcetA\x13'
p855
ssS'_Library_Python_2_7_site-packages_pytz_tzfile'
p856
(dp857
g6
(dp858
g8
S'_Library_Python_2_7_site-packages_pytz_tzfile.html'
p859
sg10
S'/Library/Python/2.7/site-packages/pytz/tzfile'
p860
sg12
g13
(g14
g15
NtRp861
(dp862
g18
I1
sg19
I0
sg20
I81
sg21
I0
sg22
I0
sg23
I18
sg24
I0
sbssg25
S'\xa5\xcd\\>\xec\x1f1p\x01\x0c\x86\x93\x16\x8bI\xb3'
p863
ssS'_Library_Python_2_7_site-packages_django_core_files_base'
p864
(dp865
g6
(dp866
g48
S'_Library_Python_2_7_site-packages_django_core_files_base.html'
p867
sg50
S'/Library/Python/2.7/site-packages/django/core/files/base'
p868
sg52
g13
(g14
g15
NtRp869
(dp870
g18
I1
sg19
I0
sg20
I90
sg21
I0
sg22
I0
sg23
I59
sg24
I0
sbssg25
S'w\x89\xd9X\xe9\xd8\xac\x9b\xd1\xb9\xbc\xa3\xe5\xa3\xa1x'
p871
ssS'_Library_Python_2_7_site-packages_django_core_management_commands_loaddata'
p872
(dp873
g37
(dp874
g8
S'_Library_Python_2_7_site-packages_django_core_management_commands_loaddata.html'
p875
sg10
S'/Library/Python/2.7/site-packages/django/core/management/commands/loaddata'
p876
sg12
g13
(g14
g15
NtRp877
(dp878
g18
I1
sg19
I0
sg20
I163
sg21
I0
sg22
I0
sg23
I141
sg24
I0
sbssg43
S'\xcb?\xf1\x84j\x90\x15\xefx\xfc8\x93+\xd4\x81)'
p879
ssS'_Library_Python_2_7_site-packages_django_template_smartif'
p880
(dp881
g6
(dp882
g48
S'_Library_Python_2_7_site-packages_django_template_smartif.html'
p883
sg50
S'/Library/Python/2.7/site-packages/django/template/smartif'
p884
sg52
g13
(g14
g15
NtRp885
(dp886
g18
I1
sg19
I0
sg20
I104
sg21
I0
sg22
I0
sg23
I61
sg24
I0
sbssg25
S'\xdd)I\xf1\xfb\xd4\xfe\x86hd0\x89\x8a|\xf9\x8a'
p887
ssS'_Library_Python_2_7_site-packages_django_db_models_sql_aggregates'
p888
(dp889
g6
(dp890
g48
S'_Library_Python_2_7_site-packages_django_db_models_sql_aggregates.html'
p891
sg50
S'/Library/Python/2.7/site-packages/django/db/models/sql/aggregates'
p892
sg52
g13
(g14
g15
NtRp893
(dp894
g18
I1
sg19
I0
sg20
I57
sg21
I0
sg22
I0
sg23
I27
sg24
I0
sbssg25
S'"\xd6\xd4\x0f\xa9\xc7/\xabr\x93@\x0b\x90p\xca\xdf'
p895
ssS'_Library_Python_2_7_site-packages_django_shortcuts___init__'
p896
(dp897
g37
(dp898
g8
S'_Library_Python_2_7_site-packages_django_shortcuts___init__.html'
p899
sg10
S'/Library/Python/2.7/site-packages/django/shortcuts/__init__'
p900
sg12
g13
(g14
g15
NtRp901
(dp902
g18
I1
sg19
I0
sg20
I52
sg21
I0
sg22
I0
sg23
I40
sg24
I0
sbssg43
S'\x0e\xab\xe7\xd7E\x98"9p\x14;\xae\x11@l\x7f'
p903
ssS'_Library_Python_2_7_site-packages_django_views_decorators_csrf'
p904
(dp905
g37
(dp906
g8
S'_Library_Python_2_7_site-packages_django_views_decorators_csrf.html'
p907
sg10
S'/Library/Python/2.7/site-packages/django/views/decorators/csrf'
p908
sg12
g13
(g14
g15
NtRp909
(dp910
g18
I1
sg19
I0
sg20
I34
sg21
I0
sg22
I0
sg23
I9
sg24
I0
sbssg43
S'*\xd8+Z\xa9\xf5\x97\xcf\x98o\x88\x910\xe1T\x96'
p911
ssS'_Library_Python_2_7_site-packages_pytz___init__'
p912
(dp913
g6
(dp914
S'html_filename'
p915
S'_Library_Python_2_7_site-packages_pytz___init__.html'
p916
sS'name'
p917
S'/Library/Python/2.7/site-packages/pytz/__init__'
p918
sS'nums'
p919
g13
(g14
g15
NtRp920
(dp921
g18
I1
sg19
I0
sg20
I206
sg21
I0
sg22
I0
sg23
I104
sg24
I0
sbssg25
S'0.\xfcb\xb3\x8f\xb9\xa6=\x8a\xc6\xf2:\xb1\r\xd4'
p922
ssS'_Library_Python_2_7_site-packages_django_db_models_sql_compiler'
p923
(dp924
g37
(dp925
g8
S'_Library_Python_2_7_site-packages_django_db_models_sql_compiler.html'
p926
sg10
S'/Library/Python/2.7/site-packages/django/db/models/sql/compiler'
p927
sg12
g13
(g14
g15
NtRp928
(dp929
g18
I1
sg19
I0
sg20
I653
sg21
I0
sg22
I0
sg23
I360
sg24
I0
sbssg43
S'\x7f0B\xe9\x91^\xab,%`\xed=L\\5\x94'
p930
ssS'_Library_Python_2_7_site-packages_django_core_cache_backends_base'
p931
(dp932
g6
(dp933
g48
S'_Library_Python_2_7_site-packages_django_core_cache_backends_base.html'
p934
sg50
S'/Library/Python/2.7/site-packages/django/core/cache/backends/base'
p935
sg52
g13
(g14
g15
NtRp936
(dp937
g18
I1
sg19
I0
sg20
I99
sg21
I0
sg22
I0
sg23
I54
sg24
I0
sbssg25
S'#J\xfe\x1c\xfd\x80\xd1t9\x81\xdc\x9b\xcf\xc9\xd6\xeb'
p938
ssS'_Library_Python_2_7_site-packages_django_utils_encoding'
p939
(dp940
g6
(dp941
g8
S'_Library_Python_2_7_site-packages_django_utils_encoding.html'
p942
sg10
S'/Library/Python/2.7/site-packages/django/utils/encoding'
p943
sg12
g13
(g14
g15
NtRp944
(dp945
g18
I1
sg19
I0
sg20
I82
sg21
I0
sg22
I0
sg23
I34
sg24
I0
sbssg25
S'\xe5]\x9e(\xfc\x0bk\x90\xbf\n\xc8\xb0T\x16c\xe3'
p946
ssS'_Library_Python_2_7_site-packages_django_db_backends_postgresql_psycopg2___init__'
p947
(dp948
g6
(dp949
g48
S'_Library_Python_2_7_site-packages_django_db_backends_postgresql_psycopg2___init__.html'
p950
sg50
S'/Library/Python/2.7/site-packages/django/db/backends/postgresql_psycopg2/__init__'
p951
sg52
g13
(g14
g15
NtRp952
(dp953
g18
I1
sg19
I0
sg20
I0
sg21
I0
sg22
I0
sg23
I0
sg24
I0
sbssg25
S'\xb0\xc8pN\xaf>\xa0\xbaz\x144\xe0A9\xb8?'
p954
ssS'_Library_Python_2_7_site-packages_django_template_context'
p955
(dp956
g6
(dp957
g48
S'_Library_Python_2_7_site-packages_django_template_context.html'
p958
sg50
S'/Library/Python/2.7/site-packages/django/template/context'
p959
sg52
g13
(g14
g15
NtRp960
(dp961
g18
I1
sg19
I0
sg20
I111
sg21
I0
sg22
I0
sg23
I78
sg24
I0
sbssg25
S"\x9b\xe5\x82$\xa9\x97\xdeD\x9f'6\n\xa2\xdcU\xb5"
p962
ssS'_Library_Python_2_7_site-packages_django_template_loaders_cached'
p963
(dp964
g6
(dp965
g48
S'_Library_Python_2_7_site-packages_django_template_loaders_cached.html'
p966
sg50
S'/Library/Python/2.7/site-packages/django/template/loaders/cached'
p967
sg52
g13
(g14
g15
NtRp968
(dp969
g18
I1
sg19
I0
sg20
I39
sg21
I0
sg22
I0
sg23
I29
sg24
I0
sbssg25
S'\xbd\x94\xffb;\xa88z\x13\xeezM[\x94x\xb4'
p970
ssS'_Library_Python_2_7_site-packages_django_db_utils'
p971
(dp972
g6
(dp973
g8
S'_Library_Python_2_7_site-packages_django_db_utils.html'
p974
sg10
S'/Library/Python/2.7/site-packages/django/db/utils'
p975
sg12
g13
(g14
g15
NtRp976
(dp977
g18
I1
sg19
I0
sg20
I120
sg21
I0
sg22
I0
sg23
I58
sg24
I0
sbssg25
S'Sv\xb3q\x8e\xc4p\xf3\xddK\xa8I\x86\xb1\xee\xa9'
p978
ssS'_Library_Python_2_7_site-packages_django_core_management_commands___init__'
p979
(dp980
g6
(dp981
g48
S'_Library_Python_2_7_site-packages_django_core_management_commands___init__.html'
p982
sg50
S'/Library/Python/2.7/site-packages/django/core/management/commands/__init__'
p983
sg52
g13
(g14
g15
NtRp984
(dp985
g18
I1
sg19
I0
sg20
I0
sg21
I0
sg22
I0
sg23
I0
sg24
I0
sbssg25
S'\xb0\xc8pN\xaf>\xa0\xbaz\x144\xe0A9\xb8?'
p986
ssS'_Library_Python_2_7_site-packages_django_db_models_fields_related'
p987
(dp988
g6
(dp989
g8
S'_Library_Python_2_7_site-packages_django_db_models_fields_related.html'
p990
sg10
S'/Library/Python/2.7/site-packages/django/db/models/fields/related'
p991
sg12
g13
(g14
g15
NtRp992
(dp993
g18
I1
sg19
I0
sg20
I713
sg21
I0
sg22
I0
sg23
I406
sg24
I0
sbssg25
S'\x8e0\x9alt\xa6n\x8c\xc04 \x85D\xd6n;'
p994
ssS'_Library_Python_2_7_site-packages_django_utils_numberformat'
p995
(dp996
g6
(dp997
g48
S'_Library_Python_2_7_site-packages_django_utils_numberformat.html'
p998
sg50
S'/Library/Python/2.7/site-packages/django/utils/numberformat'
p999
sg52
g13
(g14
g15
NtRp1000
(dp1001
g18
I1
sg19
I0
sg20
I31
sg21
I0
sg22
I0
sg23
I28
sg24
I0
sbssg25
S't\x93m\x81b\xf9\x03K\xc5\xb4a\xde\xfff \xd7'
p1002
ssS'_Library_Python_2_7_site-packages_django_contrib___init__'
p1003
(dp1004
g6
(dp1005
g48
S'_Library_Python_2_7_site-packages_django_contrib___init__.html'
p1006
sg50
S'/Library/Python/2.7/site-packages/django/contrib/__init__'
p1007
sg52
g13
(g14
g15
NtRp1008
(dp1009
g18
I1
sg19
I0
sg20
I0
sg21
I0
sg22
I0
sg23
I0
sg24
I0
sbssg25
S'\xb0\xc8pN\xaf>\xa0\xbaz\x144\xe0A9\xb8?'
p1010
ssS'_Library_Python_2_7_site-packages_django_contrib_admin_templatetags_admin_static'
p1011
(dp1012
g37
(dp1013
g8
S'_Library_Python_2_7_site-packages_django_contrib_admin_templatetags_admin_static.html'
p1014
sg10
S'/Library/Python/2.7/site-packages/django/contrib/admin/templatetags/admin_static'
p1015
sg12
g13
(g14
g15
NtRp1016
(dp1017
g18
I1
sg19
I0
sg20
I7
sg21
I0
sg22
I0
sg23
I1
sg24
I0
sbssg43
S'\x99{\xd7\xbc\xa3W\x085\xed$9\xd94r\xea\x15'
p1018
ssS'_Library_Python_2_7_site-packages_django_db_backends_postgresql_psycopg2_client'
p1019
(dp1020
g6
(dp1021
g48
S'_Library_Python_2_7_site-packages_django_db_backends_postgresql_psycopg2_client.html'
p1022
sg50
S'/Library/Python/2.7/site-packages/django/db/backends/postgresql_psycopg2/client'
p1023
sg52
g13
(g14
g15
NtRp1024
(dp1025
g18
I1
sg19
I0
sg20
I18
sg21
I0
sg22
I0
sg23
I12
sg24
I0
sbssg25
S'\xaa[\x13W\x00\x11m\xb4\xd2717LZ\x00M'
p1026
ssS'_Library_Python_2_7_site-packages_south_migration___init__'
p1027
(dp1028
g37
(dp1029
g8
S'_Library_Python_2_7_site-packages_south_migration___init__.html'
p1030
sg10
S'/Library/Python/2.7/site-packages/south/migration/__init__'
p1031
sg12
g13
(g14
g15
NtRp1032
(dp1033
g18
I1
sg19
I0
sg20
I152
sg21
I0
sg22
I0
sg23
I129
sg24
I0
sbssg43
S'\xd2X\xf6S\x03\xd9\x1a}\x1f\xad0X\x14FI\x99'
p1034
ssS'_Library_Python_2_7_site-packages_django_dispatch_dispatcher'
p1035
(dp1036
g6
(dp1037
g8
S'_Library_Python_2_7_site-packages_django_dispatch_dispatcher.html'
p1038
sg10
S'/Library/Python/2.7/site-packages/django/dispatch/dispatcher'
p1039
sg12
g13
(g14
g15
NtRp1040
(dp1041
g18
I1
sg19
I0
sg20
I101
sg21
I0
sg22
I0
sg23
I45
sg24
I0
sbssg25
S'S\xca\xfe\x8e\xc3Q\r\xc6K\xabIi\x11\xda\x9e#'
p1042
ssS'_Library_Python_2_7_site-packages_django_views_decorators_cache'
p1043
(dp1044
g37
(dp1045
g8
S'_Library_Python_2_7_site-packages_django_views_decorators_cache.html'
p1046
sg10
S'/Library/Python/2.7/site-packages/django/views/decorators/cache'
p1047
sg12
g13
(g14
g15
NtRp1048
(dp1049
g18
I1
sg19
I0
sg20
I40
sg21
I0
sg22
I0
sg23
I31
sg24
I0
sbssg43
S'\x02B\x80\x13a\x16\x1dq\xc1oy\xd0\x0e\x1c\x7fW'
p1050
ssS'_Library_Python_2_7_site-packages_psycopg2___init__'
p1051
(dp1052
g6
(dp1053
g8
S'_Library_Python_2_7_site-packages_psycopg2___init__.html'
p1054
sg10
S'/Library/Python/2.7/site-packages/psycopg2/__init__'
p1055
sg12
g13
(g14
g15
NtRp1056
(dp1057
g18
I1
sg19
I0
sg20
I60
sg21
I0
sg22
I0
sg23
I13
sg24
I0
sbssg25
S'\xbe\x94$\x91cq\x9a\xf0\xb56\x8e\xcaw\xc7{X'
p1058
ssS'carpoolapp_googlemaps'
p1059
(dp1060
g37
(dp1061
g8
S'carpoolapp_googlemaps.html'
p1062
sg10
S'carpoolapp/googlemaps'
p1063
sg12
g13
(g14
g15
NtRp1064
(dp1065
g18
I1
sg19
I0
sg20
I106
sg21
I0
sg22
I0
sg23
I69
sg24
I0
sbssg43
S'%\x94\x00\xfa\xf9\xbc\xc2b\xd7\xda\xb8\x15I\xdc\xbe!'
p1066
ssS'_Library_Python_2_7_site-packages_django_dispatch___init__'
p1067
(dp1068
g6
(dp1069
g48
S'_Library_Python_2_7_site-packages_django_dispatch___init__.html'
p1070
sg50
S'/Library/Python/2.7/site-packages/django/dispatch/__init__'
p1071
sg52
g13
(g14
g15
NtRp1072
(dp1073
g18
I1
sg19
I0
sg20
I1
sg21
I0
sg22
I0
sg23
I0
sg24
I0
sbssg25
S'\xe9$\xa4\xf3k\xc7$G\xbe^\x9e5~A\x94\xd1'
p1074
ssS'_Library_Python_2_7_site-packages_django_db_models_sql_datastructures'
p1075
(dp1076
g6
(dp1077
g48
S'_Library_Python_2_7_site-packages_django_db_models_sql_datastructures.html'
p1078
sg50
S'/Library/Python/2.7/site-packages/django/db/models/sql/datastructures'
p1079
sg52
g13
(g14
g15
NtRp1080
(dp1081
g18
I1
sg19
I0
sg20
I25
sg21
I0
sg22
I0
sg23
I11
sg24
I0
sbssg25
S"\xab\x99\\\xa2\x90\x03\x16\xdf\xd8p\x82'\xa1\xd3\x8ct"
p1082
ssS'_Library_Python_2_7_site-packages_django_utils_unittest___init__'
p1083
(dp1084
g6
(dp1085
g48
S'_Library_Python_2_7_site-packages_django_utils_unittest___init__.html'
p1086
sg50
S'/Library/Python/2.7/site-packages/django/utils/unittest/__init__'
p1087
sg52
g13
(g14
g15
NtRp1088
(dp1089
g18
I1
sg19
I0
sg20
I23
sg21
I0
sg22
I0
sg23
I17
sg24
I0
sbssg25
S'\xccP\x9c\xf4\x9b(\x7f#1\xb9\xe3X7\xb4\xe6B'
p1090
ssS'_Library_Python_2_7_site-packages_django_db_transaction'
p1091
(dp1092
g6
(dp1093
g8
S'_Library_Python_2_7_site-packages_django_db_transaction.html'
p1094
sg10
S'/Library/Python/2.7/site-packages/django/db/transaction'
p1095
sg12
g13
(g14
g15
NtRp1096
(dp1097
g18
I1
sg19
I0
sg20
I131
sg21
I0
sg22
I0
sg23
I70
sg24
I0
sbssg25
S'M\xc23e\xb0y\xd0\xa21\xb6M>A*u\x15'
p1098
ssS'_Library_Python_2_7_site-packages_south_signals'
p1099
(dp1100
g37
(dp1101
g8
S'_Library_Python_2_7_site-packages_south_signals.html'
p1102
sg10
S'/Library/Python/2.7/site-packages/south/signals'
p1103
sg12
g13
(g14
g15
NtRp1104
(dp1105
g18
I1
sg19
I0
sg20
I5
sg21
I0
sg22
I0
sg23
I0
sg24
I0
sbssg43
S']\x7fp!\xd57kP\xa7oZjp4\x8eu'
p1106
ssS'_Library_Python_2_7_site-packages_django_db_models_related'
p1107
(dp1108
g6
(dp1109
g8
S'_Library_Python_2_7_site-packages_django_db_models_related.html'
p1110
sg10
S'/Library/Python/2.7/site-packages/django/db/models/related'
p1111
sg12
g13
(g14
g15
NtRp1112
(dp1113
g18
I1
sg19
I0
sg20
I41
sg21
I0
sg22
I0
sg23
I17
sg24
I0
sbssg25
S'\x01\xed\xbb\xef\xa5\xbe\xb0\xfd\xe7\x006\xbd\xc1=\x9a)'
p1114
ssS'_Library_Python_2_7_site-packages_django_utils_formats'
p1115
(dp1116
g6
(dp1117
g8
S'_Library_Python_2_7_site-packages_django_utils_formats.html'
p1118
sg10
S'/Library/Python/2.7/site-packages/django/utils/formats'
p1119
sg12
g13
(g14
g15
NtRp1120
(dp1121
g18
I1
sg19
I0
sg20
I108
sg21
I0
sg22
I0
sg23
I54
sg24
I0
sbssg25
S'R\x02|\xdd[\xba\xaet\xb11\x03\xbb\xf9\x0f\x1b\xe2'
p1122
ssS'_Library_Python_2_7_site-packages_django_utils_datastructures'
p1123
(dp1124
g6
(dp1125
g8
S'_Library_Python_2_7_site-packages_django_utils_datastructures.html'
p1126
sg10
S'/Library/Python/2.7/site-packages/django/utils/datastructures'
p1127
sg12
g13
(g14
g15
NtRp1128
(dp1129
g18
I1
sg19
I0
sg20
I292
sg21
I0
sg22
I0
sg23
I159
sg24
I0
sbssg25
S'[\x14E\xb4\xb6\xa5\x99\xe8ge\x9b/\x1e<ww'
p1130
ssS'_Library_Python_2_7_site-packages_django_db_models_sql_where'
p1131
(dp1132
g6
(dp1133
g8
S'_Library_Python_2_7_site-packages_django_db_models_sql_where.html'
p1134
sg10
S'/Library/Python/2.7/site-packages/django/db/models/sql/where'
p1135
sg12
g13
(g14
g15
NtRp1136
(dp1137
g18
I1
sg19
I0
sg20
I198
sg21
I0
sg22
I0
sg23
I84
sg24
I0
sbssg25
S'E\xec\x84\xdf\xd2vAu\x19\x01g\xd7\xb1H\xf1\x8e'
p1138
ssS'_Library_Python_2_7_site-packages_django_core_cache_backends_locmem'
p1139
(dp1140
g6
(dp1141
g48
S'_Library_Python_2_7_site-packages_django_core_cache_backends_locmem.html'
p1142
sg50
S'/Library/Python/2.7/site-packages/django/core/cache/backends/locmem'
p1143
sg52
g13
(g14
g15
NtRp1144
(dp1145
g18
I1
sg19
I0
sg20
I120
sg21
I0
sg22
I0
sg23
I93
sg24
I0
sbssg25
S"*\x1f\x1f<\x8b\x1f\x18\xc9zxN\x18S\xa9'\x91"
p1146
ssS'_Library_Python_2_7_site-packages_django_db_models_fields___init__'
p1147
(dp1148
g6
(dp1149
g294
S'_Library_Python_2_7_site-packages_django_db_models_fields___init__.html'
p1150
sg296
S'/Library/Python/2.7/site-packages/django/db/models/fields/__init__'
p1151
sg298
g13
(g14
g15
NtRp1152
(dp1153
g18
I1
sg19
I0
sg20
I778
sg21
I0
sg22
I0
sg23
I372
sg24
I0
sbssg25
S'3g4\xc1/>/\xf4\x9eC\xae\x91{[qP'
p1154
ssS'_Library_Python_2_7_site-packages_django_utils_synch'
p1155
(dp1156
g6
(dp1157
g48
S'_Library_Python_2_7_site-packages_django_utils_synch.html'
p1158
sg50
S'/Library/Python/2.7/site-packages/django/utils/synch'
p1159
sg52
g13
(g14
g15
NtRp1160
(dp1161
g18
I1
sg19
I0
sg20
I60
sg21
I0
sg22
I0
sg23
I41
sg24
I0
sbssg25
S'\xda\xed\xb8;\x18\xf0IL\xc7`[\xdd\xd9\xde\xb4e'
p1162
ssS'_Library_Python_2_7_site-packages_south_db_generic'
p1163
(dp1164
g37
(dp1165
g8
S'_Library_Python_2_7_site-packages_south_db_generic.html'
p1166
sg10
S'/Library/Python/2.7/site-packages/south/db/generic'
p1167
sg12
g13
(g14
g15
NtRp1168
(dp1169
g18
I1
sg19
I0
sg20
I569
sg21
I0
sg22
I0
sg23
I438
sg24
I0
sbssg43
S".^R\xe1\xa7'p\xecP*[\xa0\xb6\xa2\xfeL"
p1170
ssS'_Library_Python_2_7_site-packages_django_forms_models'
p1171
(dp1172
g6
(dp1173
g8
S'_Library_Python_2_7_site-packages_django_forms_models.html'
p1174
sg10
S'/Library/Python/2.7/site-packages/django/forms/models'
p1175
sg12
g13
(g14
g15
NtRp1176
(dp1177
g18
I1
sg19
I0
sg20
I584
sg21
I0
sg22
I0
sg23
I432
sg24
I0
sbssg25
S'Y\x10\x19\xdb\xc87\xc9\nq\x81\xd2i\xaa\x90S\x1e'
p1178
ssS'_Library_Python_2_7_site-packages_django_contrib_sessions___init__'
p1179
(dp1180
g37
(dp1181
g8
S'_Library_Python_2_7_site-packages_django_contrib_sessions___init__.html'
p1182
sg10
S'/Library/Python/2.7/site-packages/django/contrib/sessions/__init__'
p1183
sg12
g13
(g14
g15
NtRp1184
(dp1185
g18
I1
sg19
I0
sg20
I0
sg21
I0
sg22
I0
sg23
I0
sg24
I0
sbssg43
S'\xb0\xc8pN\xaf>\xa0\xbaz\x144\xe0A9\xb8?'
p1186
ssS'manage'
p1187
(dp1188
g6
(dp1189
g48
S'manage.html'
p1190
sg50
g1187
sg52
g13
(g14
g15
NtRp1191
(dp1192
g18
I1
sg19
I0
sg20
I6
sg21
I0
sg22
I0
sg23
I0
sg24
I0
sbssg25
S'\x80\x94\xf5\xd5\x11\x194\xbd$\xa6%\xe1e\x0c\x17\x15'
p1193
ssS'_Library_Python_2_7_site-packages_django_test_utils'
p1194
(dp1195
g6
(dp1196
g8
S'_Library_Python_2_7_site-packages_django_test_utils.html'
p1197
sg10
S'/Library/Python/2.7/site-packages/django/test/utils'
p1198
sg12
g13
(g14
g15
NtRp1199
(dp1200
g18
I1
sg19
I0
sg20
I121
sg21
I0
sg22
I0
sg23
I69
sg24
I0
sbssg25
S'H\xee\x01\x07}\xa41T\xf8t\xe0\r\x00\xba{\xad'
p1201
ssS'_Library_Python_2_7_site-packages_django_utils_safestring'
p1202
(dp1203
g6
(dp1204
g8
S'_Library_Python_2_7_site-packages_django_utils_safestring.html'
p1205
sg10
S'/Library/Python/2.7/site-packages/django/utils/safestring'
p1206
sg12
g13
(g14
g15
NtRp1207
(dp1208
g18
I1
sg19
I0
sg20
I57
sg21
I0
sg22
I0
sg23
I31
sg24
I0
sbssg25
S'\xd5\x8c/m\x01p\xe3\x00b\xa4\xcf\xe1\xbe\x0c\xa2a'
p1209
ssS'_Library_Python_2_7_site-packages_django_db_models_loading'
p1210
(dp1211
g6
(dp1212
g8
S'_Library_Python_2_7_site-packages_django_db_models_loading.html'
p1213
sg10
S'/Library/Python/2.7/site-packages/django/db/models/loading'
p1214
sg12
g13
(g14
g15
NtRp1215
(dp1216
g18
I1
sg19
I0
sg20
I119
sg21
I0
sg22
I0
sg23
I21
sg24
I0
sbssg25
S"\xf9\xacF\xab\x13j\xfe'|\xc6\x90\xea\x97]q\xb3"
p1217
ssS'_Library_Python_2_7_site-packages_django_conf_global_settings'
p1218
(dp1219
g6
(dp1220
g48
S'_Library_Python_2_7_site-packages_django_conf_global_settings.html'
p1221
sg50
S'/Library/Python/2.7/site-packages/django/conf/global_settings'
p1222
sg52
g13
(g14
g15
NtRp1223
(dp1224
g18
I1
sg19
I0
sg20
I118
sg21
I0
sg22
I0
sg23
I0
sg24
I0
sbssg25
S'\xba\x06~\xde\x10?\xd3q\xeb#i&\x19H\xe2l'
p1225
ssS'_Library_Python_2_7_site-packages_django_contrib_messages___init__'
p1226
(dp1227
g37
(dp1228
g8
S'_Library_Python_2_7_site-packages_django_contrib_messages___init__.html'
p1229
sg10
S'/Library/Python/2.7/site-packages/django/contrib/messages/__init__'
p1230
sg12
g13
(g14
g15
NtRp1231
(dp1232
g18
I1
sg19
I0
sg20
I3
sg21
I0
sg22
I0
sg23
I0
sg24
I0
sbssg43
S'\x01~\xb7\xc9ZD\xe5N\xc3\x01\xc2\x94u\x0b`\x9e'
p1233
ssS'_Library_Python_2_7_site-packages_django_contrib_sessions_backends_base'
p1234
(dp1235
g37
(dp1236
g8
S'_Library_Python_2_7_site-packages_django_contrib_sessions_backends_base.html'
p1237
sg10
S'/Library/Python/2.7/site-packages/django/contrib/sessions/backends/base'
p1238
sg12
g13
(g14
g15
NtRp1239
(dp1240
g18
I1
sg19
I0
sg20
I160
sg21
I0
sg22
I0
sg23
I104
sg24
I0
sbssg43
S'r\x1ed\xed\xe2u\x92g\xd3}\xf3\x7f\xae:AK'
p1241
ssS'_Library_Python_2_7_site-packages_django_core_management_color'
p1242
(dp1243
g6
(dp1244
g8
S'_Library_Python_2_7_site-packages_django_core_management_color.html'
p1245
sg10
S'/Library/Python/2.7/site-packages/django/core/management/color'
p1246
sg12
g13
(g14
g15
NtRp1247
(dp1248
g18
I1
sg19
I0
sg20
I28
sg21
I0
sg22
I0
sg23
I3
sg24
I0
sbssg25
S'\x1f\x18m\xdf\x9b&\x90\xbe\xf5\x15C\x10\x8e\x16\xcd\xc4'
p1249
ssS'_Library_Python_2_7_site-packages_django_core_serializers_python'
p1250
(dp1251
g37
(dp1252
g8
S'_Library_Python_2_7_site-packages_django_core_serializers_python.html'
p1253
sg10
S'/Library/Python/2.7/site-packages/django/core/serializers/python'
p1254
sg12
g13
(g14
g15
NtRp1255
(dp1256
g18
I1
sg19
I0
sg20
I78
sg21
I0
sg22
I0
sg23
I62
sg24
I0
sbssg43
S'\xe1\xe7\x12\xa2\xca\xdc\xf5\xa3DW\x8f\x1b\x816H\xe3'
p1257
ssS'_Library_Python_2_7_site-packages_dj_database_url'
p1258
(dp1259
g6
(dp1260
g48
S'_Library_Python_2_7_site-packages_dj_database_url.html'
p1261
sg50
S'/Library/Python/2.7/site-packages/dj_database_url'
p1262
sg52
g13
(g14
g15
NtRp1263
(dp1264
g18
I1
sg19
I0
sg20
I28
sg21
I0
sg22
I0
sg23
I15
sg24
I0
sbssg25
S'\xdd\xd7\xce\xa7\xb2\x1b\xe3zmb\xa2(\x13x\xc9\xba'
p1265
ssS'_Library_Python_2_7_site-packages_django_contrib_messages_api'
p1266
(dp1267
g37
(dp1268
g8
S'_Library_Python_2_7_site-packages_django_contrib_messages_api.html'
p1269
sg10
S'/Library/Python/2.7/site-packages/django/contrib/messages/api'
p1270
sg12
g13
(g14
g15
NtRp1271
(dp1272
g18
I1
sg19
I0
sg20
I34
sg21
I0
sg22
I0
sg23
I20
sg24
I0
sbssg43
S'i\xb5\x8fk2\x89\xf2JF0\xfa\xd1z\x05\xaf\xe5'
p1273
ssS'_Library_Python_2_7_site-packages_django_utils_dateparse'
p1274
(dp1275
g6
(dp1276
g48
S'_Library_Python_2_7_site-packages_django_utils_dateparse.html'
p1277
sg50
S'/Library/Python/2.7/site-packages/django/utils/dateparse'
p1278
sg52
g13
(g14
g15
NtRp1279
(dp1280
g18
I1
sg19
I0
sg20
I37
sg21
I0
sg22
I0
sg23
I27
sg24
I0
sbssg25
S'\xf9]\xb0\xe3\xc6\x83\xc7\xfa\x95\x83<<\x8e0\xa2\x11'
p1281
ssS'_Library_Python_2_7_site-packages_south_management___init__'
p1282
(dp1283
g37
(dp1284
g8
S'_Library_Python_2_7_site-packages_south_management___init__.html'
p1285
sg10
S'/Library/Python/2.7/site-packages/south/management/__init__'
p1286
sg12
g13
(g14
g15
NtRp1287
(dp1288
g18
I1
sg19
I0
sg20
I0
sg21
I0
sg22
I0
sg23
I0
sg24
I0
sbssg43
S'\xb0\xc8pN\xaf>\xa0\xbaz\x144\xe0A9\xb8?'
p1289
ssS'_Library_Python_2_7_site-packages_django_views___init__'
p1290
(dp1291
g6
(dp1292
g48
S'_Library_Python_2_7_site-packages_django_views___init__.html'
p1293
sg50
S'/Library/Python/2.7/site-packages/django/views/__init__'
p1294
sg52
g13
(g14
g15
NtRp1295
(dp1296
g18
I1
sg19
I0
sg20
I0
sg21
I0
sg22
I0
sg23
I0
sg24
I0
sbssg25
S'\xb0\xc8pN\xaf>\xa0\xbaz\x144\xe0A9\xb8?'
p1297
ssS'_Library_Python_2_7_site-packages_django_utils_ipv6'
p1298
(dp1299
g6
(dp1300
g48
S'_Library_Python_2_7_site-packages_django_utils_ipv6.html'
p1301
sg50
S'/Library/Python/2.7/site-packages/django/utils/ipv6'
p1302
sg52
g13
(g14
g15
NtRp1303
(dp1304
g18
I1
sg19
I0
sg20
I107
sg21
I0
sg22
I0
sg23
I100
sg24
I0
sbssg25
S'J^YM\xe4\x01\xa3\xee\xad\x9chj"c\x15~'
p1305
ssS'_Library_Python_2_7_site-packages_django_contrib_sessions_backends_db'
p1306
(dp1307
g37
(dp1308
g8
S'_Library_Python_2_7_site-packages_django_contrib_sessions_backends_db.html'
p1309
sg10
S'/Library/Python/2.7/site-packages/django/contrib/sessions/backends/db'
p1310
sg12
g13
(g14
g15
NtRp1311
(dp1312
g18
I1
sg19
I0
sg20
I48
sg21
I0
sg22
I0
sg23
I35
sg24
I0
sbssg43
S'\xa8\xfcSLV\x1eW\x07\x8e\x07\xe0H\xb4\xfd\xb2\xaa'
p1313
ssS'_Library_Python_2_7_site-packages_django_db_models_fields_subclassing'
p1314
(dp1315
g6
(dp1316
g48
S'_Library_Python_2_7_site-packages_django_db_models_fields_subclassing.html'
p1317
sg50
S'/Library/Python/2.7/site-packages/django/db/models/fields/subclassing'
p1318
sg52
g13
(g14
g15
NtRp1319
(dp1320
g18
I1
sg19
I0
sg20
I21
sg21
I0
sg22
I0
sg23
I14
sg24
I0
sbssg25
S'\x94\xfa\xe1\x9f\xf6\xcb\xa6\xb1N\xc5v\xa4\xcb\x9e\xd0n'
p1321
ssS'_Library_Python_2_7_site-packages_django_core_management_commands_test'
p1322
(dp1323
g6
(dp1324
g139
S'_Library_Python_2_7_site-packages_django_core_management_commands_test.html'
p1325
sg141
S'/Library/Python/2.7/site-packages/django/core/management/commands/test'
p1326
sg143
g13
(g14
g15
NtRp1327
(dp1328
g18
I1
sg19
I0
sg20
I37
sg21
I0
sg22
I0
sg23
I5
sg24
I0
sbssg25
S'\xbf\x7f\xf75F!\xdb\xb2\xb5\xf1V\xa5a\xd1\x86\x8f'
p1329
ssS'_Library_Python_2_7_site-packages_django_views_decorators___init__'
p1330
(dp1331
g37
(dp1332
g8
S'_Library_Python_2_7_site-packages_django_views_decorators___init__.html'
p1333
sg10
S'/Library/Python/2.7/site-packages/django/views/decorators/__init__'
p1334
sg12
g13
(g14
g15
NtRp1335
(dp1336
g18
I1
sg19
I0
sg20
I0
sg21
I0
sg22
I0
sg23
I0
sg24
I0
sbssg43
S'\xb0\xc8pN\xaf>\xa0\xbaz\x144\xe0A9\xb8?'
p1337
ssS'_Library_Python_2_7_site-packages_django_contrib_staticfiles_templatetags_staticfiles'
p1338
(dp1339
g37
(dp1340
g8
S'_Library_Python_2_7_site-packages_django_contrib_staticfiles_templatetags_staticfiles.html'
p1341
sg10
S'/Library/Python/2.7/site-packages/django/contrib/staticfiles/templatetags/staticfiles'
p1342
sg12
g13
(g14
g15
NtRp1343
(dp1344
g18
I1
sg19
I0
sg20
I5
sg21
I0
sg22
I0
sg23
I1
sg24
I0
sbssg43
S'\x83Er\x85\xa40\xc8\x00]b\x13\xde%\xb7\xc7\xc2'
p1345
ssS'_Library_Python_2_7_site-packages_django_utils_dateformat'
p1346
(dp1347
g6
(dp1348
g48
S'_Library_Python_2_7_site-packages_django_utils_dateformat.html'
p1349
sg50
S'/Library/Python/2.7/site-packages/django/utils/dateformat'
p1350
sg52
g13
(g14
g15
NtRp1351
(dp1352
g18
I1
sg19
I0
sg20
I179
sg21
I0
sg22
I0
sg23
I119
sg24
I0
sbssg25
S'\xdc\xcf>\x08@dl\xf9\xb7\x16\x8bmQ\x05\x80?'
p1353
ssS'_Library_Python_2_7_site-packages_django_contrib_staticfiles_utils'
p1354
(dp1355
g6
(dp1356
g48
S'_Library_Python_2_7_site-packages_django_contrib_staticfiles_utils.html'
p1357
sg50
S'/Library/Python/2.7/site-packages/django/contrib/staticfiles/utils'
p1358
sg52
g13
(g14
g15
NtRp1359
(dp1360
g18
I1
sg19
I0
sg20
I37
sg21
I0
sg22
I0
sg23
I30
sg24
I0
sbssg25
S'Q\x99\xe3\x98\xf4\xbc\tTg\xbc\xed\xbd\\\xf9Q\xdd'
p1361
ssS'_Library_Python_2_7_site-packages_django_contrib_staticfiles_storage'
p1362
(dp1363
g6
(dp1364
g48
S'_Library_Python_2_7_site-packages_django_contrib_staticfiles_storage.html'
p1365
sg50
S'/Library/Python/2.7/site-packages/django/contrib/staticfiles/storage'
p1366
sg52
g13
(g14
g15
NtRp1367
(dp1368
g18
I1
sg19
I0
sg20
I160
sg21
I0
sg22
I0
sg23
I123
sg24
I0
sbssg25
S'\xaa\r\x86\xab~\xed\x19m\xcd\x7f\xc7\xc9\xd2up\x99'
p1369
ssS'_Library_Python_2_7_site-packages_django_db_models_signals'
p1370
(dp1371
g6
(dp1372
g48
S'_Library_Python_2_7_site-packages_django_db_models_signals.html'
p1373
sg50
S'/Library/Python/2.7/site-packages/django/db/models/signals'
p1374
sg52
g13
(g14
g15
NtRp1375
(dp1376
g18
I1
sg19
I0
sg20
I10
sg21
I0
sg22
I0
sg23
I0
sg24
I0
sbssg25
S'\xe2\x06\xfb\xdd\xac\xd4\xb2\xf8\\\x98T_\xb1W-\x19'
p1377
ssS'carpool_settings'
p1378
(dp1379
g6
(dp1380
g8
S'carpool_settings.html'
p1381
sg10
S'carpool/settings'
p1382
sg12
g13
(g14
g15
NtRp1383
(dp1384
g18
I1
sg19
I0
sg20
I33
sg21
I0
sg22
I0
sg23
I0
sg24
I0
sbssg25
S'f\xe9\xd1OsQ\xecz4\x11\xc4\x89\x9e\xbd\x8f\xca'
p1385
ssS'_Library_Python_2_7_site-packages_django_db_models_fields_files'
p1386
(dp1387
g6
(dp1388
g48
S'_Library_Python_2_7_site-packages_django_db_models_fields_files.html'
p1389
sg50
S'/Library/Python/2.7/site-packages/django/db/models/fields/files'
p1390
sg52
g13
(g14
g15
NtRp1391
(dp1392
g18
I1
sg19
I0
sg20
I203
sg21
I0
sg22
I0
sg23
I136
sg24
I0
sbssg25
S'\xf4\xb4\x1e?\xfe\x16\xa2[\xe6\x86\xd1\x06\xc4\xd8\x1cn'
p1393
ssS'_Library_Python_2_7_site-packages_django_http___init__'
p1394
(dp1395
g6
(dp1396
g8
S'_Library_Python_2_7_site-packages_django_http___init__.html'
p1397
sg10
S'/Library/Python/2.7/site-packages/django/http/__init__'
p1398
sg12
g13
(g14
g15
NtRp1399
(dp1400
g18
I1
sg19
I0
sg20
I496
sg21
I0
sg22
I0
sg23
I316
sg24
I0
sbssg25
S'\xfe\x98v\xc5\xc6C\xa0:a\xcc\xd2oF\xbcy\x9a'
p1401
ssS'_Library_Python_2_7_site-packages_django_contrib_staticfiles_finders'
p1402
(dp1403
g6
(dp1404
g48
S'_Library_Python_2_7_site-packages_django_contrib_staticfiles_finders.html'
p1405
sg50
S'/Library/Python/2.7/site-packages/django/contrib/staticfiles/finders'
p1406
sg52
g13
(g14
g15
NtRp1407
(dp1408
g18
I1
sg19
I0
sg20
I158
sg21
I0
sg22
I0
sg23
I121
sg24
I0
sbssg25
S'\xa8\nv\xabZ\xf0a.\xaf\x0b\xa78\xba\n\xa2\x9b'
p1409
ssS'carpoolapp_tests'
p1410
(dp1411
g37
(dp1412
g294
S'carpoolapp_tests.html'
p1413
sg296
S'carpoolapp/tests'
p1414
sg298
g13
(g14
g15
NtRp1415
(dp1416
g18
I1
sg19
I0
sg20
I223
sg21
I0
sg22
I0
sg23
I141
sg24
I0
sbssg43
S'\xcb\xb1z\x96\x99#1)\xa3\xf4\x0b.\x18M\xe1\xed'
p1417
ssS'_Library_Python_2_7_site-packages_south_db_postgresql_psycopg2'
p1418
(dp1419
g37
(dp1420
g8
S'_Library_Python_2_7_site-packages_south_db_postgresql_psycopg2.html'
p1421
sg10
S'/Library/Python/2.7/site-packages/south/db/postgresql_psycopg2'
p1422
sg12
g13
(g14
g15
NtRp1423
(dp1424
g18
I1
sg19
I0
sg20
I44
sg21
I0
sg22
I0
sg23
I31
sg24
I0
sbssg43
S'<e\x82\xd9\xff\xa2\xf6\xe9R\x98N9\x06\xecF\xe4'
p1425
ssS'_Library_Python_2_7_site-packages_django_core_validators'
p1426
(dp1427
g6
(dp1428
g8
S'_Library_Python_2_7_site-packages_django_core_validators.html'
p1429
sg10
S'/Library/Python/2.7/site-packages/django/core/validators'
p1430
sg12
g13
(g14
g15
NtRp1431
(dp1432
g18
I1
sg19
I0
sg20
I157
sg21
I0
sg22
I0
sg23
I86
sg24
I0
sbssg25
S'\xf3\xf8\xd1\x02\x01\xf0\x8a\xe3D\x8a?hk\x87s\x83'
p1433
ssS'_Library_Python_2_7_site-packages_django_contrib_auth_signals'
p1434
(dp1435
g6
(dp1436
g48
S'_Library_Python_2_7_site-packages_django_contrib_auth_signals.html'
p1437
sg50
S'/Library/Python/2.7/site-packages/django/contrib/auth/signals'
p1438
sg52
g13
(g14
g15
NtRp1439
(dp1440
g18
I1
sg19
I0
sg20
I3
sg21
I0
sg22
I0
sg23
I0
sg24
I0
sbssg25
S'\x13\x17\x85\x98\x81\r`\x1b~4\x04;\x16\x9b%L'
p1441
ssS'_Library_Python_2_7_site-packages_django_test_html'
p1442
(dp1443
g6
(dp1444
g48
S'_Library_Python_2_7_site-packages_django_test_html.html'
p1445
sg50
S'/Library/Python/2.7/site-packages/django/test/html'
p1446
sg52
g13
(g14
g15
NtRp1447
(dp1448
g18
I1
sg19
I0
sg20
I160
sg21
I0
sg22
I0
sg23
I126
sg24
I0
sbssg25
S'\x94\x99a\xaf\xa6\x83\xd3\xab\xe4\xc2h`$\xab\xde\xbb'
p1449
ssS'_Library_Python_2_7_site-packages_django_forms_forms'
p1450
(dp1451
g6
(dp1452
g48
S'_Library_Python_2_7_site-packages_django_forms_forms.html'
p1453
sg50
S'/Library/Python/2.7/site-packages/django/forms/forms'
p1454
sg52
g13
(g14
g15
NtRp1455
(dp1456
g18
I1
sg19
I0
sg20
I280
sg21
I0
sg22
I0
sg23
I196
sg24
I0
sbssg25
S'\x140\xadHhu71\x9e$\xd4\x11\xc0e\tC'
p1457
ssS'_Library_Python_2_7_site-packages_django_core_management_base'
p1458
(dp1459
g6
(dp1460
g139
S'_Library_Python_2_7_site-packages_django_core_management_base.html'
p1461
sg141
S'/Library/Python/2.7/site-packages/django/core/management/base'
p1462
sg143
g13
(g14
g15
NtRp1463
(dp1464
g18
I1
sg19
I0
sg20
I133
sg21
I0
sg22
I0
sg23
I56
sg24
I0
sbssg25
S'\x8e\x15\x17\xb7\xc1\xd2\xd1M\x17\xb0\\6\xb0o\xc7t'
p1465
ssS'_Library_Python_2_7_site-packages_django_contrib_messages_models'
p1466
(dp1467
g37
(dp1468
g8
S'_Library_Python_2_7_site-packages_django_contrib_messages_models.html'
p1469
sg10
S'/Library/Python/2.7/site-packages/django/contrib/messages/models'
p1470
sg12
g13
(g14
g15
NtRp1471
(dp1472
g18
I1
sg19
I0
sg20
I0
sg21
I0
sg22
I0
sg23
I0
sg24
I0
sbssg43
S'}\xf8)\x98N\x1e\xef\xd8Ky\x9f\x03d\x14L\xac'
p1473
ssS'_Library_Python_2_7_site-packages_django_core_files_storage'
p1474
(dp1475
g6
(dp1476
g48
S'_Library_Python_2_7_site-packages_django_core_files_storage.html'
p1477
sg50
S'/Library/Python/2.7/site-packages/django/core/files/storage'
p1478
sg52
g13
(g14
g15
NtRp1479
(dp1480
g18
I1
sg19
I0
sg20
I150
sg21
I0
sg22
I0
sg23
I104
sg24
I0
sbssg25
S'G\xe6\x06\xdc\xdb#\xe2EAMn~]\x1d\xe8\xb8'
p1481
ssS'_Library_Python_2_7_site-packages_django_db_models___init__'
p1482
(dp1483
g6
(dp1484
g48
S'_Library_Python_2_7_site-packages_django_db_models___init__.html'
p1485
sg50
S'/Library/Python/2.7/site-packages/django/db/models/__init__'
p1486
sg52
g13
(g14
g15
NtRp1487
(dp1488
g18
I1
sg19
I0
sg20
I23
sg21
I0
sg22
I0
sg23
I5
sg24
I0
sbssg25
S'B\xac\xe1\xdaQ\x957k\x0e\xba`\x9f\xd0\xa2\xd87'
p1489
ssS'_Library_Python_2_7_site-packages_django_forms_fields'
p1490
(dp1491
g6
(dp1492
g8
S'_Library_Python_2_7_site-packages_django_forms_fields.html'
p1493
sg10
S'/Library/Python/2.7/site-packages/django/forms/fields'
p1494
sg12
g13
(g14
g15
NtRp1495
(dp1496
g18
I1
sg19
I0
sg20
I585
sg21
I0
sg22
I0
sg23
I381
sg24
I0
sbssg25
S'^\xd0-\x02o\xb8\x1d\xa2n;<\x87\x1c"V\xb5'
p1497
ssS'_Library_Python_2_7_site-packages_django_core_serializers_base'
p1498
(dp1499
g37
(dp1500
g8
S'_Library_Python_2_7_site-packages_django_core_serializers_base.html'
p1501
sg10
S'/Library/Python/2.7/site-packages/django/core/serializers/base'
p1502
sg12
g13
(g14
g15
NtRp1503
(dp1504
g18
I1
sg19
I0
sg20
I74
sg21
I0
sg22
I0
sg23
I46
sg24
I0
sbssg43
S'\xfca\xe3x\xd1\xc5\x90\x8b\xcd\x06T\x1frS\xb1P'
p1505
ssS'_Library_Python_2_7_site-packages_django_utils__os'
p1506
(dp1507
g6
(dp1508
g48
S'_Library_Python_2_7_site-packages_django_utils__os.html'
p1509
sg50
S'/Library/Python/2.7/site-packages/django/utils/_os'
p1510
sg52
g13
(g14
g15
NtRp1511
(dp1512
g18
I1
sg19
I0
sg20
I32
sg21
I0
sg22
I0
sg23
I19
sg24
I0
sbssg25
S'\x00\x87*\xe1Z\xd9w\xa9\xefK\xab/\xb8P4\xe7'
p1513
ssS'_Library_Python_2_7_site-packages_django_core_management_commands_syncdb'
p1514
(dp1515
g37
(dp1516
g8
S'_Library_Python_2_7_site-packages_django_core_management_commands_syncdb.html'
p1517
sg10
S'/Library/Python/2.7/site-packages/django/core/management/commands/syncdb'
p1518
sg12
g13
(g14
g15
NtRp1519
(dp1520
g18
I1
sg19
I0
sg20
I100
sg21
I0
sg22
I0
sg23
I25
sg24
I0
sbssg43
S'\x8b.\xe7\xcb\xf35\xd5\xb0\xef/\xd5w\xc3\xf4I\xe9'
p1521
ssS'_Library_Python_2_7_site-packages_django_utils_crypto'
p1522
(dp1523
g6
(dp1524
g48
S'_Library_Python_2_7_site-packages_django_utils_crypto.html'
p1525
sg50
S'/Library/Python/2.7/site-packages/django/utils/crypto'
p1526
sg52
g13
(g14
g15
NtRp1527
(dp1528
g18
I1
sg19
I0
sg20
I68
sg21
I0
sg22
I0
sg23
I48
sg24
I0
sbssg25
S'\xa3\xc5}l\x04ww\x01\xe1\xf0$\xbc\x1dW\xe7\x06'
p1529
ssS'_Library_Python_2_7_site-packages_django_core_files_images'
p1530
(dp1531
g6
(dp1532
g48
S'_Library_Python_2_7_site-packages_django_core_files_images.html'
p1533
sg50
S'/Library/Python/2.7/site-packages/django/core/files/images'
p1534
sg52
g13
(g14
g15
NtRp1535
(dp1536
g18
I1
sg19
I0
sg20
I40
sg21
I0
sg22
I0
sg23
I32
sg24
I0
sbssg25
S'\xcf\x19\xca\xed\xd0\x9f\xdd\x00\xc0\xb9\xceq\xff\xa6JJ'
p1537
ssS'_Library_Python_2_7_site-packages_django_core_files___init__'
p1538
(dp1539
g6
(dp1540
g48
S'_Library_Python_2_7_site-packages_django_core_files___init__.html'
p1541
sg50
S'/Library/Python/2.7/site-packages/django/core/files/__init__'
p1542
sg52
g13
(g14
g15
NtRp1543
(dp1544
g18
I1
sg19
I0
sg20
I1
sg21
I0
sg22
I0
sg23
I0
sg24
I0
sbssg25
S"\xa1\xbfiA'\x85B\x1e\xd8\xe0\x91\xe3\xf7\x86\x81\xb2"
p1545
ssS'_Library_Python_2_7_site-packages_django_db_models_base'
p1546
(dp1547
g6
(dp1548
g8
S'_Library_Python_2_7_site-packages_django_db_models_base.html'
p1549
sg10
S'/Library/Python/2.7/site-packages/django/db/models/base'
p1550
sg12
g13
(g14
g15
NtRp1551
(dp1552
g18
I1
sg19
I0
sg20
I501
sg21
I0
sg22
I0
sg23
I292
sg24
I0
sbssg25
S')\x1b8}\x0f\xcbg\n3Y\x12jb\x9a\xb2\xb0'
p1553
ssS'_Library_Python_2_7_site-packages_django_core_files_uploadedfile'
p1554
(dp1555
g6
(dp1556
g48
S'_Library_Python_2_7_site-packages_django_core_files_uploadedfile.html'
p1557
sg50
S'/Library/Python/2.7/site-packages/django/core/files/uploadedfile'
p1558
sg52
g13
(g14
g15
NtRp1559
(dp1560
g18
I1
sg19
I0
sg20
I63
sg21
I0
sg22
I0
sg23
I34
sg24
I0
sbssg25
S'yv\x0b\xbdw\xa4\xc6\xdf\xafC\xedY\xae\xd2\xc2\xda'
p1561
ssS'_Library_Python_2_7_site-packages_validate_email'
p1562
(dp1563
g37
(dp1564
g8
S'_Library_Python_2_7_site-packages_validate_email.html'
p1565
sg10
S'/Library/Python/2.7/site-packages/validate_email'
p1566
sg12
g13
(g14
g15
NtRp1567
(dp1568
g18
I1
sg19
I0
sg20
I59
sg21
I0
sg22
I0
sg23
I20
sg24
I0
sbssg43
S"A\xf01\x95PU\x06O\xe7\x85\x05\xbe'\x15h\x87"
p1569
ssS'_Library_Python_2_7_site-packages_django_conf_locale_en_formats'
p1570
(dp1571
g37
(dp1572
g8
S'_Library_Python_2_7_site-packages_django_conf_locale_en_formats.html'
p1573
sg10
S'/Library/Python/2.7/site-packages/django/conf/locale/en/formats'
p1574
sg12
g13
(g14
g15
NtRp1575
(dp1576
g18
I1
sg19
I0
sg20
I14
sg21
I0
sg22
I0
sg23
I0
sg24
I0
sbssg43
S"\x93\xc2\xcc\x9d\xd2\x99\xd1G=\xce'\xb0K\x93#R"
p1577
ssS'_Library_Python_2_7_site-packages_django_contrib_admin_options'
p1578
(dp1579
g37
(dp1580
g8
S'_Library_Python_2_7_site-packages_django_contrib_admin_options.html'
p1581
sg10
S'/Library/Python/2.7/site-packages/django/contrib/admin/options'
p1582
sg12
g13
(g14
g15
NtRp1583
(dp1584
g18
I1
sg19
I0
sg20
I735
sg21
I0
sg22
I0
sg23
I575
sg24
I0
sbssg43
S'\xc8\x08r%t\xb5\x9d}<\x1eQ\x8ezF\\\x9c'
p1585
ssS'_Library_Python_2_7_site-packages_django_test___init__'
p1586
(dp1587
g6
(dp1588
g48
S'_Library_Python_2_7_site-packages_django_test___init__.html'
p1589
sg50
S'/Library/Python/2.7/site-packages/django/test/__init__'
p1590
sg52
g13
(g14
g15
NtRp1591
(dp1592
g18
I1
sg19
I0
sg20
I3
sg21
I0
sg22
I0
sg23
I0
sg24
I0
sbssg25
S'~\xbeB^\xffy\x92\x8f\x9e\xd7\xdc\xd8\xa1\xe5\xe0\x03'
p1593
ssS'_Library_Python_2_7_site-packages_django_contrib_staticfiles_management___init__'
p1594
(dp1595
g37
(dp1596
g8
S'_Library_Python_2_7_site-packages_django_contrib_staticfiles_management___init__.html'
p1597
sg10
S'/Library/Python/2.7/site-packages/django/contrib/staticfiles/management/__init__'
p1598
sg12
g13
(g14
g15
NtRp1599
(dp1600
g18
I1
sg19
I0
sg20
I0
sg21
I0
sg22
I0
sg23
I0
sg24
I0
sbssg43
S'\xb0\xc8pN\xaf>\xa0\xbaz\x144\xe0A9\xb8?'
p1601
ssS'_Library_Python_2_7_site-packages_django_test_signals'
p1602
(dp1603
g6
(dp1604
g48
S'_Library_Python_2_7_site-packages_django_test_signals.html'
p1605
sg50
S'/Library/Python/2.7/site-packages/django/test/signals'
p1606
sg52
g13
(g14
g15
NtRp1607
(dp1608
g18
I1
sg19
I0
sg20
I17
sg21
I0
sg22
I0
sg23
I10
sg24
I0
sbssg25
S'6\xfb\xb9q?8\xcb\x90\x15G}\x9b\x9b\x8d\x82\x9d'
p1609
ssS'_Library_Python_2_7_site-packages_django_core_handlers_wsgi'
p1610
(dp1611
g6
(dp1612
g48
S'_Library_Python_2_7_site-packages_django_core_handlers_wsgi.html'
p1613
sg50
S'/Library/Python/2.7/site-packages/django/core/handlers/wsgi'
p1614
sg52
g13
(g14
g15
NtRp1615
(dp1616
g18
I1
sg19
I0
sg20
I142
sg21
I0
sg22
I0
sg23
I103
sg24
I0
sbssg25
S'\xa83\xcc]\xf1\xe5\xea,\xf9m+\xb2l\x89&V'
p1617
ssS'_Library_Python_2_7_site-packages_django_core_wsgi'
p1618
(dp1619
g6
(dp1620
g48
S'_Library_Python_2_7_site-packages_django_core_wsgi.html'
p1621
sg50
S'/Library/Python/2.7/site-packages/django/core/wsgi'
p1622
sg52
g13
(g14
g15
NtRp1623
(dp1624
g18
I1
sg19
I0
sg20
I3
sg21
I0
sg22
I0
sg23
I1
sg24
I0
sbssg25
S' \x0e\x1b\xd1D\xd0\x13<c\x84?v\xdf\xd1\xf8\x84'
p1625
ssS'_Library_Python_2_7_site-packages_django_test_testcases'
p1626
(dp1627
g6
(dp1628
g48
S'_Library_Python_2_7_site-packages_django_test_testcases.html'
p1629
sg50
S'/Library/Python/2.7/site-packages/django/test/testcases'
p1630
sg52
g13
(g14
g15
NtRp1631
(dp1632
g18
I1
sg19
I0
sg20
I583
sg21
I0
sg22
I0
sg23
I456
sg24
I0
sbssg25
S'\xe0\xb8]0>\xf2\x13@\xaf\xc3\xf4.vl[\xd3'
p1633
ssS'_Library_Python_2_7_site-packages_django_contrib_staticfiles___init__'
p1634
(dp1635
g6
(dp1636
g48
S'_Library_Python_2_7_site-packages_django_contrib_staticfiles___init__.html'
p1637
sg50
S'/Library/Python/2.7/site-packages/django/contrib/staticfiles/__init__'
p1638
sg52
g13
(g14
g15
NtRp1639
(dp1640
g18
I1
sg19
I0
sg20
I0
sg21
I0
sg22
I0
sg23
I0
sg24
I0
sbssg25
S'\xb0\xc8pN\xaf>\xa0\xbaz\x144\xe0A9\xb8?'
p1641
ssS'_Library_Python_2_7_site-packages_django_contrib_contenttypes_views'
p1642
(dp1643
g37
(dp1644
g8
S'_Library_Python_2_7_site-packages_django_contrib_contenttypes_views.html'
p1645
sg10
S'/Library/Python/2.7/site-packages/django/contrib/contenttypes/views'
p1646
sg12
g13
(g14
g15
NtRp1647
(dp1648
g18
I1
sg19
I0
sg20
I49
sg21
I0
sg22
I0
sg23
I43
sg24
I0
sbssg43
S'\x9a\x02]\x07#\xb5\x9e\x0c\xa1\xd2\x93\x89^\xeeF\xa7'
p1649
ssS'_Library_Python_2_7_site-packages_django_utils_regex_helper'
p1650
(dp1651
g6
(dp1652
g48
S'_Library_Python_2_7_site-packages_django_utils_regex_helper.html'
p1653
sg50
S'/Library/Python/2.7/site-packages/django/utils/regex_helper'
p1654
sg52
g13
(g14
g15
NtRp1655
(dp1656
g18
I1
sg19
I0
sg20
I185
sg21
I0
sg22
I0
sg23
I175
sg24
I0
sbssg25
S'2\x17q\n3`<\x0f\xce\x8az\xb4\xd1\xc7s7'
p1657
ssS'_Library_Python_2_7_site-packages_south_orm'
p1658
(dp1659
g37
(dp1660
g8
S'_Library_Python_2_7_site-packages_south_orm.html'
p1661
sg10
S'/Library/Python/2.7/site-packages/south/orm'
p1662
sg12
g13
(g14
g15
NtRp1663
(dp1664
g18
I1
sg19
I0
sg20
I210
sg21
I0
sg22
I0
sg23
I179
sg24
I0
sbssg43
S"^\x14Q\xcf\x19\x196'\xdf\x8a\xc2VI\xc2n:"
p1665
ssS'_Library_Python_2_7_site-packages_django_core_mail_utils'
p1666
(dp1667
g6
(dp1668
g48
S'_Library_Python_2_7_site-packages_django_core_mail_utils.html'
p1669
sg50
S'/Library/Python/2.7/site-packages/django/core/mail/utils'
p1670
sg52
g13
(g14
g15
NtRp1671
(dp1672
g18
I1
sg19
I0
sg20
I9
sg21
I0
sg22
I0
sg23
I4
sg24
I0
sbssg25
S'q\x8f\x86\xa8\x10\xa1\x04\x98^\x0e\xe8\x93\xb7X\xaan'
p1673
ssS'_Library_Python_2_7_site-packages_django_utils_importlib'
p1674
(dp1675
g6
(dp1676
g48
S'_Library_Python_2_7_site-packages_django_utils_importlib.html'
p1677
sg50
S'/Library/Python/2.7/site-packages/django/utils/importlib'
p1678
sg52
g13
(g14
g15
NtRp1679
(dp1680
g18
I1
sg19
I0
sg20
I23
sg21
I0
sg22
I0
sg23
I6
sg24
I0
sbssg25
S'\xba\x10A\xccg\xac\xd0\xe2\xb9QBQ3\x8d\xc0\x01'
p1681
ssS'_Library_Python_2_7_site-packages_django_middleware___init__'
p1682
(dp1683
g37
(dp1684
g8
S'_Library_Python_2_7_site-packages_django_middleware___init__.html'
p1685
sg10
S'/Library/Python/2.7/site-packages/django/middleware/__init__'
p1686
sg12
g13
(g14
g15
NtRp1687
(dp1688
g18
I1
sg19
I0
sg20
I0
sg21
I0
sg22
I0
sg23
I0
sg24
I0
sbssg43
S'\xb0\xc8pN\xaf>\xa0\xbaz\x144\xe0A9\xb8?'
p1689
ssS'_Library_Python_2_7_site-packages_django_utils_unittest_util'
p1690
(dp1691
g6
(dp1692
g48
S'_Library_Python_2_7_site-packages_django_utils_unittest_util.html'
p1693
sg50
S'/Library/Python/2.7/site-packages/django/utils/unittest/util'
p1694
sg52
g13
(g14
g15
NtRp1695
(dp1696
g18
I1
sg19
I0
sg20
I74
sg21
I0
sg22
I0
sg23
I67
sg24
I0
sbssg25
S'\xb2x_,\x84YY\x16\x91\xcb5(\xe8\x1c<\t'
p1697
ssS'_Library_Python_2_7_site-packages_django_conf_locale_en___init__'
p1698
(dp1699
g37
(dp1700
g8
S'_Library_Python_2_7_site-packages_django_conf_locale_en___init__.html'
p1701
sg10
S'/Library/Python/2.7/site-packages/django/conf/locale/en/__init__'
p1702
sg12
g13
(g14
g15
NtRp1703
(dp1704
g18
I1
sg19
I0
sg20
I0
sg21
I0
sg22
I0
sg23
I0
sg24
I0
sbssg43
S'\xb0\xc8pN\xaf>\xa0\xbaz\x144\xe0A9\xb8?'
p1705
ssS'_Library_Python_2_7_site-packages_django_contrib_sessions_models'
p1706
(dp1707
g37
(dp1708
g8
S'_Library_Python_2_7_site-packages_django_contrib_sessions_models.html'
p1709
sg10
S'/Library/Python/2.7/site-packages/django/contrib/sessions/models'
p1710
sg12
g13
(g14
g15
NtRp1711
(dp1712
g18
I1
sg19
I0
sg20
I23
sg21
I0
sg22
I0
sg23
I7
sg24
I0
sbssg43
S'< \xef\x96\xa0\x8c\xd8\xe9~\n\xbb7\xe7U\xf3['
p1713
ssS'_Library_Python_2_7_site-packages_django_db_backends_postgresql_psycopg2_base'
p1714
(dp1715
g6
(dp1716
g8
S'_Library_Python_2_7_site-packages_django_db_backends_postgresql_psycopg2_base.html'
p1717
sg10
S'/Library/Python/2.7/site-packages/django/db/backends/postgresql_psycopg2/base'
p1718
sg12
g13
(g14
g15
NtRp1719
(dp1720
g18
I1
sg19
I0
sg20
I154
sg21
I0
sg22
I0
sg23
I38
sg24
I0
sbssg25
S'\xc3M\xf871\x9f$\xe8\x91\x10?W\xe7\xf3\xc4U'
p1721
ssS'_Library_Python_2_7_site-packages_django_template_loaders_app_directories'
p1722
(dp1723
g37
(dp1724
g8
S'_Library_Python_2_7_site-packages_django_template_loaders_app_directories.html'
p1725
sg10
S'/Library/Python/2.7/site-packages/django/template/loaders/app_directories'
p1726
sg12
g13
(g14
g15
NtRp1727
(dp1728
g18
I1
sg19
I0
sg20
I42
sg21
I0
sg22
I0
sg23
I20
sg24
I0
sbssg43
S'\x0b=hb\xe7\xba\x95^\r\x85\xe1ja]rL'
p1729
ssS'_Library_Python_2_7_site-packages_django_db_backends_postgresql_psycopg2_introspection'
p1730
(dp1731
g6
(dp1732
g8
S'_Library_Python_2_7_site-packages_django_db_backends_postgresql_psycopg2_introspection.html'
p1733
sg10
S'/Library/Python/2.7/site-packages/django/db/backends/postgresql_psycopg2/introspection'
p1734
sg12
g13
(g14
g15
NtRp1735
(dp1736
g18
I1
sg19
I0
sg20
I25
sg21
I0
sg22
I0
sg23
I16
sg24
I0
sbssg25
S'\x92\xd68\x82%\xc0\xc8\xbc\xe9\xa5\xfb\x07\xf9\t5\x87'
p1737
ssS'_Library_Python_2_7_site-packages_django_template_defaulttags'
p1738
(dp1739
g6
(dp1740
g48
S'_Library_Python_2_7_site-packages_django_template_defaulttags.html'
p1741
sg50
S'/Library/Python/2.7/site-packages/django/template/defaulttags'
p1742
sg52
g13
(g14
g15
NtRp1743
(dp1744
g18
I1
sg19
I0
sg20
I613
sg21
I0
sg22
I0
sg23
I502
sg24
I0
sbssg25
S'g\xf1\x83\xf1&T\x08e2f\x06\xb2*A@\x87'
p1745
ssS'_Library_Python_2_7_site-packages_django_contrib_contenttypes_management'
p1746
(dp1747
g37
(dp1748
g8
S'_Library_Python_2_7_site-packages_django_contrib_contenttypes_management.html'
p1749
sg10
S'/Library/Python/2.7/site-packages/django/contrib/contenttypes/management'
p1750
sg12
g13
(g14
g15
NtRp1751
(dp1752
g18
I1
sg19
I0
sg20
I34
sg21
I0
sg22
I0
sg23
I16
sg24
I0
sbssg43
S'\xd2\xa7CS\xcd\x03C\xa7\x93\x97MR0>\x84e'
p1753
ssS'_Library_Python_2_7_site-packages_django_contrib_messages_storage___init__'
p1754
(dp1755
g37
(dp1756
g8
S'_Library_Python_2_7_site-packages_django_contrib_messages_storage___init__.html'
p1757
sg10
S'/Library/Python/2.7/site-packages/django/contrib/messages/storage/__init__'
p1758
sg12
g13
(g14
g15
NtRp1759
(dp1760
g18
I1
sg19
I0
sg20
I18
sg21
I0
sg22
I0
sg23
I13
sg24
I0
sbssg43
S'\xa0\t\xb5\xe9\x01S\x15\\f\x1d\xb6\xd2t\x937\x8a'
p1761
ssS'_Library_Python_2_7_site-packages_django_contrib_admin_models'
p1762
(dp1763
g37
(dp1764
g8
S'_Library_Python_2_7_site-packages_django_contrib_admin_models.html'
p1765
sg10
S'/Library/Python/2.7/site-packages/django/contrib/admin/models'
p1766
sg12
g13
(g14
g15
NtRp1767
(dp1768
g18
I1
sg19
I0
sg20
I50
sg21
I0
sg22
I0
sg23
I17
sg24
I0
sbssg43
S'\x01\x0byuK}\x1eM\xc7\xc6Yf\x8f=\xd3\xbf'
p1769
ssS'_Library_Python_2_7_site-packages_django_contrib_staticfiles_templatetags___init__'
p1770
(dp1771
g37
(dp1772
g8
S'_Library_Python_2_7_site-packages_django_contrib_staticfiles_templatetags___init__.html'
p1773
sg10
S'/Library/Python/2.7/site-packages/django/contrib/staticfiles/templatetags/__init__'
p1774
sg12
g13
(g14
g15
NtRp1775
(dp1776
g18
I1
sg19
I0
sg20
I0
sg21
I0
sg22
I0
sg23
I0
sg24
I0
sbssg43
S'\xb0\xc8pN\xaf>\xa0\xbaz\x144\xe0A9\xb8?'
p1777
ssS'_Library_Python_2_7_site-packages_django_contrib_admin_util'
p1778
(dp1779
g37
(dp1780
g8
S'_Library_Python_2_7_site-packages_django_contrib_admin_util.html'
p1781
sg10
S'/Library/Python/2.7/site-packages/django/contrib/admin/util'
p1782
sg12
g13
(g14
g15
NtRp1783
(dp1784
g18
I1
sg19
I0
sg20
I256
sg21
I0
sg22
I0
sg23
I217
sg24
I0
sbssg43
S'U\x0b\xcc\xa7dQ\x96k\x9bc\x9e\x19\xc7\x9f?b'
p1785
ssS'_Library_Python_2_7_site-packages_psycopg2_tz'
p1786
(dp1787
g6
(dp1788
g48
S'_Library_Python_2_7_site-packages_psycopg2_tz.html'
p1789
sg50
S'/Library/Python/2.7/site-packages/psycopg2/tz'
p1790
sg52
g13
(g14
g15
NtRp1791
(dp1792
g18
I1
sg19
I0
sg20
I61
sg21
I0
sg22
I0
sg23
I37
sg24
I0
sbssg25
S'\x8a\x91&\x8c\x99\xa5\xaa|k3l\xbe(\xb4\xfe8'
p1793
ssS'_Library_Python_2_7_site-packages_django_contrib_staticfiles_handlers'
p1794
(dp1795
g6
(dp1796
g48
S'_Library_Python_2_7_site-packages_django_contrib_staticfiles_handlers.html'
p1797
sg50
S'/Library/Python/2.7/site-packages/django/contrib/staticfiles/handlers'
p1798
sg52
g13
(g14
g15
NtRp1799
(dp1800
g18
I1
sg19
I0
sg20
I40
sg21
I0
sg22
I0
sg23
I25
sg24
I0
sbssg25
S'\xc9\xf1t\x83\xcf\x01k\x14\x7f1\xa8\xd7,\xaf\xb3}'
p1801
ssS'_Library_Python_2_7_site-packages_django_db_backends_postgresql_psycopg2_creation'
p1802
(dp1803
g6
(dp1804
g8
S'_Library_Python_2_7_site-packages_django_db_backends_postgresql_psycopg2_creation.html'
p1805
sg10
S'/Library/Python/2.7/site-packages/django/db/backends/postgresql_psycopg2/creation'
p1806
sg12
g13
(g14
g15
NtRp1807
(dp1808
g18
I1
sg19
I0
sg20
I35
sg21
I0
sg22
I0
sg23
I7
sg24
I0
sbssg25
S'\x9c\xa8\xd2\x1a\x05\xd1\xb7\x80\xeeS\x12\xaa\x1dnI\xee'
p1809
ssS'_Library_Python_2_7_site-packages_django_db_backends_creation'
p1810
(dp1811
g6
(dp1812
g8
S'_Library_Python_2_7_site-packages_django_db_backends_creation.html'
p1813
sg10
S'/Library/Python/2.7/site-packages/django/db/backends/creation'
p1814
sg12
g13
(g14
g15
NtRp1815
(dp1816
g18
I1
sg19
I0
sg20
I212
sg21
I0
sg22
I0
sg23
I72
sg24
I0
sbssg25
S'\xa8\xb3\x8c\xed\x02\x861r\x80\xb9|\xee\x89\xe6\xe1\xbc'
p1817
ssS'_Library_Python_2_7_site-packages_django_core_mail_message'
p1818
(dp1819
g6
(dp1820
g294
S'_Library_Python_2_7_site-packages_django_core_mail_message.html'
p1821
sg296
S'/Library/Python/2.7/site-packages/django/core/mail/message'
p1822
sg298
g13
(g14
g15
NtRp1823
(dp1824
g18
I1
sg19
I0
sg20
I210
sg21
I0
sg22
I0
sg23
I138
sg24
I0
sbssg25
S'\xda\x07\xe2\xdd\xf0\xbcX\xfe<\xc0Oe\x98hh`'
p1825
ssS'_Library_Python_2_7_site-packages_south_db___init__'
p1826
(dp1827
g37
(dp1828
g8
S'_Library_Python_2_7_site-packages_south_db___init__.html'
p1829
sg10
S'/Library/Python/2.7/site-packages/south/db/__init__'
p1830
sg12
g13
(g14
g15
NtRp1831
(dp1832
g18
I1
sg19
I0
sg20
I24
sg21
I0
sg22
I0
sg23
I9
sg24
I0
sbssg43
S'\xff\x0e\xb2\x8d\xb9x\xab1H}\\\x8e\x8f\xe5",'
p1833
ssS'_Library_Python_2_7_site-packages_django_core_cache_backends___init__'
p1834
(dp1835
g6
(dp1836
g48
S'_Library_Python_2_7_site-packages_django_core_cache_backends___init__.html'
p1837
sg50
S'/Library/Python/2.7/site-packages/django/core/cache/backends/__init__'
p1838
sg52
g13
(g14
g15
NtRp1839
(dp1840
g18
I1
sg19
I0
sg20
I0
sg21
I0
sg22
I0
sg23
I0
sg24
I0
sbssg25
S'\xb0\xc8pN\xaf>\xa0\xbaz\x144\xe0A9\xb8?'
p1841
ssS'_Library_Python_2_7_site-packages_django_template_defaultfilters'
p1842
(dp1843
g6
(dp1844
g48
S'_Library_Python_2_7_site-packages_django_template_defaultfilters.html'
p1845
sg50
S'/Library/Python/2.7/site-packages/django/template/defaultfilters'
p1846
sg52
g13
(g14
g15
NtRp1847
(dp1848
g18
I1
sg19
I0
sg20
I457
sg21
I0
sg22
I0
sg23
I326
sg24
I0
sbssg25
S'\xb8\xee\x1e9\xb8a\x93\xb8\xec\xec\xd2\x124A\xc8&'
p1849
ssS'_Library_Python_2_7_site-packages_south_exceptions'
p1850
(dp1851
g37
(dp1852
g8
S'_Library_Python_2_7_site-packages_south_exceptions.html'
p1853
sg10
S'/Library/Python/2.7/site-packages/south/exceptions'
p1854
sg12
g13
(g14
g15
NtRp1855
(dp1856
g18
I1
sg19
I0
sg20
I92
sg21
I0
sg22
I0
sg23
I42
sg24
I0
sbssg43
S"\xf6\xb5\xe7\xed\x83\xa5E\xca\x95\x13\x82 w'\xe1\x99"
p1857
ssS'_Library_Python_2_7_site-packages_south_migration_utils'
p1858
(dp1859
g37
(dp1860
g8
S'_Library_Python_2_7_site-packages_south_migration_utils.html'
p1861
sg10
S'/Library/Python/2.7/site-packages/south/migration/utils'
p1862
sg12
g13
(g14
g15
NtRp1863
(dp1864
g18
I1
sg19
I0
sg20
I55
sg21
I0
sg22
I0
sg23
I33
sg24
I0
sbssg43
S'\xad\xb9E\xb6\tu\xaa}\x8byA\xb9\xc60\xde8'
p1865
ssS'_Library_Python_2_7_site-packages_django_utils_translation_trans_real'
p1866
(dp1867
g6
(dp1868
g8
S'_Library_Python_2_7_site-packages_django_utils_translation_trans_real.html'
p1869
sg10
S'/Library/Python/2.7/site-packages/django/utils/translation/trans_real'
p1870
sg12
g13
(g14
g15
NtRp1871
(dp1872
g18
I1
sg19
I0
sg20
I365
sg21
I0
sg22
I0
sg23
I226
sg24
I0
sbssg25
S"\x14:\xab+qr&'\xc6\xd3\x0b\xac\x8b1^!"
p1873
ssS'_Library_Python_2_7_site-packages_django_contrib_admin_filters'
p1874
(dp1875
g37
(dp1876
g8
S'_Library_Python_2_7_site-packages_django_contrib_admin_filters.html'
p1877
sg10
S'/Library/Python/2.7/site-packages/django/contrib/admin/filters'
p1878
sg12
g13
(g14
g15
NtRp1879
(dp1880
g18
I1
sg19
I0
sg20
I187
sg21
I0
sg22
I0
sg23
I126
sg24
I0
sbssg43
S'\xaa\xce@\xb7\xca\xc7\xa3\x11F\x02\xb9\xff\xef\xe5\xf61'
p1881
ssS'_Library_Python_2_7_site-packages_django_core_exceptions'
p1882
(dp1883
g6
(dp1884
g48
S'_Library_Python_2_7_site-packages_django_core_exceptions.html'
p1885
sg50
S'/Library/Python/2.7/site-packages/django/core/exceptions'
p1886
sg52
g13
(g14
g15
NtRp1887
(dp1888
g18
I1
sg19
I0
sg20
I48
sg21
I0
sg22
I0
sg23
I24
sg24
I0
sbssg25
S'a\xe3\xad\nKH\xdek\xda\xd5\x03\x9fP\x15\xc6\xc6'
p1889
ssS'_Library_Python_2_7_site-packages_django_contrib_messages_constants'
p1890
(dp1891
g37
(dp1892
g8
S'_Library_Python_2_7_site-packages_django_contrib_messages_constants.html'
p1893
sg10
S'/Library/Python/2.7/site-packages/django/contrib/messages/constants'
p1894
sg12
g13
(g14
g15
NtRp1895
(dp1896
g18
I1
sg19
I0
sg20
I6
sg21
I0
sg22
I0
sg23
I0
sg24
I0
sbssg43
S'\xe2n\xbf/\x11\x9a\xf2\xc6\xa4\x8f~\xd2\x91y\xd4\xda'
p1897
ssS'_Library_Python_2_7_site-packages_south_utils___init__'
p1898
(dp1899
g37
(dp1900
g8
S'_Library_Python_2_7_site-packages_south_utils___init__.html'
p1901
sg10
S'/Library/Python/2.7/site-packages/south/utils/__init__'
p1902
sg12
g13
(g14
g15
NtRp1903
(dp1904
g18
I1
sg19
I0
sg20
I38
sg21
I0
sg22
I0
sg23
I12
sg24
I0
sbssg43
S'[\\A\x96\xa4!\x1c\x83Uf\xdd\x08H\x10g\xca'
p1905
ssS'_Library_Python_2_7_site-packages_django_core_files_locks'
p1906
(dp1907
g6
(dp1908
g48
S'_Library_Python_2_7_site-packages_django_core_files_locks.html'
p1909
sg50
S'/Library/Python/2.7/site-packages/django/core/files/locks'
p1910
sg52
g13
(g14
g15
NtRp1911
(dp1912
g18
I1
sg19
I0
sg20
I40
sg21
I0
sg22
I0
sg23
I23
sg24
I0
sbssg25
S'\x18\xad\x19x\x91p\n\x1a\x14\xf5\x00\xd2\xaf\xb8\xfa\xc5'
p1913
ssS'carpoolapp_unitTest'
p1914
(dp1915
g37
(dp1916
g294
S'carpoolapp_unitTest.html'
p1917
sg296
S'carpoolapp/unitTest'
p1918
sg298
g13
(g14
g15
NtRp1919
(dp1920
g18
I1
sg19
I0
sg20
I414
sg21
I0
sg22
I0
sg23
I0
sg24
I0
sbssg43
S'\xd0Mi~\xef,\xbf\r\xf6\xd1\xd0q\xbc*\xd2\xdc'
p1921
ssS'_Library_Python_2_7_site-packages_django_core_serializers_json'
p1922
(dp1923
g37
(dp1924
g915
S'_Library_Python_2_7_site-packages_django_core_serializers_json.html'
p1925
sg917
S'/Library/Python/2.7/site-packages/django/core/serializers/json'
p1926
sg919
g13
(g14
g15
NtRp1927
(dp1928
g18
I1
sg19
I0
sg20
I50
sg21
I0
sg22
I0
sg23
I25
sg24
I0
sbssg43
S'\xa9\xcd\xe5\xd4\xc9\xa3\xccC!\x92\x95hK\xd1\xc1K'
p1929
ssS'_Library_Python_2_7_site-packages_django_template_response'
p1930
(dp1931
g37
(dp1932
g8
S'_Library_Python_2_7_site-packages_django_template_response.html'
p1933
sg10
S'/Library/Python/2.7/site-packages/django/template/response'
p1934
sg12
g13
(g14
g15
NtRp1935
(dp1936
g18
I1
sg19
I0
sg20
I72
sg21
I0
sg22
I0
sg23
I50
sg24
I0
sbssg43
S'\xb1\xac\xaba\xdcM\xb4\x07\xb1\xe5\xcb\xf3\x13&v\xf8'
p1937
ssS'_Library_Python_2_7_site-packages_django_contrib_sites_management'
p1938
(dp1939
g37
(dp1940
g8
S'_Library_Python_2_7_site-packages_django_contrib_sites_management.html'
p1941
sg10
S'/Library/Python/2.7/site-packages/django/contrib/sites/management'
p1942
sg12
g13
(g14
g15
NtRp1943
(dp1944
g18
I1
sg19
I0
sg20
I20
sg21
I0
sg22
I0
sg23
I2
sg24
I0
sbssg43
S'\xe1\xdc;QH^g.v\x17\x19\x0e\xad\xd9\x96\xdc'
p1945
ssS'_Library_Python_2_7_site-packages_django_contrib_staticfiles_views'
p1946
(dp1947
g6
(dp1948
g48
S'_Library_Python_2_7_site-packages_django_contrib_staticfiles_views.html'
p1949
sg50
S'/Library/Python/2.7/site-packages/django/contrib/staticfiles/views'
p1950
sg52
g13
(g14
g15
NtRp1951
(dp1952
g18
I1
sg19
I0
sg20
I19
sg21
I0
sg22
I0
sg23
I10
sg24
I0
sbssg25
S'Vs\xc8u\t8L5\x1d\x00\x8b\x0c&\xbd  '
p1953
ssS'_Library_Python_2_7_site-packages_django_contrib_contenttypes_models'
p1954
(dp1955
g37
(dp1956
g8
S'_Library_Python_2_7_site-packages_django_contrib_contenttypes_models.html'
p1957
sg10
S'/Library/Python/2.7/site-packages/django/contrib/contenttypes/models'
p1958
sg12
g13
(g14
g15
NtRp1959
(dp1960
g18
I1
sg19
I0
sg20
I91
sg21
I0
sg22
I0
sg23
I45
sg24
I0
sbssg43
S'\xa2X\xbdIa\x05\x16m\xea%\xd8\x1e\x81\xa2\xc2\xa1'
p1961
ssS'_Library_Python_2_7_site-packages_south_models'
p1962
(dp1963
g37
(dp1964
g8
S'_Library_Python_2_7_site-packages_south_models.html'
p1965
sg10
S'/Library/Python/2.7/site-packages/south/models'
p1966
sg12
g13
(g14
g15
NtRp1967
(dp1968
g18
I1
sg19
I0
sg20
I21
sg21
I0
sg22
I0
sg23
I11
sg24
I0
sbssg43
S'\x0b\x1b\xa5\x01\x13\xbe\x84\xa8\xdf \xb2+\xdf\xbf\xcc\xe2'
p1969
ssS'_Library_Python_2_7_site-packages_django_db_models_sql_expressions'
p1970
(dp1971
g6
(dp1972
g48
S'_Library_Python_2_7_site-packages_django_db_models_sql_expressions.html'
p1973
sg50
S'/Library/Python/2.7/site-packages/django/db/models/sql/expressions'
p1974
sg52
g13
(g14
g15
NtRp1975
(dp1976
g18
I1
sg19
I0
sg20
I61
sg21
I0
sg22
I0
sg23
I48
sg24
I0
sbssg25
S'g\x06[\x98\xcbA\xf39\xba=F\xdf\xd4\x8dJ\x9f'
p1977
ssS'_Library_Python_2_7_site-packages_django_db_backends_postgresql_psycopg2_operations'
p1978
(dp1979
g6
(dp1980
g8
S'_Library_Python_2_7_site-packages_django_db_backends_postgresql_psycopg2_operations.html'
p1981
sg10
S'/Library/Python/2.7/site-packages/django/db/backends/postgresql_psycopg2/operations'
p1982
sg12
g13
(g14
g15
NtRp1983
(dp1984
g18
I1
sg19
I0
sg20
I99
sg21
I0
sg22
I0
sg23
I44
sg24
I0
sbssg25
S'x\xbd~\xe7>R\xf1\xf3\n\xe0&\xfb\x10"\xf40'
p1985
ssS'_Library_Python_2_7_site-packages_django_core_mail_backends___init__'
p1986
(dp1987
g384
(dp1988
g294
S'_Library_Python_2_7_site-packages_django_core_mail_backends___init__.html'
p1989
sg296
S'/Library/Python/2.7/site-packages/django/core/mail/backends/__init__'
p1990
sg298
g13
(g14
g15
NtRp1991
(dp1992
g18
I1
sg19
I0
sg20
I0
sg21
I0
sg22
I0
sg23
I0
sg24
I0
sbssg390
S'Yd\x89\xd2u\xf7\x1dgvmQ.\xe1\xce/\xd0'
p1993
ssS'_Library_Python_2_7_site-packages_django_utils_module_loading'
p1994
(dp1995
g6
(dp1996
g48
S'_Library_Python_2_7_site-packages_django_utils_module_loading.html'
p1997
sg50
S'/Library/Python/2.7/site-packages/django/utils/module_loading'
p1998
sg52
g13
(g14
g15
NtRp1999
(dp2000
g18
I1
sg19
I0
sg20
I48
sg21
I0
sg22
I0
sg23
I44
sg24
I0
sbssg25
S'\x81\xbe\xb4\xca\xff\xe8Z\x15]\x06\xfc\xf1\xc4\xd9\x9a;'
p2001
ssS'_Library_Python_2_7_site-packages_django_middleware_csrf'
p2002
(dp2003
g37
(dp2004
g8
S'_Library_Python_2_7_site-packages_django_middleware_csrf.html'
p2005
sg10
S'/Library/Python/2.7/site-packages/django/middleware/csrf'
p2006
sg12
g13
(g14
g15
NtRp2007
(dp2008
g18
I1
sg19
I0
sg20
I82
sg21
I0
sg22
I0
sg23
I58
sg24
I0
sbssg43
S'M\xd3.z\x18\xb9\x8d\xbf\x0bU6\xb8D\x06\xca\x04'
p2009
ssS'_Library_Python_2_7_site-packages_django_contrib_auth_tokens'
p2010
(dp2011
g37
(dp2012
g8
S'_Library_Python_2_7_site-packages_django_contrib_auth_tokens.html'
p2013
sg10
S'/Library/Python/2.7/site-packages/django/contrib/auth/tokens'
p2014
sg12
g13
(g14
g15
NtRp2015
(dp2016
g18
I1
sg19
I0
sg20
I33
sg21
I0
sg22
I0
sg23
I22
sg24
I0
sbssg43
S'\xd5\x0c3\xaaa\x07\xe1\x06.\xfe\xeaP\xc3b\xdb\x96'
p2017
ssS'_Library_Python_2_7_site-packages_pytz_exceptions'
p2018
(dp2019
g6
(dp2020
g48
S'_Library_Python_2_7_site-packages_pytz_exceptions.html'
p2021
sg50
S'/Library/Python/2.7/site-packages/pytz/exceptions'
p2022
sg52
g13
(g14
g15
NtRp2023
(dp2024
g18
I1
sg19
I0
sg20
I6
sg21
I0
sg22
I0
sg23
I0
sg24
I0
sbssg25
S'\xca\xbadT#j\x8b\xb1Q\x18(s\xf5>\x99\xe1'
p2025
ssS'_Library_Python_2_7_site-packages_django_db_models_query_utils'
p2026
(dp2027
g6
(dp2028
g8
S'_Library_Python_2_7_site-packages_django_db_models_query_utils.html'
p2029
sg10
S'/Library/Python/2.7/site-packages/django/db/models/query_utils'
p2030
sg12
g13
(g14
g15
NtRp2031
(dp2032
g18
I1
sg19
I0
sg20
I78
sg21
I0
sg22
I0
sg23
I53
sg24
I0
sbssg25
S'\x81r,\xe6%{i\xa9EW\xc8\x03\x0b\xe9\x80\xdd'
p2033
ssS'_Library_Python_2_7_site-packages_django_core_mail___init__'
p2034
(dp2035
g6
(dp2036
g294
S'_Library_Python_2_7_site-packages_django_core_mail___init__.html'
p2037
sg296
S'/Library/Python/2.7/site-packages/django/core/mail/__init__'
p2038
sg298
g13
(g14
g15
NtRp2039
(dp2040
g18
I1
sg19
I0
sg20
I38
sg21
I0
sg22
I0
sg23
I19
sg24
I0
sbssg25
S'\xa7\xb0Us\x80\xfc\x85\xa9rJ\x7f\xb6\xc5\xdcS\xf4'
p2041
ssS'_Library_Python_2_7_site-packages_django_utils_log'
p2042
(dp2043
g6
(dp2044
g48
S'_Library_Python_2_7_site-packages_django_utils_log.html'
p2045
sg50
S'/Library/Python/2.7/site-packages/django/utils/log'
p2046
sg52
g13
(g14
g15
NtRp2047
(dp2048
g18
I1
sg19
I0
sg20
I56
sg21
I0
sg22
I0
sg23
I32
sg24
I0
sbssg25
S'[\xb7U\xe3<\xd4\x88\x90wQ^\x06y%\xb8K'
p2049
ssS'_Library_Python_2_7_site-packages_django_core_files_uploadhandler'
p2050
(dp2051
g6
(dp2052
g48
S'_Library_Python_2_7_site-packages_django_core_files_uploadhandler.html'
p2053
sg50
S'/Library/Python/2.7/site-packages/django/core/files/uploadhandler'
p2054
sg52
g13
(g14
g15
NtRp2055
(dp2056
g18
I1
sg19
I0
sg20
I89
sg21
I0
sg22
I0
sg23
I54
sg24
I0
sbssg25
S'\xd7\x85G\xd1\xdc3<\xf5\xe9\xd6UF?\xc2\x90\xde'
p2057
ssS'_Library_Python_2_7_site-packages_django_contrib_auth_models'
p2058
(dp2059
g37
(dp2060
g8
S'_Library_Python_2_7_site-packages_django_contrib_auth_models.html'
p2061
sg10
S'/Library/Python/2.7/site-packages/django/contrib/auth/models'
p2062
sg12
g13
(g14
g15
NtRp2063
(dp2064
g18
I1
sg19
I0
sg20
I244
sg21
I0
sg22
I0
sg23
I129
sg24
I0
sbssg43
S'\xb9/yoz\'SU\xdf\xe0\xb0\xa6\xcdD"\xc6'
p2065
ssS'_Library_Python_2_7_site-packages_django_contrib_auth_management___init__'
p2066
(dp2067
g37
(dp2068
g8
S'_Library_Python_2_7_site-packages_django_contrib_auth_management___init__.html'
p2069
sg10
S'/Library/Python/2.7/site-packages/django/contrib/auth/management/__init__'
p2070
sg12
g13
(g14
g15
NtRp2071
(dp2072
g18
I1
sg19
I0
sg20
I64
sg21
I0
sg22
I0
sg23
I30
sg24
I0
sbssg43
S'\xe0\xdb"?K/\x90\x8cms\xbfq\xf5\x04=\xc4'
p2073
ssS'_Library_Python_2_7_site-packages_south_utils_datetime_utils'
p2074
(dp2075
g37
(dp2076
g8
S'_Library_Python_2_7_site-packages_south_utils_datetime_utils.html'
p2077
sg10
S'/Library/Python/2.7/site-packages/south/utils/datetime_utils'
p2078
sg12
g13
(g14
g15
NtRp2079
(dp2080
g18
I1
sg19
I0
sg20
I13
sg21
I0
sg22
I0
sg23
I5
sg24
I0
sbssg43
S'#\xd4%\xc1\x13b\xbe\xdc\x97\xcbi\xabX\x00\xa2\xa7'
p2081
ssS'_Library_Python_2_7_site-packages_django_template_loaders___init__'
p2082
(dp2083
g6
(dp2084
g48
S'_Library_Python_2_7_site-packages_django_template_loaders___init__.html'
p2085
sg50
S'/Library/Python/2.7/site-packages/django/template/loaders/__init__'
p2086
sg52
g13
(g14
g15
NtRp2087
(dp2088
g18
I1
sg19
I0
sg20
I0
sg21
I0
sg22
I0
sg23
I0
sg24
I0
sbssg25
S'\xb0\xc8pN\xaf>\xa0\xbaz\x144\xe0A9\xb8?'
p2089
ssS'_Library_Python_2_7_site-packages_django_http_multipartparser'
p2090
(dp2091
g6
(dp2092
g48
S'_Library_Python_2_7_site-packages_django_http_multipartparser.html'
p2093
sg50
S'/Library/Python/2.7/site-packages/django/http/multipartparser'
p2094
sg52
g13
(g14
g15
NtRp2095
(dp2096
g18
I1
sg19
I0
sg20
I337
sg21
I0
sg22
I0
sg23
I288
sg24
I0
sbssg25
S'\xd2\xb9 \x03\xe5*`\xbd*\x88\xd9I\x92\xb4~\xbb'
p2097
ssS'_Library_Python_2_7_site-packages_pytz_tzinfo'
p2098
(dp2099
g6
(dp2100
g8
S'_Library_Python_2_7_site-packages_pytz_tzinfo.html'
p2101
sg10
S'/Library/Python/2.7/site-packages/pytz/tzinfo'
p2102
sg12
g13
(g14
g15
NtRp2103
(dp2104
g18
I1
sg19
I0
sg20
I178
sg21
I0
sg22
I0
sg23
I79
sg24
I0
sbssg25
S"\xa3\xd9iA@\xe8c\x0b\xc1V\xb0]'5\xd0\x9c"
p2105
ssS'_Library_Python_2_7_site-packages_django_contrib_admin_helpers'
p2106
(dp2107
g37
(dp2108
g8
S'_Library_Python_2_7_site-packages_django_contrib_admin_helpers.html'
p2109
sg10
S'/Library/Python/2.7/site-packages/django/contrib/admin/helpers'
p2110
sg12
g13
(g14
g15
NtRp2111
(dp2112
g18
I1
sg19
I0
sg20
I245
sg21
I0
sg22
I0
sg23
I182
sg24
I0
sbssg43
S'2\x07\xb3\xfcP!\xc7\x02\xd7\xd9"\xf4\xab\xfd\xbfX'
p2113
ssS'_Library_Python_2_7_site-packages_django_core_servers_basehttp'
p2114
(dp2115
g6
(dp2116
g48
S'_Library_Python_2_7_site-packages_django_core_servers_basehttp.html'
p2117
sg50
S'/Library/Python/2.7/site-packages/django/core/servers/basehttp'
p2118
sg52
g13
(g14
g15
NtRp2119
(dp2120
g18
I1
sg19
I0
sg20
I142
sg21
I0
sg22
I0
sg23
I103
sg24
I0
sbssg25
S'\xdc\x86;\x06\x84B\xf8\xf4\xb2-F\xf8\x7f\x05\xcb\xf0'
p2121
ssS'_Library_Python_2_7_site-packages_django_db_models_expressions'
p2122
(dp2123
g6
(dp2124
g48
S'_Library_Python_2_7_site-packages_django_db_models_expressions.html'
p2125
sg50
S'/Library/Python/2.7/site-packages/django/db/models/expressions'
p2126
sg52
g13
(g14
g15
NtRp2127
(dp2128
g18
I1
sg19
I0
sg20
I80
sg21
I0
sg22
I0
sg23
I43
sg24
I0
sbssg25
S'mo\x1e\x15\xa0\xc1\x8a\x13\xf7\xaen\x81\xfc_\x0e\xa5'
p2129
ssS'_Library_Python_2_7_site-packages_django_core_cache_backends_db'
p2130
(dp2131
g37
(dp2132
g8
S'_Library_Python_2_7_site-packages_django_core_cache_backends_db.html'
p2133
sg10
S'/Library/Python/2.7/site-packages/django/core/cache/backends/db'
p2134
sg12
g13
(g14
g15
NtRp2135
(dp2136
g18
I1
sg19
I0
sg20
I127
sg21
I0
sg22
I0
sg23
I103
sg24
I0
sbssg43
S"\xee\x8a'\xb6\x8d\x06\x8ca\t\x1c\x9dE\x8b\x854H"
p2137
sssS'version'
p2138
S'3.6'
p2139
sS'settings'
p2140
S'3\xcf\xa1\x19.\x88o$\x8cA\xde\xbd\xcd\x06\xa1\x0f'
p2141
sS'format'
p2142
I1
s.