(dp1
S'files'
p2
(dp3
S'_Library_Python_2_7_site-packages_django_utils_decorators'
p4
(dp5
S'index'
p6
(dp7
S'html_filename'
p8
S'_Library_Python_2_7_site-packages_django_utils_decorators.html'
p9
sS'name'
p10
S'/Library/Python/2.7/site-packages/django/utils/decorators'
p11
sS'nums'
p12
ccopy_reg
_reconstructor
p13
(ccoverage.results
Numbers
p14
c__builtin__
object
p15
NtRp16
(dp17
S'n_files'
p18
I1
sS'n_branches'
p19
I0
sS'n_statements'
p20
I59
sS'n_excluded'
p21
I0
sS'n_partial_branches'
p22
I0
sS'n_missing'
p23
I33
sS'n_missing_branches'
p24
I0
sbssS'hash'
p25
S'\xd4C\xaf\x8d\xf9z (\xa8J9\xf4\x84\x8eHg'
p26
ssS'_Library_Python_2_7_site-packages_django_db_models_query'
p27
(dp28
g6
(dp29
S'html_filename'
p30
S'_Library_Python_2_7_site-packages_django_db_models_query.html'
p31
sS'name'
p32
S'/Library/Python/2.7/site-packages/django/db/models/query'
p33
sS'nums'
p34
g13
(g14
g15
NtRp35
(dp36
g18
I1
sg19
I0
sg20
I925
sg21
I0
sg22
I0
sg23
I608
sg24
I0
sbssg25
S'\xecl\x92\xec\x88W\x93\xa2\xc4\x06\xc1\x0c\xf2^\x92i'
p37
ssS'_Library_Python_2_7_site-packages_south_hacks_django_1_0'
p38
(dp39
S'index'
p40
(dp41
g8
S'_Library_Python_2_7_site-packages_south_hacks_django_1_0.html'
p42
sg10
S'/Library/Python/2.7/site-packages/south/hacks/django_1_0'
p43
sg12
g13
(g14
g15
NtRp44
(dp45
g18
I1
sg19
I0
sg20
I48
sg21
I0
sg22
I0
sg23
I20
sg24
I0
sbssS'hash'
p46
S'\xcf\xe2\xeeD\x8d-\xcd\x0e,\x91\xad\x8b1)\xfd\x9a'
p47
ssS'_Library_Python_2_7_site-packages_django_core_files_temp'
p48
(dp49
g6
(dp50
S'html_filename'
p51
S'_Library_Python_2_7_site-packages_django_core_files_temp.html'
p52
sS'name'
p53
S'/Library/Python/2.7/site-packages/django/core/files/temp'
p54
sS'nums'
p55
g13
(g14
g15
NtRp56
(dp57
g18
I1
sg19
I0
sg20
I28
sg21
I0
sg22
I0
sg23
I21
sg24
I0
sbssg25
S'\x14%Z\x18\x8e\x18K\xa3Y\x1f\xa7\x988\xdc)X'
p58
ssS'_Library_Python_2_7_site-packages_django_db_models_manager'
p59
(dp60
g6
(dp61
g8
S'_Library_Python_2_7_site-packages_django_db_models_manager.html'
p62
sg10
S'/Library/Python/2.7/site-packages/django/db/models/manager'
p63
sg12
g13
(g14
g15
NtRp64
(dp65
g18
I1
sg19
I0
sg20
I139
sg21
I0
sg22
I0
sg23
I43
sg24
I0
sbssg25
S'\xe7}j\xe7\xaa&]\xcf\x87\xccb\xe5\x98mhb'
p66
ssS'_Library_Python_2_7_site-packages_south_migration_migrators'
p67
(dp68
g40
(dp69
g8
S'_Library_Python_2_7_site-packages_south_migration_migrators.html'
p70
sg10
S'/Library/Python/2.7/site-packages/south/migration/migrators'
p71
sg12
g13
(g14
g15
NtRp72
(dp73
g18
I1
sg19
I0
sg20
I231
sg21
I0
sg22
I0
sg23
I165
sg24
I0
sbssg46
S'!\xbe\x94\xc9o\x81\x91\x17\xd2\x10\xbf\x1b\n\xf4\x18\x98'
p74
ssS'_Library_Python_2_7_site-packages_django_utils_dates'
p75
(dp76
g6
(dp77
g51
S'_Library_Python_2_7_site-packages_django_utils_dates.html'
p78
sg53
S'/Library/Python/2.7/site-packages/django/utils/dates'
p79
sg55
g13
(g14
g15
NtRp80
(dp81
g18
I1
sg19
I0
sg20
I9
sg21
I0
sg22
I0
sg23
I0
sg24
I0
sbssg25
S'\xed\xe1n\x81\x12\xc1\xc6\x8b\xd8\x98O4:mTA'
p82
ssS'_Library_Python_2_7_site-packages_django_db_models_sql_subqueries'
p83
(dp84
g6
(dp85
g30
S'_Library_Python_2_7_site-packages_django_db_models_sql_subqueries.html'
p86
sg32
S'/Library/Python/2.7/site-packages/django/db/models/sql/subqueries'
p87
sg34
g13
(g14
g15
NtRp88
(dp89
g18
I1
sg19
I0
sg20
I113
sg21
I0
sg22
I0
sg23
I52
sg24
I0
sbssg25
S"\x10\t\x91\xd9'+\xb4\x07\x05\x91\xa2QI\x04\xc4\x98"
p90
ssS'_Library_Python_2_7_site-packages_south_management_commands_migrate'
p91
(dp92
g40
(dp93
g8
S'_Library_Python_2_7_site-packages_south_management_commands_migrate.html'
p94
sg10
S'/Library/Python/2.7/site-packages/south/management/commands/migrate'
p95
sg12
g13
(g14
g15
NtRp96
(dp97
g18
I1
sg19
I0
sg20
I123
sg21
I0
sg22
I0
sg23
I91
sg24
I0
sbssg46
S'd\xc5=\xaf\xd6G\xbaJ\x1c\xc0\xce]k\xa8\x18\xa1'
p98
ssS'_Library_Python_2_7_site-packages_django_db_models_aggregates'
p99
(dp100
g6
(dp101
g51
S'_Library_Python_2_7_site-packages_django_db_models_aggregates.html'
p102
sg53
S'/Library/Python/2.7/site-packages/django/db/models/aggregates'
p103
sg55
g13
(g14
g15
NtRp104
(dp105
g18
I1
sg19
I0
sg20
I25
sg21
I0
sg22
I0
sg23
I6
sg24
I0
sbssg25
S'TO\x1e/\xbc\x9c\x17\xc0\xd4\xad\xd9\xae\xc4\\\xa4I'
p106
ssS'_Library_Python_2_7_site-packages_django_db_backends_postgresql_psycopg2_version'
p107
(dp108
g6
(dp109
g8
S'_Library_Python_2_7_site-packages_django_db_backends_postgresql_psycopg2_version.html'
p110
sg10
S'/Library/Python/2.7/site-packages/django/db/backends/postgresql_psycopg2/version'
p111
sg12
g13
(g14
g15
NtRp112
(dp113
g18
I1
sg19
I0
sg20
I14
sg21
I0
sg22
I0
sg23
I8
sg24
I0
sbssg25
S'\xa8n\xb3&\xe2\xd0\x98\x7f\xee#\x05\x97\xa4\xb9\xf54'
p114
ssS'_Library_Python_2_7_site-packages_south_management_commands___init__'
p115
(dp116
g40
(dp117
g8
S'_Library_Python_2_7_site-packages_south_management_commands___init__.html'
p118
sg10
S'/Library/Python/2.7/site-packages/south/management/commands/__init__'
p119
sg12
g13
(g14
g15
NtRp120
(dp121
g18
I1
sg19
I0
sg20
I18
sg21
I0
sg22
I0
sg23
I1
sg24
I0
sbssg46
S'b&]\x8bu\x13\xcde\x13\xe0\xdc1\xc1\xe6B|'
p122
ssS'_Library_Python_2_7_site-packages_django_core_management_sql'
p123
(dp124
g40
(dp125
g8
S'_Library_Python_2_7_site-packages_django_core_management_sql.html'
p126
sg10
S'/Library/Python/2.7/site-packages/django/core/management/sql'
p127
sg12
g13
(g14
g15
NtRp128
(dp129
g18
I1
sg19
I0
sg20
I107
sg21
I0
sg22
I0
sg23
I76
sg24
I0
sbssg46
S'\xf7v;\xcd\x12\xa3\xdc\x13\x8a\x89\xe5l\xe3\xcc`\x9d'
p130
ssS'_Library_Python_2_7_site-packages_django_utils_log'
p131
(dp132
g6
(dp133
g51
S'_Library_Python_2_7_site-packages_django_utils_log.html'
p134
sg53
S'/Library/Python/2.7/site-packages/django/utils/log'
p135
sg55
g13
(g14
g15
NtRp136
(dp137
g18
I1
sg19
I0
sg20
I56
sg21
I0
sg22
I0
sg23
I32
sg24
I0
sbssg25
S'[\xb7U\xe3<\xd4\x88\x90wQ^\x06y%\xb8K'
p138
ssS'_Library_Python_2_7_site-packages_django_contrib_auth_hashers'
p139
(dp140
g40
(dp141
g8
S'_Library_Python_2_7_site-packages_django_contrib_auth_hashers.html'
p142
sg10
S'/Library/Python/2.7/site-packages/django/contrib/auth/hashers'
p143
sg12
g13
(g14
g15
NtRp144
(dp145
g18
I1
sg19
I0
sg20
I200
sg21
I0
sg22
I0
sg23
I134
sg24
I0
sbssg46
S':\x81\xf2h\xfaUD\xd8\xa9\xd3K\xbaz\xceY\xf6'
p146
ssS'_Library_Python_2_7_site-packages_django_test_simple'
p147
(dp148
g6
(dp149
S'html_filename'
p150
S'_Library_Python_2_7_site-packages_django_test_simple.html'
p151
sS'name'
p152
S'/Library/Python/2.7/site-packages/django/test/simple'
p153
sS'nums'
p154
g13
(g14
g15
NtRp155
(dp156
g18
I1
sg19
I0
sg20
I198
sg21
I0
sg22
I0
sg23
I72
sg24
I0
sbssg25
S'\x92\xa3\xaccV,\xdf\x8f.\xef\x96<\xe4i\xd6~'
p157
ssS'_Library_Python_2_7_site-packages_django_utils_tzinfo'
p158
(dp159
g6
(dp160
g51
S'_Library_Python_2_7_site-packages_django_utils_tzinfo.html'
p161
sg53
S'/Library/Python/2.7/site-packages/django/utils/tzinfo'
p162
sg55
g13
(g14
g15
NtRp163
(dp164
g18
I1
sg19
I0
sg20
I52
sg21
I0
sg22
I0
sg23
I34
sg24
I0
sbssg25
S'J\x85\xf4\xb5CA45\x13xif\xcd\x822M'
p165
ssS'_Library_Python_2_7_site-packages_south_management_commands_syncdb'
p166
(dp167
g40
(dp168
g8
S'_Library_Python_2_7_site-packages_south_management_commands_syncdb.html'
p169
sg10
S'/Library/Python/2.7/site-packages/south/management/commands/syncdb'
p170
sg12
g13
(g14
g15
NtRp171
(dp172
g18
I1
sg19
I0
sg20
I65
sg21
I0
sg22
I0
sg23
I13
sg24
I0
sbssg46
S'\r\xf5\n\xc4U-\x96X\xea]\xed\xf4-\xa0\xb5 '
p173
ssS'_Library_Python_2_7_site-packages_django_views_static'
p174
(dp175
g6
(dp176
g51
S'_Library_Python_2_7_site-packages_django_views_static.html'
p177
sg53
S'/Library/Python/2.7/site-packages/django/views/static'
p178
sg55
g13
(g14
g15
NtRp179
(dp180
g18
I1
sg19
I0
sg20
I74
sg21
I0
sg22
I0
sg23
I58
sg24
I0
sbssg25
S'\xc03WiA\xf43pq\xf8\xbc\x92?\xc6~\xa2'
p181
ssS'_Library_Python_2_7_site-packages_django_test_client'
p182
(dp183
g6
(dp184
g51
S'_Library_Python_2_7_site-packages_django_test_client.html'
p185
sg53
S'/Library/Python/2.7/site-packages/django/test/client'
p186
sg55
g13
(g14
g15
NtRp187
(dp188
g18
I1
sg19
I0
sg20
I260
sg21
I0
sg22
I0
sg23
I195
sg24
I0
sbssg25
S'O\xed`)\xcf.z\x08\x02\xa4\x82\x15f\x7f\x0e}'
p189
ssS'_Library_Python_2_7_site-packages_django_db_models_fields_proxy'
p190
(dp191
g6
(dp192
g51
S'_Library_Python_2_7_site-packages_django_db_models_fields_proxy.html'
p193
sg53
S'/Library/Python/2.7/site-packages/django/db/models/fields/proxy'
p194
sg55
g13
(g14
g15
NtRp195
(dp196
g18
I1
sg19
I0
sg20
I6
sg21
I0
sg22
I0
sg23
I3
sg24
I0
sbssg25
S'\xaf:\xd7\xa5\xadun\x1b\xb7\x141\x81\x80j\x94\xe6'
p197
ssS'_Library_Python_2_7_site-packages_django_utils_html'
p198
(dp199
g6
(dp200
g51
S'_Library_Python_2_7_site-packages_django_utils_html.html'
p201
sg53
S'/Library/Python/2.7/site-packages/django/utils/html'
p202
sg55
g13
(g14
g15
NtRp203
(dp204
g18
I1
sg19
I0
sg20
I133
sg21
I0
sg22
I0
sg23
I89
sg24
I0
sbssg25
S'\x16y \nh\x14<P\x87\x1b0\x11\xeeh]\xec'
p205
ssS'_Library_Python_2_7_site-packages_django_contrib_staticfiles_models'
p206
(dp207
g40
(dp208
g8
S'_Library_Python_2_7_site-packages_django_contrib_staticfiles_models.html'
p209
sg10
S'/Library/Python/2.7/site-packages/django/contrib/staticfiles/models'
p210
sg12
g13
(g14
g15
NtRp211
(dp212
g18
I1
sg19
I0
sg20
I0
sg21
I0
sg22
I0
sg23
I0
sg24
I0
sbssg46
S'\xb0\xc8pN\xaf>\xa0\xbaz\x144\xe0A9\xb8?'
p213
ssS'_Library_Python_2_7_site-packages_django___init__'
p214
(dp215
g6
(dp216
g51
S'_Library_Python_2_7_site-packages_django___init__.html'
p217
sg53
S'/Library/Python/2.7/site-packages/django/__init__'
p218
sg55
g13
(g14
g15
NtRp219
(dp220
g18
I1
sg19
I0
sg20
I18
sg21
I0
sg22
I0
sg23
I6
sg24
I0
sbssg25
S'\xf0\x13?\xd9\xba.\xecb\x02\xbc\xc7\x99)\xd7:\xea'
p221
ssS'_Library_Python_2_7_site-packages_django_db_backends_signals'
p222
(dp223
g6
(dp224
g51
S'_Library_Python_2_7_site-packages_django_db_backends_signals.html'
p225
sg53
S'/Library/Python/2.7/site-packages/django/db/backends/signals'
p226
sg55
g13
(g14
g15
NtRp227
(dp228
g18
I1
sg19
I0
sg20
I2
sg21
I0
sg22
I0
sg23
I0
sg24
I0
sbssg25
S'\xac\xe8\xc0\xe9\x8a\xd9d\xcc\x03\xc1\x89\xd4\xde\xa8x<'
p229
ssS'_Library_Python_2_7_site-packages_django_utils_datetime_safe'
p230
(dp231
g6
(dp232
g51
S'_Library_Python_2_7_site-packages_django_utils_datetime_safe.html'
p233
sg53
S'/Library/Python/2.7/site-packages/django/utils/datetime_safe'
p234
sg55
g13
(g14
g15
NtRp235
(dp236
g18
I1
sg19
I0
sg20
I56
sg21
I0
sg22
I0
sg23
I42
sg24
I0
sbssg25
S'\xcf\x16v\x83I\x1c\x906G\x91=\xec\x94\xfdf\xbe'
p237
ssS'_Library_Python_2_7_site-packages_django_http___init__'
p238
(dp239
g6
(dp240
g8
S'_Library_Python_2_7_site-packages_django_http___init__.html'
p241
sg10
S'/Library/Python/2.7/site-packages/django/http/__init__'
p242
sg12
g13
(g14
g15
NtRp243
(dp244
g18
I1
sg19
I0
sg20
I496
sg21
I0
sg22
I0
sg23
I316
sg24
I0
sbssg25
S'\xfe\x98v\xc5\xc6C\xa0:a\xcc\xd2oF\xbcy\x9a'
p245
ssS'_Library_Python_2_7_site-packages_django_utils_simplejson___init__'
p246
(dp247
g6
(dp248
g51
S'_Library_Python_2_7_site-packages_django_utils_simplejson___init__.html'
p249
sg53
S'/Library/Python/2.7/site-packages/django/utils/simplejson/__init__'
p250
sg55
g13
(g14
g15
NtRp251
(dp252
g18
I1
sg19
I0
sg20
I54
sg21
I0
sg22
I0
sg23
I39
sg24
I0
sbssg25
S"\xe5$x;'\x91@\x12\x06\xab)\x0c\x93\xca\xbde"
p253
ssS'_Library_Python_2_7_site-packages_django_core_management_commands_flush'
p254
(dp255
g40
(dp256
g8
S'_Library_Python_2_7_site-packages_django_core_management_commands_flush.html'
p257
sg10
S'/Library/Python/2.7/site-packages/django/core/management/commands/flush'
p258
sg12
g13
(g14
g15
NtRp259
(dp260
g18
I1
sg19
I0
sg20
I43
sg21
I0
sg22
I0
sg23
I31
sg24
I0
sbssg46
S'#jK\xce\x08\xd5\x8a\x8b\xac\xc6\x8c\x97\rC\xe0\x08'
p261
ssS'_Library_Python_2_7_site-packages_django_core_management_commands_syncdb'
p262
(dp263
g40
(dp264
g8
S'_Library_Python_2_7_site-packages_django_core_management_commands_syncdb.html'
p265
sg10
S'/Library/Python/2.7/site-packages/django/core/management/commands/syncdb'
p266
sg12
g13
(g14
g15
NtRp267
(dp268
g18
I1
sg19
I0
sg20
I100
sg21
I0
sg22
I0
sg23
I25
sg24
I0
sbssg46
S'\x8b.\xe7\xcb\xf35\xd5\xb0\xef/\xd5w\xc3\xf4I\xe9'
p269
ssS'_Library_Python_2_7_site-packages_django_contrib_admin_forms'
p270
(dp271
g40
(dp272
g8
S'_Library_Python_2_7_site-packages_django_contrib_admin_forms.html'
p273
sg10
S'/Library/Python/2.7/site-packages/django/contrib/admin/forms'
p274
sg12
g13
(g14
g15
NtRp275
(dp276
g18
I1
sg19
I0
sg20
I27
sg21
I0
sg22
I0
sg23
I18
sg24
I0
sbssg46
S'\xde\xbf\x04\xd5\xeb\xcbdH\xcc\x8d\xbb\n\xcd\xd1\xa0\x98'
p277
ssS'_Library_Python_2_7_site-packages_django_db_backends___init__'
p278
(dp279
g6
(dp280
g8
S'_Library_Python_2_7_site-packages_django_db_backends___init__.html'
p281
sg10
S'/Library/Python/2.7/site-packages/django/db/backends/__init__'
p282
sg12
g13
(g14
g15
NtRp283
(dp284
g18
I1
sg19
I0
sg20
I428
sg21
I0
sg22
I0
sg23
I166
sg24
I0
sbssg25
S'\xc6\xcf=Y\xc1\xd5\xad V8\xf4\xd8M\x04s\x97'
p285
ssS'_Library_Python_2_7_site-packages_django_utils___init__'
p286
(dp287
g6
(dp288
g51
S'_Library_Python_2_7_site-packages_django_utils___init__.html'
p289
sg53
S'/Library/Python/2.7/site-packages/django/utils/__init__'
p290
sg55
g13
(g14
g15
NtRp291
(dp292
g18
I1
sg19
I0
sg20
I0
sg21
I0
sg22
I0
sg23
I0
sg24
I0
sbssg25
S'\xb0\xc8pN\xaf>\xa0\xbaz\x144\xe0A9\xb8?'
p293
ssS'_Library_Python_2_7_site-packages_django_utils_timezone'
p294
(dp295
g6
(dp296
g8
S'_Library_Python_2_7_site-packages_django_utils_timezone.html'
p297
sg10
S'/Library/Python/2.7/site-packages/django/utils/timezone'
p298
sg12
g13
(g14
g15
NtRp299
(dp300
g18
I1
sg19
I0
sg20
I110
sg21
I0
sg22
I0
sg23
I63
sg24
I0
sbssg25
S'b\x8f\xd3fy\xd8\xd9\xd8\xc5d6\x00\xa3e\xdf\xac'
p301
ssS'_Library_Python_2_7_site-packages_django_core_files_utils'
p302
(dp303
g6
(dp304
g51
S'_Library_Python_2_7_site-packages_django_core_files_utils.html'
p305
sg53
S'/Library/Python/2.7/site-packages/django/core/files/utils'
p306
sg55
g13
(g14
g15
NtRp307
(dp308
g18
I1
sg19
I0
sg20
I19
sg21
I0
sg22
I0
sg23
I1
sg24
I0
sbssg25
S'\x91@)\xe4(\x81\xd6\xb8\x9b\x16\xc4\xeeh\x11e\xff'
p309
ssS'_Library_Python_2_7_site-packages_django_db_models_options'
p310
(dp311
g6
(dp312
S'html_filename'
p313
S'_Library_Python_2_7_site-packages_django_db_models_options.html'
p314
sS'name'
p315
S'/Library/Python/2.7/site-packages/django/db/models/options'
p316
sS'nums'
p317
g13
(g14
g15
NtRp318
(dp319
g18
I1
sg19
I0
sg20
I319
sg21
I0
sg22
I0
sg23
I84
sg24
I0
sbssg25
S'\xb1\x18\xee\x00\x1a\xb9<3B\x12\xd2\xd3\x19D+\xa4'
p320
ssS'_Library_Python_2_7_site-packages_django_db_models_sql_query'
p321
(dp322
g6
(dp323
g313
S'_Library_Python_2_7_site-packages_django_db_models_sql_query.html'
p324
sg315
S'/Library/Python/2.7/site-packages/django/db/models/sql/query'
p325
sg317
g13
(g14
g15
NtRp326
(dp327
g18
I1
sg19
I0
sg20
I1041
sg21
I0
sg22
I0
sg23
I577
sg24
I0
sbssg25
S'\xc3ug8Wl\xa0ws\xdfwm~{\x1cR'
p328
ssS'_Library_Python_2_7_site-packages_django_db_backends_util'
p329
(dp330
g6
(dp331
g8
S'_Library_Python_2_7_site-packages_django_db_backends_util.html'
p332
sg10
S'/Library/Python/2.7/site-packages/django/db/backends/util'
p333
sg12
g13
(g14
g15
NtRp334
(dp335
g18
I1
sg19
I0
sg20
I93
sg21
I0
sg22
I0
sg23
I62
sg24
I0
sbssg25
S'\x9cGE\xe0r\xef]p\x05\xd5K\xd6\x92j\x90\x9d'
p336
ssS'_Library_Python_2_7_site-packages_south___init__'
p337
(dp338
g40
(dp339
g8
S'_Library_Python_2_7_site-packages_south___init__.html'
p340
sg10
S'/Library/Python/2.7/site-packages/south/__init__'
p341
sg12
g13
(g14
g15
NtRp342
(dp343
g18
I1
sg19
I0
sg20
I2
sg21
I0
sg22
I0
sg23
I0
sg24
I0
sbssg46
S'2P\xd7RK.\x97\xb6\xc8\xb4\xc183\x03\xb2\x13'
p344
ssS'_Library_Python_2_7_site-packages_django_db_models_sql_where'
p345
(dp346
g6
(dp347
g8
S'_Library_Python_2_7_site-packages_django_db_models_sql_where.html'
p348
sg10
S'/Library/Python/2.7/site-packages/django/db/models/sql/where'
p349
sg12
g13
(g14
g15
NtRp350
(dp351
g18
I1
sg19
I0
sg20
I198
sg21
I0
sg22
I0
sg23
I84
sg24
I0
sbssg25
S'E\xec\x84\xdf\xd2vAu\x19\x01g\xd7\xb1H\xf1\x8e'
p352
ssS'_Library_Python_2_7_site-packages_django_template_base'
p353
(dp354
g6
(dp355
g8
S'_Library_Python_2_7_site-packages_django_template_base.html'
p356
sg10
S'/Library/Python/2.7/site-packages/django/template/base'
p357
sg12
g13
(g14
g15
NtRp358
(dp359
g18
I1
sg19
I0
sg20
I770
sg21
I0
sg22
I0
sg23
I557
sg24
I0
sbssg25
S'\xe3\x8b\xabY\x12\xaa\xad\xea\x89t\xb4o+f\x05\x15'
p360
ssS'_Library_Python_2_7_site-packages_django_utils_timesince'
p361
(dp362
g6
(dp363
g51
S'_Library_Python_2_7_site-packages_django_utils_timesince.html'
p364
sg53
S'/Library/Python/2.7/site-packages/django/utils/timesince'
p365
sg55
g13
(g14
g15
NtRp366
(dp367
g18
I1
sg19
I0
sg20
I28
sg21
I0
sg22
I0
sg23
I23
sg24
I0
sbssg25
S'\xfd1-5\xb5\xd0-~\xd5u\xc2\xb4/\xe6"0'
p368
ssS'_Library_Python_2_7_site-packages_django_forms_widgets'
p369
(dp370
g6
(dp371
g8
S'_Library_Python_2_7_site-packages_django_forms_widgets.html'
p372
sg10
S'/Library/Python/2.7/site-packages/django/forms/widgets'
p373
sg12
g13
(g14
g15
NtRp374
(dp375
g18
I1
sg19
I0
sg20
I559
sg21
I0
sg22
I0
sg23
I381
sg24
I0
sbssg25
S'D\xb0[]\x8a\x00\x86\xc8\xfe\xa2\x0f\x92\x9e\x8d\x8b3'
p376
ssS'_Library_Python_2_7_site-packages_django_core_mail_backends_base'
p377
(dp378
S'index'
p379
(dp380
S'html_filename'
p381
S'_Library_Python_2_7_site-packages_django_core_mail_backends_base.html'
p382
sS'name'
p383
S'/Library/Python/2.7/site-packages/django/core/mail/backends/base'
p384
sS'nums'
p385
g13
(g14
g15
NtRp386
(dp387
g18
I1
sg19
I0
sg20
I9
sg21
I0
sg22
I0
sg23
I3
sg24
I0
sbssS'hash'
p388
S'\xa8\x17\x18B\xfa\x01\xff\x94\xdd\xbb\xd5<\x91\x11s\xb3'
p389
ssS'_Library_Python_2_7_site-packages_django_contrib_sites_models'
p390
(dp391
g40
(dp392
g8
S'_Library_Python_2_7_site-packages_django_contrib_sites_models.html'
p393
sg10
S'/Library/Python/2.7/site-packages/django/contrib/sites/models'
p394
sg12
g13
(g14
g15
NtRp395
(dp396
g18
I1
sg19
I0
sg20
I55
sg21
I0
sg22
I0
sg23
I28
sg24
I0
sbssg46
S"\xea\x872\xf1'e3H\x04\xc9\x8d\x18;WZg"
p397
ssS'_Library_Python_2_7_site-packages_django_db_models_signals'
p398
(dp399
g6
(dp400
g51
S'_Library_Python_2_7_site-packages_django_db_models_signals.html'
p401
sg53
S'/Library/Python/2.7/site-packages/django/db/models/signals'
p402
sg55
g13
(g14
g15
NtRp403
(dp404
g18
I1
sg19
I0
sg20
I10
sg21
I0
sg22
I0
sg23
I0
sg24
I0
sbssg25
S'\xe2\x06\xfb\xdd\xac\xd4\xb2\xf8\\\x98T_\xb1W-\x19'
p405
ssS'_Library_Python_2_7_site-packages_django_utils_cache'
p406
(dp407
g40
(dp408
g8
S'_Library_Python_2_7_site-packages_django_utils_cache.html'
p409
sg10
S'/Library/Python/2.7/site-packages/django/utils/cache'
p410
sg12
g13
(g14
g15
NtRp411
(dp412
g18
I1
sg19
I0
sg20
I124
sg21
I0
sg22
I0
sg23
I101
sg24
I0
sbssg46
S'qc4\xc9\x18\xe4\x19"D\x96\xf9\x19\x0e\xac\xe3\xea'
p413
ssS'_Library_Python_2_7_site-packages_django_core_cache___init__'
p414
(dp415
g6
(dp416
g51
S'_Library_Python_2_7_site-packages_django_core_cache___init__.html'
p417
sg53
S'/Library/Python/2.7/site-packages/django/core/cache/__init__'
p418
sg55
g13
(g14
g15
NtRp419
(dp420
g18
I1
sg19
I0
sg20
I83
sg21
I0
sg22
I0
sg23
I29
sg24
I0
sbssg25
S'\x03J\xd1\xea9s5\xa2\x1c\xd2\x9d|J\xbeu\xb9'
p421
ssS'_Library_Python_2_7_site-packages_django_dispatch_saferef'
p422
(dp423
g6
(dp424
g51
S'_Library_Python_2_7_site-packages_django_dispatch_saferef.html'
p425
sg53
S'/Library/Python/2.7/site-packages/django/dispatch/saferef'
p426
sg55
g13
(g14
g15
NtRp427
(dp428
g18
I1
sg19
I0
sg20
I80
sg21
I0
sg22
I0
sg23
I59
sg24
I0
sbssg25
S'\xb8\xa2)1-\x80o\x8bm\x1e\x0bO\xe5\x12*\xd8'
p429
ssS'_Library_Python_2_7_site-packages_django_conf___init__'
p430
(dp431
g6
(dp432
g51
S'_Library_Python_2_7_site-packages_django_conf___init__.html'
p433
sg53
S'/Library/Python/2.7/site-packages/django/conf/__init__'
p434
sg55
g13
(g14
g15
NtRp435
(dp436
g18
I1
sg19
I0
sg20
I85
sg21
I0
sg22
I0
sg23
I28
sg24
I0
sbssg25
S'\xde\x01%5C\xac\xc9\xac\xb3\x10T\x7f`\xf7,r'
p437
ssS'_Library_Python_2_7_site-packages_south_migration_base'
p438
(dp439
g40
(dp440
g8
S'_Library_Python_2_7_site-packages_south_migration_base.html'
p441
sg10
S'/Library/Python/2.7/site-packages/south/migration/base'
p442
sg12
g13
(g14
g15
NtRp443
(dp444
g18
I1
sg19
I0
sg20
I274
sg21
I0
sg22
I0
sg23
I167
sg24
I0
sbssg46
S'\xd1\xc0z\xbd\xb1;=\x0b\xe8\x96\xfbSeL\xab\x0e'
p445
ssS'_Library_Python_2_7_site-packages_django_core_files_move'
p446
(dp447
g6
(dp448
g51
S'_Library_Python_2_7_site-packages_django_core_files_move.html'
p449
sg53
S'/Library/Python/2.7/site-packages/django/core/files/move'
p450
sg55
g13
(g14
g15
NtRp451
(dp452
g18
I1
sg19
I0
sg20
I47
sg21
I0
sg22
I0
sg23
I40
sg24
I0
sbssg25
S'y\\\xb7\x8a\xe3\xc5u\x9bK\xa2(CK\x07Q\x90'
p453
ssS'_Library_Python_2_7_site-packages_django_test__doctest'
p454
(dp455
g6
(dp456
g150
S'_Library_Python_2_7_site-packages_django_test__doctest.html'
p457
sg152
S'/Library/Python/2.7/site-packages/django/test/_doctest'
p458
sg154
g13
(g14
g15
NtRp459
(dp460
g18
I1
sg19
I0
sg20
I896
sg21
I0
sg22
I0
sg23
I753
sg24
I0
sbssg25
S'kv{\xa3w\xeb\x05&\xc6\xc6\xecEb\x90\x00\xf9'
p461
ssS'_Library_Python_2_7_site-packages_django_template___init__'
p462
(dp463
g6
(dp464
g51
S'_Library_Python_2_7_site-packages_django_template___init__.html'
p465
sg53
S'/Library/Python/2.7/site-packages/django/template/__init__'
p466
sg55
g13
(g14
g15
NtRp467
(dp468
g18
I1
sg19
I0
sg20
I6
sg21
I0
sg22
I0
sg23
I0
sg24
I0
sbssg25
S'\xb6\xa0l\x13\xa8q\x87\r\xa8\xea\xdd\x99\xef\xf5k\xd3'
p469
ssS'_Library_Python_2_7_site-packages_django_middleware_cache'
p470
(dp471
g40
(dp472
g8
S'_Library_Python_2_7_site-packages_django_middleware_cache.html'
p473
sg10
S'/Library/Python/2.7/site-packages/django/middleware/cache'
p474
sg12
g13
(g14
g15
NtRp475
(dp476
g18
I1
sg19
I0
sg20
I91
sg21
I0
sg22
I0
sg23
I78
sg24
I0
sbssg46
S'j\xd2\xba\xdeY|T\xd2\xe2\x10\x1c\x7f\xe4m\x0c\x02'
p477
ssS'_Library_Python_2_7_site-packages_django_forms_util'
p478
(dp479
g6
(dp480
g51
S'_Library_Python_2_7_site-packages_django_forms_util.html'
p481
sg53
S'/Library/Python/2.7/site-packages/django/forms/util'
p482
sg55
g13
(g14
g15
NtRp483
(dp484
g18
I1
sg19
I0
sg20
I41
sg21
I0
sg22
I0
sg23
I22
sg24
I0
sbssg25
S'\xd5\xdd\xf1\x0c1\x8a\rz"\xf1\xc5\'q\xb3EH'
p485
ssS'_Library_Python_2_7_site-packages_django_utils_termcolors'
p486
(dp487
g6
(dp488
g51
S'_Library_Python_2_7_site-packages_django_utils_termcolors.html'
p489
sg53
S'/Library/Python/2.7/site-packages/django/utils/termcolors'
p490
sg55
g13
(g14
g15
NtRp491
(dp492
g18
I1
sg19
I0
sg20
I56
sg21
I0
sg22
I0
sg23
I40
sg24
I0
sbssg25
S')\xd7\xec/\xe0)\xeb\xed\xa3\\\xca\xca\xc8aI\xa8'
p493
ssS'_Library_Python_2_7_site-packages_django_contrib_sites___init__'
p494
(dp495
g40
(dp496
g8
S'_Library_Python_2_7_site-packages_django_contrib_sites___init__.html'
p497
sg10
S'/Library/Python/2.7/site-packages/django/contrib/sites/__init__'
p498
sg12
g13
(g14
g15
NtRp499
(dp500
g18
I1
sg19
I0
sg20
I0
sg21
I0
sg22
I0
sg23
I0
sg24
I0
sbssg46
S'\xb0\xc8pN\xaf>\xa0\xbaz\x144\xe0A9\xb8?'
p501
ssS'_Library_Python_2_7_site-packages_django_contrib_admin_widgets'
p502
(dp503
g40
(dp504
g8
S'_Library_Python_2_7_site-packages_django_contrib_admin_widgets.html'
p505
sg10
S'/Library/Python/2.7/site-packages/django/contrib/admin/widgets'
p506
sg12
g13
(g14
g15
NtRp507
(dp508
g18
I1
sg19
I0
sg20
I211
sg21
I0
sg22
I0
sg23
I148
sg24
I0
sbssg46
S'\xd8:v\xfea\x15\xe1\x01B\x8b\x16\x81\xff\xc7Q\x13'
p509
ssS'_Library_Python_2_7_site-packages_django_utils_baseconv'
p510
(dp511
g6
(dp512
g51
S'_Library_Python_2_7_site-packages_django_utils_baseconv.html'
p513
sg53
S'/Library/Python/2.7/site-packages/django/utils/baseconv'
p514
sg55
g13
(g14
g15
NtRp515
(dp516
g18
I1
sg19
I0
sg20
I48
sg21
I0
sg22
I0
sg23
I25
sg24
I0
sbssg25
S'1\xe8\xf6U\x98C\xe4\x99\x17*\xe3\xe1\x86\xeej\x0b'
p517
ssS'_Library_Python_2_7_site-packages_django_db___init__'
p518
(dp519
g6
(dp520
g51
S'_Library_Python_2_7_site-packages_django_db___init__.html'
p521
sg53
S'/Library/Python/2.7/site-packages/django/db/__init__'
p522
sg55
g13
(g14
g15
NtRp523
(dp524
g18
I1
sg19
I0
sg20
I32
sg21
I0
sg22
I0
sg23
I12
sg24
I0
sbssg25
S'\xbf\x07\xee\x9b\xb06\xa4@\xc5H\xcf\xed&\xbf\xc7\xd2'
p525
ssS'_Library_Python_2_7_site-packages_django_utils_functional'
p526
(dp527
g6
(dp528
g8
S'_Library_Python_2_7_site-packages_django_utils_functional.html'
p529
sg10
S'/Library/Python/2.7/site-packages/django/utils/functional'
p530
sg12
g13
(g14
g15
NtRp531
(dp532
g18
I1
sg19
I0
sg20
I168
sg21
I0
sg22
I0
sg23
I67
sg24
I0
sbssg25
S'\xcd\xf6c\x16\xb0\x06b\xb1\x95\xe3\xeb^\x807\xf3/'
p533
ssS'carpoolapp_views'
p534
(dp535
g40
(dp536
g313
S'carpoolapp_views.html'
p537
sg315
S'carpoolapp/views'
p538
sg317
g13
(g14
g15
NtRp539
(dp540
g18
I1
sg19
I0
sg20
I773
sg21
I0
sg22
I0
sg23
I202
sg24
I0
sbssg46
S'\xb2M\x0cE\x01\xe3\x10\x96\xa0J\xdc\xf9\x0f\xa8\x99\x17'
p541
ssS'_Library_Python_2_7_site-packages_django_views_debug'
p542
(dp543
g6
(dp544
g51
S'_Library_Python_2_7_site-packages_django_views_debug.html'
p545
sg53
S'/Library/Python/2.7/site-packages/django/views/debug'
p546
sg55
g13
(g14
g15
NtRp547
(dp548
g18
I1
sg19
I0
sg20
I274
sg21
I0
sg22
I0
sg23
I230
sg24
I0
sbssg25
S'E\x1f\x8e\xc1[\xc0\xa1\xf0{\xa5;G!T\xff\x9f'
p549
ssS'_Library_Python_2_7_site-packages_django_forms_fields'
p550
(dp551
g6
(dp552
g8
S'_Library_Python_2_7_site-packages_django_forms_fields.html'
p553
sg10
S'/Library/Python/2.7/site-packages/django/forms/fields'
p554
sg12
g13
(g14
g15
NtRp555
(dp556
g18
I1
sg19
I0
sg20
I585
sg21
I0
sg22
I0
sg23
I381
sg24
I0
sbssg25
S'^\xd0-\x02o\xb8\x1d\xa2n;<\x87\x1c"V\xb5'
p557
ssS'_Library_Python_2_7_site-packages_django_contrib_contenttypes___init__'
p558
(dp559
g40
(dp560
g8
S'_Library_Python_2_7_site-packages_django_contrib_contenttypes___init__.html'
p561
sg10
S'/Library/Python/2.7/site-packages/django/contrib/contenttypes/__init__'
p562
sg12
g13
(g14
g15
NtRp563
(dp564
g18
I1
sg19
I0
sg20
I0
sg21
I0
sg22
I0
sg23
I0
sg24
I0
sbssg46
S'\xb0\xc8pN\xaf>\xa0\xbaz\x144\xe0A9\xb8?'
p565
ssS'_Library_Python_2_7_site-packages_django_forms_models'
p566
(dp567
g6
(dp568
g8
S'_Library_Python_2_7_site-packages_django_forms_models.html'
p569
sg10
S'/Library/Python/2.7/site-packages/django/forms/models'
p570
sg12
g13
(g14
g15
NtRp571
(dp572
g18
I1
sg19
I0
sg20
I584
sg21
I0
sg22
I0
sg23
I432
sg24
I0
sbssg25
S'Y\x10\x19\xdb\xc87\xc9\nq\x81\xd2i\xaa\x90S\x1e'
p573
ssS'_Library_Python_2_7_site-packages_django_db_models_deletion'
p574
(dp575
g6
(dp576
g8
S'_Library_Python_2_7_site-packages_django_db_models_deletion.html'
p577
sg10
S'/Library/Python/2.7/site-packages/django/db/models/deletion'
p578
sg12
g13
(g14
g15
NtRp579
(dp580
g18
I1
sg19
I0
sg20
I146
sg21
I0
sg22
I0
sg23
I48
sg24
I0
sbssg25
S'O\xa9\xe8F\xedG\xb0\x88\xf2XJ\x88R\xbc.!'
p581
ssS'manage'
p582
(dp583
g6
(dp584
g51
S'manage.html'
p585
sg53
g582
sg55
g13
(g14
g15
NtRp586
(dp587
g18
I1
sg19
I0
sg20
I6
sg21
I0
sg22
I0
sg23
I0
sg24
I0
sbssg25
S'\x80\x94\xf5\xd5\x11\x194\xbd$\xa6%\xe1e\x0c\x17\x15'
p588
ssS'_Library_Python_2_7_site-packages_django_contrib_auth_forms'
p589
(dp590
g40
(dp591
g8
S'_Library_Python_2_7_site-packages_django_contrib_auth_forms.html'
p592
sg10
S'/Library/Python/2.7/site-packages/django/contrib/auth/forms'
p593
sg12
g13
(g14
g15
NtRp594
(dp595
g18
I1
sg19
I0
sg20
I175
sg21
I0
sg22
I0
sg23
I103
sg24
I0
sbssg46
S'\x91\xff\xe6\xf0u\x92\x88\\a\xd6fR\xb5\xf8,E'
p596
ssS'_Library_Python_2_7_site-packages_django_contrib_admin_templatetags___init__'
p597
(dp598
g40
(dp599
g8
S'_Library_Python_2_7_site-packages_django_contrib_admin_templatetags___init__.html'
p600
sg10
S'/Library/Python/2.7/site-packages/django/contrib/admin/templatetags/__init__'
p601
sg12
g13
(g14
g15
NtRp602
(dp603
g18
I1
sg19
I0
sg20
I0
sg21
I0
sg22
I0
sg23
I0
sg24
I0
sbssg46
S'\xb0\xc8pN\xaf>\xa0\xbaz\x144\xe0A9\xb8?'
p604
ssS'_Library_Python_2_7_site-packages_django_contrib_admin___init__'
p605
(dp606
g40
(dp607
g8
S'_Library_Python_2_7_site-packages_django_contrib_admin___init__.html'
p608
sg10
S'/Library/Python/2.7/site-packages/django/contrib/admin/__init__'
p609
sg12
g13
(g14
g15
NtRp610
(dp611
g18
I1
sg19
I0
sg20
I19
sg21
I0
sg22
I0
sg23
I13
sg24
I0
sbssg46
S'yXLFz\xa7\xfe#\x11\xea+\xc9\x1dR"\xfc'
p612
ssS'_Library_Python_2_7_site-packages_south_logger'
p613
(dp614
g40
(dp615
g8
S'_Library_Python_2_7_site-packages_south_logger.html'
p616
sg10
S'/Library/Python/2.7/site-packages/south/logger'
p617
sg12
g13
(g14
g15
NtRp618
(dp619
g18
I1
sg19
I0
sg20
I26
sg21
I0
sg22
I0
sg23
I14
sg24
I0
sbssg46
S'\xbdZM{\x9f\xd1\xfe\xb2\xa9D\xf0\xe2c,\xdf\xee'
p620
ssS'_Library_Python_2_7_site-packages_django_utils_text'
p621
(dp622
g6
(dp623
g51
S'_Library_Python_2_7_site-packages_django_utils_text.html'
p624
sg53
S'/Library/Python/2.7/site-packages/django/utils/text'
p625
sg55
g13
(g14
g15
NtRp626
(dp627
g18
I1
sg19
I0
sg20
I210
sg21
I0
sg22
I0
sg23
I158
sg24
I0
sbssg25
S'\'\x8f\xf8?\xbc\xc41"\xb0\x17\x14V"\x98\x1a\x8e'
p628
ssS'_Library_Python_2_7_site-packages_django_core_signals'
p629
(dp630
g6
(dp631
g51
S'_Library_Python_2_7_site-packages_django_core_signals.html'
p632
sg53
S'/Library/Python/2.7/site-packages/django/core/signals'
p633
sg55
g13
(g14
g15
NtRp634
(dp635
g18
I1
sg19
I0
sg20
I4
sg21
I0
sg22
I0
sg23
I0
sg24
I0
sbssg25
S'\xa8\x92\x82\x13=\x82/\x06\xba\xb2\xa6\xad\xc4o\x81\xc2'
p636
ssS'_Library_Python_2_7_site-packages_django_template_loader_tags'
p637
(dp638
g6
(dp639
g51
S'_Library_Python_2_7_site-packages_django_template_loader_tags.html'
p640
sg53
S'/Library/Python/2.7/site-packages/django/template/loader_tags'
p641
sg55
g13
(g14
g15
NtRp642
(dp643
g18
I1
sg19
I0
sg20
I177
sg21
I0
sg22
I0
sg23
I140
sg24
I0
sbssg25
S'+\x06\xf7\x8aT\x17\x9c\xfcr\x06&\x07\xe8a\t\xc5'
p644
ssS'carpoolapp_testLib'
p645
(dp646
g40
(dp647
S'html_filename'
p648
S'carpoolapp_testLib.html'
p649
sS'name'
p650
S'carpoolapp/testLib'
p651
sS'nums'
p652
g13
(g14
g15
NtRp653
(dp654
g18
I1
sg19
I0
sg20
I86
sg21
I0
sg22
I0
sg23
I43
sg24
I0
sbssg46
S'\xdf,\xa3\x10\xae\x7f\x92\\\xd5\xa5\xdc\x08\xe9*\x98\xa1'
p655
ssS'carpool___init__'
p656
(dp657
g6
(dp658
g51
S'carpool___init__.html'
p659
sg53
S'carpool/__init__'
p660
sg55
g13
(g14
g15
NtRp661
(dp662
g18
I1
sg19
I0
sg20
I0
sg21
I0
sg22
I0
sg23
I0
sg24
I0
sbssg25
S'\xb0\xc8pN\xaf>\xa0\xbaz\x144\xe0A9\xb8?'
p663
ssS'_Library_Python_2_7_site-packages_django_core_management___init__'
p664
(dp665
g6
(dp666
g8
S'_Library_Python_2_7_site-packages_django_core_management___init__.html'
p667
sg10
S'/Library/Python/2.7/site-packages/django/core/management/__init__'
p668
sg12
g13
(g14
g15
NtRp669
(dp670
g18
I1
sg19
I0
sg20
I203
sg21
I0
sg22
I0
sg23
I99
sg24
I0
sbssg25
S'\x92k\xdb\x99\x1b;\xc8c\xc3j\x14\x8b\xa6\xb2\xda\xac'
p671
ssS'_Library_Python_2_7_site-packages_django_utils_tree'
p672
(dp673
g6
(dp674
g8
S'_Library_Python_2_7_site-packages_django_utils_tree.html'
p675
sg10
S'/Library/Python/2.7/site-packages/django/utils/tree'
p676
sg12
g13
(g14
g15
NtRp677
(dp678
g18
I1
sg19
I0
sg20
I62
sg21
I0
sg22
I0
sg23
I18
sg24
I0
sbssg25
S'5I\xa85\xa0#Y\x00\xce\xe3\xc4\xb0=7\xaa\x8c'
p679
ssS'_Library_Python_2_7_site-packages_django_db_models_sql___init__'
p680
(dp681
g6
(dp682
g51
S'_Library_Python_2_7_site-packages_django_db_models_sql___init__.html'
p683
sg53
S'/Library/Python/2.7/site-packages/django/db/models/sql/__init__'
p684
sg55
g13
(g14
g15
NtRp685
(dp686
g18
I1
sg19
I0
sg20
I6
sg21
I0
sg22
I0
sg23
I0
sg24
I0
sbssg25
S'\xea\xf8\xff\x94\xe8\x06\xd7@N\x8e\xb9\x9b)&=f'
p687
ssS'_Library_Python_2_7_site-packages_django_forms_formsets'
p688
(dp689
g6
(dp690
g51
S'_Library_Python_2_7_site-packages_django_forms_formsets.html'
p691
sg53
S'/Library/Python/2.7/site-packages/django/forms/formsets'
p692
sg55
g13
(g14
g15
NtRp693
(dp694
g18
I1
sg19
I0
sg20
I216
sg21
I0
sg22
I0
sg23
I155
sg24
I0
sbssg25
S'U]O\xd9_\xeb\n<EfSe\xd0b\x17\xfd'
p695
ssS'_Library_Python_2_7_site-packages_django_contrib_messages_constants'
p696
(dp697
g40
(dp698
g8
S'_Library_Python_2_7_site-packages_django_contrib_messages_constants.html'
p699
sg10
S'/Library/Python/2.7/site-packages/django/contrib/messages/constants'
p700
sg12
g13
(g14
g15
NtRp701
(dp702
g18
I1
sg19
I0
sg20
I6
sg21
I0
sg22
I0
sg23
I0
sg24
I0
sbssg46
S'\xe2n\xbf/\x11\x9a\xf2\xc6\xa4\x8f~\xd2\x91y\xd4\xda'
p703
ssS'_Library_Python_2_7_site-packages_django_core___init__'
p704
(dp705
g6
(dp706
g51
S'_Library_Python_2_7_site-packages_django_core___init__.html'
p707
sg53
S'/Library/Python/2.7/site-packages/django/core/__init__'
p708
sg55
g13
(g14
g15
NtRp709
(dp710
g18
I1
sg19
I0
sg20
I0
sg21
I0
sg22
I0
sg23
I0
sg24
I0
sbssg25
S'\xb0\xc8pN\xaf>\xa0\xbaz\x144\xe0A9\xb8?'
p711
ssS'_Library_Python_2_7_site-packages_django_contrib_auth___init__'
p712
(dp713
g6
(dp714
g51
S'_Library_Python_2_7_site-packages_django_contrib_auth___init__.html'
p715
sg53
S'/Library/Python/2.7/site-packages/django/contrib/auth/__init__'
p716
sg55
g13
(g14
g15
NtRp717
(dp718
g18
I1
sg19
I0
sg20
I73
sg21
I0
sg22
I0
sg23
I60
sg24
I0
sbssg25
S'B_M\x9d\x87\xec\xba\x84W\x9b\xf6\x96\xf9oC\x9c'
p719
ssS'_Library_Python_2_7_site-packages_django_test_utils'
p720
(dp721
g6
(dp722
g8
S'_Library_Python_2_7_site-packages_django_test_utils.html'
p723
sg10
S'/Library/Python/2.7/site-packages/django/test/utils'
p724
sg12
g13
(g14
g15
NtRp725
(dp726
g18
I1
sg19
I0
sg20
I121
sg21
I0
sg22
I0
sg23
I69
sg24
I0
sbssg25
S'H\xee\x01\x07}\xa41T\xf8t\xe0\r\x00\xba{\xad'
p727
ssS'_Library_Python_2_7_site-packages_south_utils___init__'
p728
(dp729
g40
(dp730
g8
S'_Library_Python_2_7_site-packages_south_utils___init__.html'
p731
sg10
S'/Library/Python/2.7/site-packages/south/utils/__init__'
p732
sg12
g13
(g14
g15
NtRp733
(dp734
g18
I1
sg19
I0
sg20
I38
sg21
I0
sg22
I0
sg23
I12
sg24
I0
sbssg46
S'[\\A\x96\xa4!\x1c\x83Uf\xdd\x08H\x10g\xca'
p735
ssS'_Library_Python_2_7_site-packages_django_test_html'
p736
(dp737
g6
(dp738
g51
S'_Library_Python_2_7_site-packages_django_test_html.html'
p739
sg53
S'/Library/Python/2.7/site-packages/django/test/html'
p740
sg55
g13
(g14
g15
NtRp741
(dp742
g18
I1
sg19
I0
sg20
I160
sg21
I0
sg22
I0
sg23
I126
sg24
I0
sbssg25
S'\x94\x99a\xaf\xa6\x83\xd3\xab\xe4\xc2h`$\xab\xde\xbb'
p743
ssS'_Library_Python_2_7_site-packages_django_core_cache_backends_locmem'
p744
(dp745
g6
(dp746
g51
S'_Library_Python_2_7_site-packages_django_core_cache_backends_locmem.html'
p747
sg53
S'/Library/Python/2.7/site-packages/django/core/cache/backends/locmem'
p748
sg55
g13
(g14
g15
NtRp749
(dp750
g18
I1
sg19
I0
sg20
I120
sg21
I0
sg22
I0
sg23
I93
sg24
I0
sbssg25
S"*\x1f\x1f<\x8b\x1f\x18\xc9zxN\x18S\xa9'\x91"
p751
ssS'_Library_Python_2_7_site-packages_django_db_models_sql_constants'
p752
(dp753
g6
(dp754
g51
S'_Library_Python_2_7_site-packages_django_db_models_sql_constants.html'
p755
sg53
S'/Library/Python/2.7/site-packages/django/db/models/sql/constants'
p756
sg55
g13
(g14
g15
NtRp757
(dp758
g18
I1
sg19
I0
sg20
I15
sg21
I0
sg22
I0
sg23
I0
sg24
I0
sbssg25
S'_\xa8i4X\x9e\xb0\tKL\xa8\xac8"\x1a\x13'
p759
ssS'_Library_Python_2_7_site-packages_django_http_utils'
p760
(dp761
g6
(dp762
g51
S'_Library_Python_2_7_site-packages_django_http_utils.html'
p763
sg53
S'/Library/Python/2.7/site-packages/django/http/utils'
p764
sg55
g13
(g14
g15
NtRp765
(dp766
g18
I1
sg19
I0
sg20
I39
sg21
I0
sg22
I0
sg23
I35
sg24
I0
sbssg25
S"\xbb\xc3'\xa8C\x18g\x9cz\x03V\xe9i\xd4'Y"
p767
ssS'_Library_Python_2_7_site-packages_django_core_files_locks'
p768
(dp769
g6
(dp770
g51
S'_Library_Python_2_7_site-packages_django_core_files_locks.html'
p771
sg53
S'/Library/Python/2.7/site-packages/django/core/files/locks'
p772
sg55
g13
(g14
g15
NtRp773
(dp774
g18
I1
sg19
I0
sg20
I40
sg21
I0
sg22
I0
sg23
I23
sg24
I0
sbssg25
S'\x18\xad\x19x\x91p\n\x1a\x14\xf5\x00\xd2\xaf\xb8\xfa\xc5'
p775
ssS'_Library_Python_2_7_site-packages_django_db_models_expressions'
p776
(dp777
g6
(dp778
g51
S'_Library_Python_2_7_site-packages_django_db_models_expressions.html'
p779
sg53
S'/Library/Python/2.7/site-packages/django/db/models/expressions'
p780
sg55
g13
(g14
g15
NtRp781
(dp782
g18
I1
sg19
I0
sg20
I80
sg21
I0
sg22
I0
sg23
I43
sg24
I0
sbssg25
S'mo\x1e\x15\xa0\xc1\x8a\x13\xf7\xaen\x81\xfc_\x0e\xa5'
p783
ssS'_Library_Python_2_7_site-packages_django_core_files_images'
p784
(dp785
g6
(dp786
g51
S'_Library_Python_2_7_site-packages_django_core_files_images.html'
p787
sg53
S'/Library/Python/2.7/site-packages/django/core/files/images'
p788
sg55
g13
(g14
g15
NtRp789
(dp790
g18
I1
sg19
I0
sg20
I40
sg21
I0
sg22
I0
sg23
I32
sg24
I0
sbssg25
S'\xcf\x19\xca\xed\xd0\x9f\xdd\x00\xc0\xb9\xceq\xff\xa6JJ'
p791
ssS'_Library_Python_2_7_site-packages_django_utils_safestring'
p792
(dp793
g6
(dp794
g8
S'_Library_Python_2_7_site-packages_django_utils_safestring.html'
p795
sg10
S'/Library/Python/2.7/site-packages/django/utils/safestring'
p796
sg12
g13
(g14
g15
NtRp797
(dp798
g18
I1
sg19
I0
sg20
I57
sg21
I0
sg22
I0
sg23
I31
sg24
I0
sbssg25
S'\xd5\x8c/m\x01p\xe3\x00b\xa4\xcf\xe1\xbe\x0c\xa2a'
p799
ssS'_Library_Python_2_7_site-packages_django_template_loader'
p800
(dp801
g6
(dp802
g8
S'_Library_Python_2_7_site-packages_django_template_loader.html'
p803
sg10
S'/Library/Python/2.7/site-packages/django/template/loader'
p804
sg12
g13
(g14
g15
NtRp805
(dp806
g18
I1
sg19
I0
sg20
I104
sg21
I0
sg22
I0
sg23
I80
sg24
I0
sbssg25
S'}*y(\xae\xf9\x12\x11\xd0\xee\xad\xd5\x89\xe9\x9e\xea'
p807
ssS'_Library_Python_2_7_site-packages_django_forms___init__'
p808
(dp809
g6
(dp810
g51
S'_Library_Python_2_7_site-packages_django_forms___init__.html'
p811
sg53
S'/Library/Python/2.7/site-packages/django/forms/__init__'
p812
sg55
g13
(g14
g15
NtRp813
(dp814
g18
I1
sg19
I0
sg20
I6
sg21
I0
sg22
I0
sg23
I0
sg24
I0
sbssg25
S"\xfb\x98'\xfe<\x95\xf2Q\xfe,\xaeF\t[\xfeP"
p815
ssS'_Library_Python_2_7_site-packages_django_contrib_sessions_backends___init__'
p816
(dp817
g40
(dp818
g8
S'_Library_Python_2_7_site-packages_django_contrib_sessions_backends___init__.html'
p819
sg10
S'/Library/Python/2.7/site-packages/django/contrib/sessions/backends/__init__'
p820
sg12
g13
(g14
g15
NtRp821
(dp822
g18
I1
sg19
I0
sg20
I0
sg21
I0
sg22
I0
sg23
I0
sg24
I0
sbssg46
S'\xb0\xc8pN\xaf>\xa0\xbaz\x144\xe0A9\xb8?'
p823
ssS'_Library_Python_2_7_site-packages_south_management_commands_test'
p824
(dp825
g40
(dp826
g8
S'_Library_Python_2_7_site-packages_south_management_commands_test.html'
p827
sg10
S'/Library/Python/2.7/site-packages/south/management/commands/test'
p828
sg12
g13
(g14
g15
NtRp829
(dp830
g18
I1
sg19
I0
sg20
I6
sg21
I0
sg22
I0
sg23
I0
sg24
I0
sbssg46
S"\x98'+\xf5\x95\xb5zx\xee\xd4\x1f\xc1\xe6\xc8\xb3\xfd"
p831
ssS'_Library_Python_2_7_site-packages_psycopg2_extensions'
p832
(dp833
g6
(dp834
g51
S'_Library_Python_2_7_site-packages_psycopg2_extensions.html'
p835
sg53
S'/Library/Python/2.7/site-packages/psycopg2/extensions'
p836
sg55
g13
(g14
g15
NtRp837
(dp838
g18
I1
sg19
I0
sg20
I84
sg21
I0
sg22
I0
sg23
I22
sg24
I0
sbssg25
S'L\xf2+\x0b\x89\x9d\xf8"kV\xbc9\xa5\x8fkz'
p839
ssS'_Library_Python_2_7_site-packages_django_utils_html_parser'
p840
(dp841
g6
(dp842
g51
S'_Library_Python_2_7_site-packages_django_utils_html_parser.html'
p843
sg53
S'/Library/Python/2.7/site-packages/django/utils/html_parser'
p844
sg55
g13
(g14
g15
NtRp845
(dp846
g18
I1
sg19
I0
sg20
I79
sg21
I0
sg22
I0
sg23
I67
sg24
I0
sbssg25
S'\x97\xe2\x0cix\x9d\x1c\x1d\x822\xcb\xcf\xd5\xffO\xd4'
p847
ssS'_Library_Python_2_7_site-packages_django_core_signing'
p848
(dp849
g6
(dp850
g51
S'_Library_Python_2_7_site-packages_django_core_signing.html'
p851
sg53
S'/Library/Python/2.7/site-packages/django/core/signing'
p852
sg55
g13
(g14
g15
NtRp853
(dp854
g18
I1
sg19
I0
sg20
I92
sg21
I0
sg22
I0
sg23
I61
sg24
I0
sbssg25
S'\xb7\x1bS\x13Q\xb4\xf5k\x90\xf7hKv\xf0\xb8\x87'
p855
ssS'_Library_Python_2_7_site-packages_django_utils_translation___init__'
p856
(dp857
g6
(dp858
g8
S'_Library_Python_2_7_site-packages_django_utils_translation___init__.html'
p859
sg10
S'/Library/Python/2.7/site-packages/django/utils/translation/__init__'
p860
sg12
g13
(g14
g15
NtRp861
(dp862
g18
I1
sg19
I0
sg20
I86
sg21
I0
sg22
I0
sg23
I26
sg24
I0
sbssg25
S'\xda\xd8\xce\xd4\xc15\xcb*\xa5\xefV\\\x97\x87L\x0b'
p863
ssS'_Library_Python_2_7_site-packages_django_core_servers___init__'
p864
(dp865
g6
(dp866
g51
S'_Library_Python_2_7_site-packages_django_core_servers___init__.html'
p867
sg53
S'/Library/Python/2.7/site-packages/django/core/servers/__init__'
p868
sg55
g13
(g14
g15
NtRp869
(dp870
g18
I1
sg19
I0
sg20
I0
sg21
I0
sg22
I0
sg23
I0
sg24
I0
sbssg25
S'\xb0\xc8pN\xaf>\xa0\xbaz\x144\xe0A9\xb8?'
p871
ssS'_Library_Python_2_7_site-packages_django_contrib_admin_sites'
p872
(dp873
g40
(dp874
g8
S'_Library_Python_2_7_site-packages_django_contrib_admin_sites.html'
p875
sg10
S'/Library/Python/2.7/site-packages/django/contrib/admin/sites'
p876
sg12
g13
(g14
g15
NtRp877
(dp878
g18
I1
sg19
I0
sg20
I203
sg21
I0
sg22
I0
sg23
I146
sg24
I0
sbssg46
S'Mu\xc1\xf3\xa4\xd9D%Sd\xae\x1e\xcetA\x13'
p879
ssS'_Library_Python_2_7_site-packages_pytz_tzfile'
p880
(dp881
g6
(dp882
g8
S'_Library_Python_2_7_site-packages_pytz_tzfile.html'
p883
sg10
S'/Library/Python/2.7/site-packages/pytz/tzfile'
p884
sg12
g13
(g14
g15
NtRp885
(dp886
g18
I1
sg19
I0
sg20
I81
sg21
I0
sg22
I0
sg23
I18
sg24
I0
sbssg25
S'\xa5\xcd\\>\xec\x1f1p\x01\x0c\x86\x93\x16\x8bI\xb3'
p887
ssS'_Library_Python_2_7_site-packages_django_core_files_base'
p888
(dp889
g6
(dp890
g51
S'_Library_Python_2_7_site-packages_django_core_files_base.html'
p891
sg53
S'/Library/Python/2.7/site-packages/django/core/files/base'
p892
sg55
g13
(g14
g15
NtRp893
(dp894
g18
I1
sg19
I0
sg20
I90
sg21
I0
sg22
I0
sg23
I59
sg24
I0
sbssg25
S'w\x89\xd9X\xe9\xd8\xac\x9b\xd1\xb9\xbc\xa3\xe5\xa3\xa1x'
p895
ssS'_Library_Python_2_7_site-packages_django_core_management_commands_loaddata'
p896
(dp897
g40
(dp898
g8
S'_Library_Python_2_7_site-packages_django_core_management_commands_loaddata.html'
p899
sg10
S'/Library/Python/2.7/site-packages/django/core/management/commands/loaddata'
p900
sg12
g13
(g14
g15
NtRp901
(dp902
g18
I1
sg19
I0
sg20
I163
sg21
I0
sg22
I0
sg23
I141
sg24
I0
sbssg46
S'\xcb?\xf1\x84j\x90\x15\xefx\xfc8\x93+\xd4\x81)'
p903
ssS'_Library_Python_2_7_site-packages_django_template_smartif'
p904
(dp905
g6
(dp906
g51
S'_Library_Python_2_7_site-packages_django_template_smartif.html'
p907
sg53
S'/Library/Python/2.7/site-packages/django/template/smartif'
p908
sg55
g13
(g14
g15
NtRp909
(dp910
g18
I1
sg19
I0
sg20
I104
sg21
I0
sg22
I0
sg23
I61
sg24
I0
sbssg25
S'\xdd)I\xf1\xfb\xd4\xfe\x86hd0\x89\x8a|\xf9\x8a'
p911
ssS'_Library_Python_2_7_site-packages_django_db_models_sql_aggregates'
p912
(dp913
g6
(dp914
g51
S'_Library_Python_2_7_site-packages_django_db_models_sql_aggregates.html'
p915
sg53
S'/Library/Python/2.7/site-packages/django/db/models/sql/aggregates'
p916
sg55
g13
(g14
g15
NtRp917
(dp918
g18
I1
sg19
I0
sg20
I57
sg21
I0
sg22
I0
sg23
I27
sg24
I0
sbssg25
S'"\xd6\xd4\x0f\xa9\xc7/\xabr\x93@\x0b\x90p\xca\xdf'
p919
ssS'_Library_Python_2_7_site-packages_django_shortcuts___init__'
p920
(dp921
g40
(dp922
g8
S'_Library_Python_2_7_site-packages_django_shortcuts___init__.html'
p923
sg10
S'/Library/Python/2.7/site-packages/django/shortcuts/__init__'
p924
sg12
g13
(g14
g15
NtRp925
(dp926
g18
I1
sg19
I0
sg20
I52
sg21
I0
sg22
I0
sg23
I40
sg24
I0
sbssg46
S'\x0e\xab\xe7\xd7E\x98"9p\x14;\xae\x11@l\x7f'
p927
ssS'_Library_Python_2_7_site-packages_django_views_decorators_csrf'
p928
(dp929
g40
(dp930
g8
S'_Library_Python_2_7_site-packages_django_views_decorators_csrf.html'
p931
sg10
S'/Library/Python/2.7/site-packages/django/views/decorators/csrf'
p932
sg12
g13
(g14
g15
NtRp933
(dp934
g18
I1
sg19
I0
sg20
I34
sg21
I0
sg22
I0
sg23
I9
sg24
I0
sbssg46
S'*\xd8+Z\xa9\xf5\x97\xcf\x98o\x88\x910\xe1T\x96'
p935
ssS'_Library_Python_2_7_site-packages_pytz___init__'
p936
(dp937
g6
(dp938
S'html_filename'
p939
S'_Library_Python_2_7_site-packages_pytz___init__.html'
p940
sS'name'
p941
S'/Library/Python/2.7/site-packages/pytz/__init__'
p942
sS'nums'
p943
g13
(g14
g15
NtRp944
(dp945
g18
I1
sg19
I0
sg20
I206
sg21
I0
sg22
I0
sg23
I104
sg24
I0
sbssg25
S'0.\xfcb\xb3\x8f\xb9\xa6=\x8a\xc6\xf2:\xb1\r\xd4'
p946
ssS'_Library_Python_2_7_site-packages_django_contrib_sites_management'
p947
(dp948
g40
(dp949
g8
S'_Library_Python_2_7_site-packages_django_contrib_sites_management.html'
p950
sg10
S'/Library/Python/2.7/site-packages/django/contrib/sites/management'
p951
sg12
g13
(g14
g15
NtRp952
(dp953
g18
I1
sg19
I0
sg20
I20
sg21
I0
sg22
I0
sg23
I2
sg24
I0
sbssg46
S'\xe1\xdc;QH^g.v\x17\x19\x0e\xad\xd9\x96\xdc'
p954
ssS'_Library_Python_2_7_site-packages_django_core_cache_backends_base'
p955
(dp956
g6
(dp957
g51
S'_Library_Python_2_7_site-packages_django_core_cache_backends_base.html'
p958
sg53
S'/Library/Python/2.7/site-packages/django/core/cache/backends/base'
p959
sg55
g13
(g14
g15
NtRp960
(dp961
g18
I1
sg19
I0
sg20
I99
sg21
I0
sg22
I0
sg23
I54
sg24
I0
sbssg25
S'#J\xfe\x1c\xfd\x80\xd1t9\x81\xdc\x9b\xcf\xc9\xd6\xeb'
p962
ssS'_Library_Python_2_7_site-packages_django_utils_encoding'
p963
(dp964
g6
(dp965
g8
S'_Library_Python_2_7_site-packages_django_utils_encoding.html'
p966
sg10
S'/Library/Python/2.7/site-packages/django/utils/encoding'
p967
sg12
g13
(g14
g15
NtRp968
(dp969
g18
I1
sg19
I0
sg20
I82
sg21
I0
sg22
I0
sg23
I34
sg24
I0
sbssg25
S'\xe5]\x9e(\xfc\x0bk\x90\xbf\n\xc8\xb0T\x16c\xe3'
p970
ssS'_Library_Python_2_7_site-packages_django_db_backends_postgresql_psycopg2___init__'
p971
(dp972
g6
(dp973
g51
S'_Library_Python_2_7_site-packages_django_db_backends_postgresql_psycopg2___init__.html'
p974
sg53
S'/Library/Python/2.7/site-packages/django/db/backends/postgresql_psycopg2/__init__'
p975
sg55
g13
(g14
g15
NtRp976
(dp977
g18
I1
sg19
I0
sg20
I0
sg21
I0
sg22
I0
sg23
I0
sg24
I0
sbssg25
S'\xb0\xc8pN\xaf>\xa0\xbaz\x144\xe0A9\xb8?'
p978
ssS'_Library_Python_2_7_site-packages_django_template_context'
p979
(dp980
g6
(dp981
g51
S'_Library_Python_2_7_site-packages_django_template_context.html'
p982
sg53
S'/Library/Python/2.7/site-packages/django/template/context'
p983
sg55
g13
(g14
g15
NtRp984
(dp985
g18
I1
sg19
I0
sg20
I111
sg21
I0
sg22
I0
sg23
I78
sg24
I0
sbssg25
S"\x9b\xe5\x82$\xa9\x97\xdeD\x9f'6\n\xa2\xdcU\xb5"
p986
ssS'carpoolapp_models'
p987
(dp988
g40
(dp989
S'html_filename'
p990
S'carpoolapp_models.html'
p991
sS'name'
p992
S'carpoolapp/models'
p993
sS'nums'
p994
g13
(g14
g15
NtRp995
(dp996
g18
I1
sg19
I0
sg20
I173
sg21
I0
sg22
I0
sg23
I49
sg24
I0
sbssg46
S'\x8f\xef[\xbb\xd3yr\ty[\xac\x97\xa6\xf9\xdd\xcc'
p997
ssS'_Library_Python_2_7_site-packages_django_db_utils'
p998
(dp999
g6
(dp1000
g8
S'_Library_Python_2_7_site-packages_django_db_utils.html'
p1001
sg10
S'/Library/Python/2.7/site-packages/django/db/utils'
p1002
sg12
g13
(g14
g15
NtRp1003
(dp1004
g18
I1
sg19
I0
sg20
I120
sg21
I0
sg22
I0
sg23
I58
sg24
I0
sbssg25
S'Sv\xb3q\x8e\xc4p\xf3\xddK\xa8I\x86\xb1\xee\xa9'
p1005
ssS'_Library_Python_2_7_site-packages_django_core_management_commands___init__'
p1006
(dp1007
g6
(dp1008
g51
S'_Library_Python_2_7_site-packages_django_core_management_commands___init__.html'
p1009
sg53
S'/Library/Python/2.7/site-packages/django/core/management/commands/__init__'
p1010
sg55
g13
(g14
g15
NtRp1011
(dp1012
g18
I1
sg19
I0
sg20
I0
sg21
I0
sg22
I0
sg23
I0
sg24
I0
sbssg25
S'\xb0\xc8pN\xaf>\xa0\xbaz\x144\xe0A9\xb8?'
p1013
ssS'_Library_Python_2_7_site-packages_django_db_models_fields_related'
p1014
(dp1015
g6
(dp1016
g8
S'_Library_Python_2_7_site-packages_django_db_models_fields_related.html'
p1017
sg10
S'/Library/Python/2.7/site-packages/django/db/models/fields/related'
p1018
sg12
g13
(g14
g15
NtRp1019
(dp1020
g18
I1
sg19
I0
sg20
I713
sg21
I0
sg22
I0
sg23
I406
sg24
I0
sbssg25
S'\x8e0\x9alt\xa6n\x8c\xc04 \x85D\xd6n;'
p1021
ssS'_Library_Python_2_7_site-packages_django_utils_numberformat'
p1022
(dp1023
g6
(dp1024
g51
S'_Library_Python_2_7_site-packages_django_utils_numberformat.html'
p1025
sg53
S'/Library/Python/2.7/site-packages/django/utils/numberformat'
p1026
sg55
g13
(g14
g15
NtRp1027
(dp1028
g18
I1
sg19
I0
sg20
I31
sg21
I0
sg22
I0
sg23
I28
sg24
I0
sbssg25
S't\x93m\x81b\xf9\x03K\xc5\xb4a\xde\xfff \xd7'
p1029
ssS'_Library_Python_2_7_site-packages_django_contrib___init__'
p1030
(dp1031
g6
(dp1032
g51
S'_Library_Python_2_7_site-packages_django_contrib___init__.html'
p1033
sg53
S'/Library/Python/2.7/site-packages/django/contrib/__init__'
p1034
sg55
g13
(g14
g15
NtRp1035
(dp1036
g18
I1
sg19
I0
sg20
I0
sg21
I0
sg22
I0
sg23
I0
sg24
I0
sbssg25
S'\xb0\xc8pN\xaf>\xa0\xbaz\x144\xe0A9\xb8?'
p1037
ssS'_Library_Python_2_7_site-packages_django_contrib_admin_templatetags_admin_static'
p1038
(dp1039
g40
(dp1040
g8
S'_Library_Python_2_7_site-packages_django_contrib_admin_templatetags_admin_static.html'
p1041
sg10
S'/Library/Python/2.7/site-packages/django/contrib/admin/templatetags/admin_static'
p1042
sg12
g13
(g14
g15
NtRp1043
(dp1044
g18
I1
sg19
I0
sg20
I7
sg21
I0
sg22
I0
sg23
I1
sg24
I0
sbssg46
S'\x99{\xd7\xbc\xa3W\x085\xed$9\xd94r\xea\x15'
p1045
ssS'_Library_Python_2_7_site-packages_django_contrib_staticfiles_management___init__'
p1046
(dp1047
g40
(dp1048
g8
S'_Library_Python_2_7_site-packages_django_contrib_staticfiles_management___init__.html'
p1049
sg10
S'/Library/Python/2.7/site-packages/django/contrib/staticfiles/management/__init__'
p1050
sg12
g13
(g14
g15
NtRp1051
(dp1052
g18
I1
sg19
I0
sg20
I0
sg21
I0
sg22
I0
sg23
I0
sg24
I0
sbssg46
S'\xb0\xc8pN\xaf>\xa0\xbaz\x144\xe0A9\xb8?'
p1053
ssS'_Library_Python_2_7_site-packages_django_db_backends_postgresql_psycopg2_client'
p1054
(dp1055
g6
(dp1056
g51
S'_Library_Python_2_7_site-packages_django_db_backends_postgresql_psycopg2_client.html'
p1057
sg53
S'/Library/Python/2.7/site-packages/django/db/backends/postgresql_psycopg2/client'
p1058
sg55
g13
(g14
g15
NtRp1059
(dp1060
g18
I1
sg19
I0
sg20
I18
sg21
I0
sg22
I0
sg23
I12
sg24
I0
sbssg25
S'\xaa[\x13W\x00\x11m\xb4\xd2717LZ\x00M'
p1061
ssS'_Library_Python_2_7_site-packages_south_migration___init__'
p1062
(dp1063
g40
(dp1064
g8
S'_Library_Python_2_7_site-packages_south_migration___init__.html'
p1065
sg10
S'/Library/Python/2.7/site-packages/south/migration/__init__'
p1066
sg12
g13
(g14
g15
NtRp1067
(dp1068
g18
I1
sg19
I0
sg20
I152
sg21
I0
sg22
I0
sg23
I129
sg24
I0
sbssg46
S'\xd2X\xf6S\x03\xd9\x1a}\x1f\xad0X\x14FI\x99'
p1069
ssS'_Library_Python_2_7_site-packages_django_dispatch_dispatcher'
p1070
(dp1071
g6
(dp1072
g8
S'_Library_Python_2_7_site-packages_django_dispatch_dispatcher.html'
p1073
sg10
S'/Library/Python/2.7/site-packages/django/dispatch/dispatcher'
p1074
sg12
g13
(g14
g15
NtRp1075
(dp1076
g18
I1
sg19
I0
sg20
I101
sg21
I0
sg22
I0
sg23
I45
sg24
I0
sbssg25
S'S\xca\xfe\x8e\xc3Q\r\xc6K\xabIi\x11\xda\x9e#'
p1077
ssS'_Library_Python_2_7_site-packages_django_views_decorators_cache'
p1078
(dp1079
g40
(dp1080
g8
S'_Library_Python_2_7_site-packages_django_views_decorators_cache.html'
p1081
sg10
S'/Library/Python/2.7/site-packages/django/views/decorators/cache'
p1082
sg12
g13
(g14
g15
NtRp1083
(dp1084
g18
I1
sg19
I0
sg20
I40
sg21
I0
sg22
I0
sg23
I31
sg24
I0
sbssg46
S'\x02B\x80\x13a\x16\x1dq\xc1oy\xd0\x0e\x1c\x7fW'
p1085
ssS'_Library_Python_2_7_site-packages_psycopg2___init__'
p1086
(dp1087
g6
(dp1088
g8
S'_Library_Python_2_7_site-packages_psycopg2___init__.html'
p1089
sg10
S'/Library/Python/2.7/site-packages/psycopg2/__init__'
p1090
sg12
g13
(g14
g15
NtRp1091
(dp1092
g18
I1
sg19
I0
sg20
I60
sg21
I0
sg22
I0
sg23
I13
sg24
I0
sbssg25
S'\xbe\x94$\x91cq\x9a\xf0\xb56\x8e\xcaw\xc7{X'
p1093
ssS'carpoolapp_googlemaps'
p1094
(dp1095
g40
(dp1096
g8
S'carpoolapp_googlemaps.html'
p1097
sg10
S'carpoolapp/googlemaps'
p1098
sg12
g13
(g14
g15
NtRp1099
(dp1100
g18
I1
sg19
I0
sg20
I106
sg21
I0
sg22
I0
sg23
I69
sg24
I0
sbssg46
S'%\x94\x00\xfa\xf9\xbc\xc2b\xd7\xda\xb8\x15I\xdc\xbe!'
p1101
ssS'_Library_Python_2_7_site-packages_django_dispatch___init__'
p1102
(dp1103
g6
(dp1104
g51
S'_Library_Python_2_7_site-packages_django_dispatch___init__.html'
p1105
sg53
S'/Library/Python/2.7/site-packages/django/dispatch/__init__'
p1106
sg55
g13
(g14
g15
NtRp1107
(dp1108
g18
I1
sg19
I0
sg20
I1
sg21
I0
sg22
I0
sg23
I0
sg24
I0
sbssg25
S'\xe9$\xa4\xf3k\xc7$G\xbe^\x9e5~A\x94\xd1'
p1109
ssS'_Library_Python_2_7_site-packages_django_db_models_sql_datastructures'
p1110
(dp1111
g6
(dp1112
g51
S'_Library_Python_2_7_site-packages_django_db_models_sql_datastructures.html'
p1113
sg53
S'/Library/Python/2.7/site-packages/django/db/models/sql/datastructures'
p1114
sg55
g13
(g14
g15
NtRp1115
(dp1116
g18
I1
sg19
I0
sg20
I25
sg21
I0
sg22
I0
sg23
I11
sg24
I0
sbssg25
S"\xab\x99\\\xa2\x90\x03\x16\xdf\xd8p\x82'\xa1\xd3\x8ct"
p1117
ssS'_Library_Python_2_7_site-packages_django_utils_unittest___init__'
p1118
(dp1119
g6
(dp1120
g51
S'_Library_Python_2_7_site-packages_django_utils_unittest___init__.html'
p1121
sg53
S'/Library/Python/2.7/site-packages/django/utils/unittest/__init__'
p1122
sg55
g13
(g14
g15
NtRp1123
(dp1124
g18
I1
sg19
I0
sg20
I23
sg21
I0
sg22
I0
sg23
I17
sg24
I0
sbssg25
S'\xccP\x9c\xf4\x9b(\x7f#1\xb9\xe3X7\xb4\xe6B'
p1125
ssS'_Library_Python_2_7_site-packages_django_db_transaction'
p1126
(dp1127
g6
(dp1128
g8
S'_Library_Python_2_7_site-packages_django_db_transaction.html'
p1129
sg10
S'/Library/Python/2.7/site-packages/django/db/transaction'
p1130
sg12
g13
(g14
g15
NtRp1131
(dp1132
g18
I1
sg19
I0
sg20
I131
sg21
I0
sg22
I0
sg23
I70
sg24
I0
sbssg25
S'M\xc23e\xb0y\xd0\xa21\xb6M>A*u\x15'
p1133
ssS'_Library_Python_2_7_site-packages_django_db_models_related'
p1134
(dp1135
g6
(dp1136
g8
S'_Library_Python_2_7_site-packages_django_db_models_related.html'
p1137
sg10
S'/Library/Python/2.7/site-packages/django/db/models/related'
p1138
sg12
g13
(g14
g15
NtRp1139
(dp1140
g18
I1
sg19
I0
sg20
I41
sg21
I0
sg22
I0
sg23
I17
sg24
I0
sbssg25
S'\x01\xed\xbb\xef\xa5\xbe\xb0\xfd\xe7\x006\xbd\xc1=\x9a)'
p1141
ssS'_Library_Python_2_7_site-packages_django_utils_formats'
p1142
(dp1143
g6
(dp1144
g8
S'_Library_Python_2_7_site-packages_django_utils_formats.html'
p1145
sg10
S'/Library/Python/2.7/site-packages/django/utils/formats'
p1146
sg12
g13
(g14
g15
NtRp1147
(dp1148
g18
I1
sg19
I0
sg20
I108
sg21
I0
sg22
I0
sg23
I54
sg24
I0
sbssg25
S'R\x02|\xdd[\xba\xaet\xb11\x03\xbb\xf9\x0f\x1b\xe2'
p1149
ssS'_Library_Python_2_7_site-packages_django_utils_datastructures'
p1150
(dp1151
g6
(dp1152
g8
S'_Library_Python_2_7_site-packages_django_utils_datastructures.html'
p1153
sg10
S'/Library/Python/2.7/site-packages/django/utils/datastructures'
p1154
sg12
g13
(g14
g15
NtRp1155
(dp1156
g18
I1
sg19
I0
sg20
I292
sg21
I0
sg22
I0
sg23
I159
sg24
I0
sbssg25
S'[\x14E\xb4\xb6\xa5\x99\xe8ge\x9b/\x1e<ww'
p1157
ssS'carpoolapp___init__'
p1158
(dp1159
g40
(dp1160
g8
S'carpoolapp___init__.html'
p1161
sg10
S'carpoolapp/__init__'
p1162
sg12
g13
(g14
g15
NtRp1163
(dp1164
g18
I1
sg19
I0
sg20
I0
sg21
I0
sg22
I0
sg23
I0
sg24
I0
sbssg46
S'\xb0\xc8pN\xaf>\xa0\xbaz\x144\xe0A9\xb8?'
p1165
ssS'_Library_Python_2_7_site-packages_django_contrib_admin_actions'
p1166
(dp1167
g40
(dp1168
g8
S'_Library_Python_2_7_site-packages_django_contrib_admin_actions.html'
p1169
sg10
S'/Library/Python/2.7/site-packages/django/contrib/admin/actions'
p1170
sg12
g13
(g14
g15
NtRp1171
(dp1172
g18
I1
sg19
I0
sg20
I34
sg21
I0
sg22
I0
sg23
I25
sg24
I0
sbssg46
S'!\xc3\xbf\x11\xd1\xcc\x7fa\xf0\x1d\xaep\xafI\xf5\x0b'
p1173
ssS'_Library_Python_2_7_site-packages_django_db_models_fields___init__'
p1174
(dp1175
g6
(dp1176
g381
S'_Library_Python_2_7_site-packages_django_db_models_fields___init__.html'
p1177
sg383
S'/Library/Python/2.7/site-packages/django/db/models/fields/__init__'
p1178
sg385
g13
(g14
g15
NtRp1179
(dp1180
g18
I1
sg19
I0
sg20
I778
sg21
I0
sg22
I0
sg23
I372
sg24
I0
sbssg25
S'3g4\xc1/>/\xf4\x9eC\xae\x91{[qP'
p1181
ssS'_Library_Python_2_7_site-packages_django_utils_synch'
p1182
(dp1183
g6
(dp1184
g51
S'_Library_Python_2_7_site-packages_django_utils_synch.html'
p1185
sg53
S'/Library/Python/2.7/site-packages/django/utils/synch'
p1186
sg55
g13
(g14
g15
NtRp1187
(dp1188
g18
I1
sg19
I0
sg20
I60
sg21
I0
sg22
I0
sg23
I41
sg24
I0
sbssg25
S'\xda\xed\xb8;\x18\xf0IL\xc7`[\xdd\xd9\xde\xb4e'
p1189
ssS'_Library_Python_2_7_site-packages_south_db_generic'
p1190
(dp1191
g40
(dp1192
g8
S'_Library_Python_2_7_site-packages_south_db_generic.html'
p1193
sg10
S'/Library/Python/2.7/site-packages/south/db/generic'
p1194
sg12
g13
(g14
g15
NtRp1195
(dp1196
g18
I1
sg19
I0
sg20
I569
sg21
I0
sg22
I0
sg23
I438
sg24
I0
sbssg46
S".^R\xe1\xa7'p\xecP*[\xa0\xb6\xa2\xfeL"
p1197
ssS'_Library_Python_2_7_site-packages_django_core_handlers___init__'
p1198
(dp1199
g6
(dp1200
g51
S'_Library_Python_2_7_site-packages_django_core_handlers___init__.html'
p1201
sg53
S'/Library/Python/2.7/site-packages/django/core/handlers/__init__'
p1202
sg55
g13
(g14
g15
NtRp1203
(dp1204
g18
I1
sg19
I0
sg20
I0
sg21
I0
sg22
I0
sg23
I0
sg24
I0
sbssg25
S'\xb0\xc8pN\xaf>\xa0\xbaz\x144\xe0A9\xb8?'
p1205
ssS'_Library_Python_2_7_site-packages_django_contrib_sessions___init__'
p1206
(dp1207
g40
(dp1208
g8
S'_Library_Python_2_7_site-packages_django_contrib_sessions___init__.html'
p1209
sg10
S'/Library/Python/2.7/site-packages/django/contrib/sessions/__init__'
p1210
sg12
g13
(g14
g15
NtRp1211
(dp1212
g18
I1
sg19
I0
sg20
I0
sg21
I0
sg22
I0
sg23
I0
sg24
I0
sbssg46
S'\xb0\xc8pN\xaf>\xa0\xbaz\x144\xe0A9\xb8?'
p1213
ssS'_Library_Python_2_7_site-packages_django_utils_http'
p1214
(dp1215
g6
(dp1216
g51
S'_Library_Python_2_7_site-packages_django_utils_http.html'
p1217
sg53
S'/Library/Python/2.7/site-packages/django/utils/http'
p1218
sg55
g13
(g14
g15
NtRp1219
(dp1220
g18
I1
sg19
I0
sg20
I115
sg21
I0
sg22
I0
sg23
I74
sg24
I0
sbssg25
S"\x81\x9f&\xec\x13\x05\x0b\xce\x99\x8a\xa4\x82'`\xf2\x9c"
p1221
ssS'_Library_Python_2_7_site-packages_south_hacks___init__'
p1222
(dp1223
g40
(dp1224
g8
S'_Library_Python_2_7_site-packages_south_hacks___init__.html'
p1225
sg10
S'/Library/Python/2.7/site-packages/south/hacks/__init__'
p1226
sg12
g13
(g14
g15
NtRp1227
(dp1228
g18
I1
sg19
I0
sg20
I2
sg21
I0
sg22
I0
sg23
I0
sg24
I0
sbssg46
S'\xe8V3k\xb0\xad\xbb\xda\xbeP\x9d]y\xd9\xfcT'
p1229
ssS'_Library_Python_2_7_site-packages_django_utils_itercompat'
p1230
(dp1231
g6
(dp1232
g51
S'_Library_Python_2_7_site-packages_django_utils_itercompat.html'
p1233
sg53
S'/Library/Python/2.7/site-packages/django/utils/itercompat'
p1234
sg55
g13
(g14
g15
NtRp1235
(dp1236
g18
I1
sg19
I0
sg20
I24
sg21
I0
sg22
I0
sg23
I15
sg24
I0
sbssg25
S'OXMhC\xbe8\xb9E{b\x17w\xbf\xa2~'
p1237
ssS'_Library_Python_2_7_site-packages_django_db_models_loading'
p1238
(dp1239
g6
(dp1240
g8
S'_Library_Python_2_7_site-packages_django_db_models_loading.html'
p1241
sg10
S'/Library/Python/2.7/site-packages/django/db/models/loading'
p1242
sg12
g13
(g14
g15
NtRp1243
(dp1244
g18
I1
sg19
I0
sg20
I119
sg21
I0
sg22
I0
sg23
I21
sg24
I0
sbssg25
S"\xf9\xacF\xab\x13j\xfe'|\xc6\x90\xea\x97]q\xb3"
p1245
ssS'_Library_Python_2_7_site-packages_django_conf_global_settings'
p1246
(dp1247
g6
(dp1248
g51
S'_Library_Python_2_7_site-packages_django_conf_global_settings.html'
p1249
sg53
S'/Library/Python/2.7/site-packages/django/conf/global_settings'
p1250
sg55
g13
(g14
g15
NtRp1251
(dp1252
g18
I1
sg19
I0
sg20
I118
sg21
I0
sg22
I0
sg23
I0
sg24
I0
sbssg25
S'\xba\x06~\xde\x10?\xd3q\xeb#i&\x19H\xe2l'
p1253
ssS'_Library_Python_2_7_site-packages_django_contrib_messages___init__'
p1254
(dp1255
g40
(dp1256
g8
S'_Library_Python_2_7_site-packages_django_contrib_messages___init__.html'
p1257
sg10
S'/Library/Python/2.7/site-packages/django/contrib/messages/__init__'
p1258
sg12
g13
(g14
g15
NtRp1259
(dp1260
g18
I1
sg19
I0
sg20
I3
sg21
I0
sg22
I0
sg23
I0
sg24
I0
sbssg46
S'\x01~\xb7\xc9ZD\xe5N\xc3\x01\xc2\x94u\x0b`\x9e'
p1261
ssS'_Library_Python_2_7_site-packages_django_contrib_sessions_backends_base'
p1262
(dp1263
g40
(dp1264
g8
S'_Library_Python_2_7_site-packages_django_contrib_sessions_backends_base.html'
p1265
sg10
S'/Library/Python/2.7/site-packages/django/contrib/sessions/backends/base'
p1266
sg12
g13
(g14
g15
NtRp1267
(dp1268
g18
I1
sg19
I0
sg20
I160
sg21
I0
sg22
I0
sg23
I104
sg24
I0
sbssg46
S'r\x1ed\xed\xe2u\x92g\xd3}\xf3\x7f\xae:AK'
p1269
ssS'_Library_Python_2_7_site-packages_django_core_management_color'
p1270
(dp1271
g6
(dp1272
g8
S'_Library_Python_2_7_site-packages_django_core_management_color.html'
p1273
sg10
S'/Library/Python/2.7/site-packages/django/core/management/color'
p1274
sg12
g13
(g14
g15
NtRp1275
(dp1276
g18
I1
sg19
I0
sg20
I28
sg21
I0
sg22
I0
sg23
I3
sg24
I0
sbssg25
S'\x1f\x18m\xdf\x9b&\x90\xbe\xf5\x15C\x10\x8e\x16\xcd\xc4'
p1277
ssS'_Library_Python_2_7_site-packages_django_core_serializers_python'
p1278
(dp1279
g40
(dp1280
g8
S'_Library_Python_2_7_site-packages_django_core_serializers_python.html'
p1281
sg10
S'/Library/Python/2.7/site-packages/django/core/serializers/python'
p1282
sg12
g13
(g14
g15
NtRp1283
(dp1284
g18
I1
sg19
I0
sg20
I78
sg21
I0
sg22
I0
sg23
I62
sg24
I0
sbssg46
S'\xe1\xe7\x12\xa2\xca\xdc\xf5\xa3DW\x8f\x1b\x816H\xe3'
p1285
ssS'_Library_Python_2_7_site-packages_django_contrib_messages_api'
p1286
(dp1287
g40
(dp1288
g8
S'_Library_Python_2_7_site-packages_django_contrib_messages_api.html'
p1289
sg10
S'/Library/Python/2.7/site-packages/django/contrib/messages/api'
p1290
sg12
g13
(g14
g15
NtRp1291
(dp1292
g18
I1
sg19
I0
sg20
I34
sg21
I0
sg22
I0
sg23
I20
sg24
I0
sbssg46
S'i\xb5\x8fk2\x89\xf2JF0\xfa\xd1z\x05\xaf\xe5'
p1293
ssS'_Library_Python_2_7_site-packages_django_utils_dateparse'
p1294
(dp1295
g6
(dp1296
g51
S'_Library_Python_2_7_site-packages_django_utils_dateparse.html'
p1297
sg53
S'/Library/Python/2.7/site-packages/django/utils/dateparse'
p1298
sg55
g13
(g14
g15
NtRp1299
(dp1300
g18
I1
sg19
I0
sg20
I37
sg21
I0
sg22
I0
sg23
I27
sg24
I0
sbssg25
S'\xf9]\xb0\xe3\xc6\x83\xc7\xfa\x95\x83<<\x8e0\xa2\x11'
p1301
ssS'_Library_Python_2_7_site-packages_south_management___init__'
p1302
(dp1303
g40
(dp1304
g8
S'_Library_Python_2_7_site-packages_south_management___init__.html'
p1305
sg10
S'/Library/Python/2.7/site-packages/south/management/__init__'
p1306
sg12
g13
(g14
g15
NtRp1307
(dp1308
g18
I1
sg19
I0
sg20
I0
sg21
I0
sg22
I0
sg23
I0
sg24
I0
sbssg46
S'\xb0\xc8pN\xaf>\xa0\xbaz\x144\xe0A9\xb8?'
p1309
ssS'_Library_Python_2_7_site-packages_django_views___init__'
p1310
(dp1311
g6
(dp1312
g51
S'_Library_Python_2_7_site-packages_django_views___init__.html'
p1313
sg53
S'/Library/Python/2.7/site-packages/django/views/__init__'
p1314
sg55
g13
(g14
g15
NtRp1315
(dp1316
g18
I1
sg19
I0
sg20
I0
sg21
I0
sg22
I0
sg23
I0
sg24
I0
sbssg25
S'\xb0\xc8pN\xaf>\xa0\xbaz\x144\xe0A9\xb8?'
p1317
ssS'_Library_Python_2_7_site-packages_django_utils_module_loading'
p1318
(dp1319
g6
(dp1320
g51
S'_Library_Python_2_7_site-packages_django_utils_module_loading.html'
p1321
sg53
S'/Library/Python/2.7/site-packages/django/utils/module_loading'
p1322
sg55
g13
(g14
g15
NtRp1323
(dp1324
g18
I1
sg19
I0
sg20
I48
sg21
I0
sg22
I0
sg23
I44
sg24
I0
sbssg25
S'\x81\xbe\xb4\xca\xff\xe8Z\x15]\x06\xfc\xf1\xc4\xd9\x9a;'
p1325
ssS'_Library_Python_2_7_site-packages_django_contrib_sessions_backends_db'
p1326
(dp1327
g40
(dp1328
g8
S'_Library_Python_2_7_site-packages_django_contrib_sessions_backends_db.html'
p1329
sg10
S'/Library/Python/2.7/site-packages/django/contrib/sessions/backends/db'
p1330
sg12
g13
(g14
g15
NtRp1331
(dp1332
g18
I1
sg19
I0
sg20
I48
sg21
I0
sg22
I0
sg23
I35
sg24
I0
sbssg46
S'\xa8\xfcSLV\x1eW\x07\x8e\x07\xe0H\xb4\xfd\xb2\xaa'
p1333
ssS'_Library_Python_2_7_site-packages_django_core_handlers_wsgi'
p1334
(dp1335
g6
(dp1336
g51
S'_Library_Python_2_7_site-packages_django_core_handlers_wsgi.html'
p1337
sg53
S'/Library/Python/2.7/site-packages/django/core/handlers/wsgi'
p1338
sg55
g13
(g14
g15
NtRp1339
(dp1340
g18
I1
sg19
I0
sg20
I142
sg21
I0
sg22
I0
sg23
I103
sg24
I0
sbssg25
S'\xa83\xcc]\xf1\xe5\xea,\xf9m+\xb2l\x89&V'
p1341
ssS'_Library_Python_2_7_site-packages_django_core_management_commands_test'
p1342
(dp1343
g6
(dp1344
g150
S'_Library_Python_2_7_site-packages_django_core_management_commands_test.html'
p1345
sg152
S'/Library/Python/2.7/site-packages/django/core/management/commands/test'
p1346
sg154
g13
(g14
g15
NtRp1347
(dp1348
g18
I1
sg19
I0
sg20
I37
sg21
I0
sg22
I0
sg23
I5
sg24
I0
sbssg25
S'\xbf\x7f\xf75F!\xdb\xb2\xb5\xf1V\xa5a\xd1\x86\x8f'
p1349
ssS'_Library_Python_2_7_site-packages_django_views_decorators___init__'
p1350
(dp1351
g40
(dp1352
g8
S'_Library_Python_2_7_site-packages_django_views_decorators___init__.html'
p1353
sg10
S'/Library/Python/2.7/site-packages/django/views/decorators/__init__'
p1354
sg12
g13
(g14
g15
NtRp1355
(dp1356
g18
I1
sg19
I0
sg20
I0
sg21
I0
sg22
I0
sg23
I0
sg24
I0
sbssg46
S'\xb0\xc8pN\xaf>\xa0\xbaz\x144\xe0A9\xb8?'
p1357
ssS'_Library_Python_2_7_site-packages_django_core_wsgi'
p1358
(dp1359
g6
(dp1360
g51
S'_Library_Python_2_7_site-packages_django_core_wsgi.html'
p1361
sg53
S'/Library/Python/2.7/site-packages/django/core/wsgi'
p1362
sg55
g13
(g14
g15
NtRp1363
(dp1364
g18
I1
sg19
I0
sg20
I3
sg21
I0
sg22
I0
sg23
I1
sg24
I0
sbssg25
S' \x0e\x1b\xd1D\xd0\x13<c\x84?v\xdf\xd1\xf8\x84'
p1365
ssS'_Library_Python_2_7_site-packages_django_utils_dateformat'
p1366
(dp1367
g6
(dp1368
g51
S'_Library_Python_2_7_site-packages_django_utils_dateformat.html'
p1369
sg53
S'/Library/Python/2.7/site-packages/django/utils/dateformat'
p1370
sg55
g13
(g14
g15
NtRp1371
(dp1372
g18
I1
sg19
I0
sg20
I179
sg21
I0
sg22
I0
sg23
I119
sg24
I0
sbssg25
S'\xdc\xcf>\x08@dl\xf9\xb7\x16\x8bmQ\x05\x80?'
p1373
ssS'_Library_Python_2_7_site-packages_django_contrib_staticfiles_utils'
p1374
(dp1375
g6
(dp1376
g51
S'_Library_Python_2_7_site-packages_django_contrib_staticfiles_utils.html'
p1377
sg53
S'/Library/Python/2.7/site-packages/django/contrib/staticfiles/utils'
p1378
sg55
g13
(g14
g15
NtRp1379
(dp1380
g18
I1
sg19
I0
sg20
I37
sg21
I0
sg22
I0
sg23
I30
sg24
I0
sbssg25
S'Q\x99\xe3\x98\xf4\xbc\tTg\xbc\xed\xbd\\\xf9Q\xdd'
p1381
ssS'_Library_Python_2_7_site-packages_django_contrib_staticfiles_storage'
p1382
(dp1383
g6
(dp1384
g51
S'_Library_Python_2_7_site-packages_django_contrib_staticfiles_storage.html'
p1385
sg53
S'/Library/Python/2.7/site-packages/django/contrib/staticfiles/storage'
p1386
sg55
g13
(g14
g15
NtRp1387
(dp1388
g18
I1
sg19
I0
sg20
I160
sg21
I0
sg22
I0
sg23
I123
sg24
I0
sbssg25
S'\xaa\r\x86\xab~\xed\x19m\xcd\x7f\xc7\xc9\xd2up\x99'
p1389
ssS'_Library_Python_2_7_site-packages_django_contrib_staticfiles_handlers'
p1390
(dp1391
g6
(dp1392
g51
S'_Library_Python_2_7_site-packages_django_contrib_staticfiles_handlers.html'
p1393
sg53
S'/Library/Python/2.7/site-packages/django/contrib/staticfiles/handlers'
p1394
sg55
g13
(g14
g15
NtRp1395
(dp1396
g18
I1
sg19
I0
sg20
I40
sg21
I0
sg22
I0
sg23
I25
sg24
I0
sbssg25
S'\xc9\xf1t\x83\xcf\x01k\x14\x7f1\xa8\xd7,\xaf\xb3}'
p1397
ssS'_Library_Python_2_7_site-packages_dj_database_url'
p1398
(dp1399
g6
(dp1400
g51
S'_Library_Python_2_7_site-packages_dj_database_url.html'
p1401
sg53
S'/Library/Python/2.7/site-packages/dj_database_url'
p1402
sg55
g13
(g14
g15
NtRp1403
(dp1404
g18
I1
sg19
I0
sg20
I28
sg21
I0
sg22
I0
sg23
I15
sg24
I0
sbssg25
S'\xdd\xd7\xce\xa7\xb2\x1b\xe3zmb\xa2(\x13x\xc9\xba'
p1405
ssS'carpool_settings'
p1406
(dp1407
g6
(dp1408
g8
S'carpool_settings.html'
p1409
sg10
S'carpool/settings'
p1410
sg12
g13
(g14
g15
NtRp1411
(dp1412
g18
I1
sg19
I0
sg20
I33
sg21
I0
sg22
I0
sg23
I0
sg24
I0
sbssg25
S'f\xe9\xd1OsQ\xecz4\x11\xc4\x89\x9e\xbd\x8f\xca'
p1413
ssS'_Library_Python_2_7_site-packages_django_db_models_fields_files'
p1414
(dp1415
g6
(dp1416
g51
S'_Library_Python_2_7_site-packages_django_db_models_fields_files.html'
p1417
sg53
S'/Library/Python/2.7/site-packages/django/db/models/fields/files'
p1418
sg55
g13
(g14
g15
NtRp1419
(dp1420
g18
I1
sg19
I0
sg20
I203
sg21
I0
sg22
I0
sg23
I136
sg24
I0
sbssg25
S'\xf4\xb4\x1e?\xfe\x16\xa2[\xe6\x86\xd1\x06\xc4\xd8\x1cn'
p1421
ssS'_Library_Python_2_7_site-packages_django_conf_locale___init__'
p1422
(dp1423
g40
(dp1424
g8
S'_Library_Python_2_7_site-packages_django_conf_locale___init__.html'
p1425
sg10
S'/Library/Python/2.7/site-packages/django/conf/locale/__init__'
p1426
sg12
g13
(g14
g15
NtRp1427
(dp1428
g18
I1
sg19
I0
sg20
I1
sg21
I0
sg22
I0
sg23
I0
sg24
I0
sbssg46
S'\xca\x13\xff\x014\xc8\xe6I\xcb\xd3B<uIk\xbe'
p1429
ssS'_Library_Python_2_7_site-packages_django_contrib_staticfiles_finders'
p1430
(dp1431
g6
(dp1432
g51
S'_Library_Python_2_7_site-packages_django_contrib_staticfiles_finders.html'
p1433
sg53
S'/Library/Python/2.7/site-packages/django/contrib/staticfiles/finders'
p1434
sg55
g13
(g14
g15
NtRp1435
(dp1436
g18
I1
sg19
I0
sg20
I158
sg21
I0
sg22
I0
sg23
I121
sg24
I0
sbssg25
S'\xa8\nv\xabZ\xf0a.\xaf\x0b\xa78\xba\n\xa2\x9b'
p1437
ssS'carpoolapp_tests'
p1438
(dp1439
g40
(dp1440
g381
S'carpoolapp_tests.html'
p1441
sg383
S'carpoolapp/tests'
p1442
sg385
g13
(g14
g15
NtRp1443
(dp1444
g18
I1
sg19
I0
sg20
I223
sg21
I0
sg22
I0
sg23
I141
sg24
I0
sbssg46
S'\xcb\xb1z\x96\x99#1)\xa3\xf4\x0b.\x18M\xe1\xed'
p1445
ssS'_Library_Python_2_7_site-packages_south_db_postgresql_psycopg2'
p1446
(dp1447
g40
(dp1448
g8
S'_Library_Python_2_7_site-packages_south_db_postgresql_psycopg2.html'
p1449
sg10
S'/Library/Python/2.7/site-packages/south/db/postgresql_psycopg2'
p1450
sg12
g13
(g14
g15
NtRp1451
(dp1452
g18
I1
sg19
I0
sg20
I44
sg21
I0
sg22
I0
sg23
I31
sg24
I0
sbssg46
S'<e\x82\xd9\xff\xa2\xf6\xe9R\x98N9\x06\xecF\xe4'
p1453
ssS'_Library_Python_2_7_site-packages_django_core_validators'
p1454
(dp1455
g6
(dp1456
g8
S'_Library_Python_2_7_site-packages_django_core_validators.html'
p1457
sg10
S'/Library/Python/2.7/site-packages/django/core/validators'
p1458
sg12
g13
(g14
g15
NtRp1459
(dp1460
g18
I1
sg19
I0
sg20
I157
sg21
I0
sg22
I0
sg23
I86
sg24
I0
sbssg25
S'\xf3\xf8\xd1\x02\x01\xf0\x8a\xe3D\x8a?hk\x87s\x83'
p1461
ssS'_Library_Python_2_7_site-packages_django_contrib_auth_signals'
p1462
(dp1463
g6
(dp1464
g51
S'_Library_Python_2_7_site-packages_django_contrib_auth_signals.html'
p1465
sg53
S'/Library/Python/2.7/site-packages/django/contrib/auth/signals'
p1466
sg55
g13
(g14
g15
NtRp1467
(dp1468
g18
I1
sg19
I0
sg20
I3
sg21
I0
sg22
I0
sg23
I0
sg24
I0
sbssg25
S'\x13\x17\x85\x98\x81\r`\x1b~4\x04;\x16\x9b%L'
p1469
ssS'_Library_Python_2_7_site-packages_django_core_urlresolvers'
p1470
(dp1471
g6
(dp1472
g51
S'_Library_Python_2_7_site-packages_django_core_urlresolvers.html'
p1473
sg53
S'/Library/Python/2.7/site-packages/django/core/urlresolvers'
p1474
sg55
g13
(g14
g15
NtRp1475
(dp1476
g18
I1
sg19
I0
sg20
I339
sg21
I0
sg22
I0
sg23
I269
sg24
I0
sbssg25
S'\n\xe9\xc0\x1f\x92Y\xa4\xbb\xb7\xdc!/\x03\xfdZ%'
p1477
ssS'_Library_Python_2_7_site-packages_django_forms_forms'
p1478
(dp1479
g6
(dp1480
g51
S'_Library_Python_2_7_site-packages_django_forms_forms.html'
p1481
sg53
S'/Library/Python/2.7/site-packages/django/forms/forms'
p1482
sg55
g13
(g14
g15
NtRp1483
(dp1484
g18
I1
sg19
I0
sg20
I280
sg21
I0
sg22
I0
sg23
I196
sg24
I0
sbssg25
S'\x140\xadHhu71\x9e$\xd4\x11\xc0e\tC'
p1485
ssS'_Library_Python_2_7_site-packages_django_core_management_base'
p1486
(dp1487
g6
(dp1488
g150
S'_Library_Python_2_7_site-packages_django_core_management_base.html'
p1489
sg152
S'/Library/Python/2.7/site-packages/django/core/management/base'
p1490
sg154
g13
(g14
g15
NtRp1491
(dp1492
g18
I1
sg19
I0
sg20
I133
sg21
I0
sg22
I0
sg23
I56
sg24
I0
sbssg25
S'\x8e\x15\x17\xb7\xc1\xd2\xd1M\x17\xb0\\6\xb0o\xc7t'
p1493
ssS'_Library_Python_2_7_site-packages_django_contrib_messages_models'
p1494
(dp1495
g40
(dp1496
g8
S'_Library_Python_2_7_site-packages_django_contrib_messages_models.html'
p1497
sg10
S'/Library/Python/2.7/site-packages/django/contrib/messages/models'
p1498
sg12
g13
(g14
g15
NtRp1499
(dp1500
g18
I1
sg19
I0
sg20
I0
sg21
I0
sg22
I0
sg23
I0
sg24
I0
sbssg46
S'}\xf8)\x98N\x1e\xef\xd8Ky\x9f\x03d\x14L\xac'
p1501
ssS'_Library_Python_2_7_site-packages_django_core_files_storage'
p1502
(dp1503
g6
(dp1504
g51
S'_Library_Python_2_7_site-packages_django_core_files_storage.html'
p1505
sg53
S'/Library/Python/2.7/site-packages/django/core/files/storage'
p1506
sg55
g13
(g14
g15
NtRp1507
(dp1508
g18
I1
sg19
I0
sg20
I150
sg21
I0
sg22
I0
sg23
I104
sg24
I0
sbssg25
S'G\xe6\x06\xdc\xdb#\xe2EAMn~]\x1d\xe8\xb8'
p1509
ssS'_Library_Python_2_7_site-packages_django_db_models___init__'
p1510
(dp1511
g6
(dp1512
g51
S'_Library_Python_2_7_site-packages_django_db_models___init__.html'
p1513
sg53
S'/Library/Python/2.7/site-packages/django/db/models/__init__'
p1514
sg55
g13
(g14
g15
NtRp1515
(dp1516
g18
I1
sg19
I0
sg20
I23
sg21
I0
sg22
I0
sg23
I5
sg24
I0
sbssg25
S'B\xac\xe1\xdaQ\x957k\x0e\xba`\x9f\xd0\xa2\xd87'
p1517
ssS'_Library_Python_2_7_site-packages_django_template_loaders_cached'
p1518
(dp1519
g6
(dp1520
g51
S'_Library_Python_2_7_site-packages_django_template_loaders_cached.html'
p1521
sg53
S'/Library/Python/2.7/site-packages/django/template/loaders/cached'
p1522
sg55
g13
(g14
g15
NtRp1523
(dp1524
g18
I1
sg19
I0
sg20
I39
sg21
I0
sg22
I0
sg23
I29
sg24
I0
sbssg25
S'\xbd\x94\xffb;\xa88z\x13\xeezM[\x94x\xb4'
p1525
ssS'_Library_Python_2_7_site-packages_django_core_serializers_base'
p1526
(dp1527
g40
(dp1528
g8
S'_Library_Python_2_7_site-packages_django_core_serializers_base.html'
p1529
sg10
S'/Library/Python/2.7/site-packages/django/core/serializers/base'
p1530
sg12
g13
(g14
g15
NtRp1531
(dp1532
g18
I1
sg19
I0
sg20
I74
sg21
I0
sg22
I0
sg23
I46
sg24
I0
sbssg46
S'\xfca\xe3x\xd1\xc5\x90\x8b\xcd\x06T\x1frS\xb1P'
p1533
ssS'_Library_Python_2_7_site-packages_django_utils__os'
p1534
(dp1535
g6
(dp1536
g51
S'_Library_Python_2_7_site-packages_django_utils__os.html'
p1537
sg53
S'/Library/Python/2.7/site-packages/django/utils/_os'
p1538
sg55
g13
(g14
g15
NtRp1539
(dp1540
g18
I1
sg19
I0
sg20
I32
sg21
I0
sg22
I0
sg23
I19
sg24
I0
sbssg25
S'\x00\x87*\xe1Z\xd9w\xa9\xefK\xab/\xb8P4\xe7'
p1541
ssS'_Library_Python_2_7_site-packages_django_core_paginator'
p1542
(dp1543
g40
(dp1544
g8
S'_Library_Python_2_7_site-packages_django_core_paginator.html'
p1545
sg10
S'/Library/Python/2.7/site-packages/django/core/paginator'
p1546
sg12
g13
(g14
g15
NtRp1547
(dp1548
g18
I1
sg19
I0
sg20
I103
sg21
I0
sg22
I0
sg23
I69
sg24
I0
sbssg46
S'l\x81\xf4\xe4\xf0\xa1\xe9\x101\xd8\x90y\xed\xdb_\x81'
p1549
ssS'_Library_Python_2_7_site-packages_django_utils_crypto'
p1550
(dp1551
g6
(dp1552
g51
S'_Library_Python_2_7_site-packages_django_utils_crypto.html'
p1553
sg53
S'/Library/Python/2.7/site-packages/django/utils/crypto'
p1554
sg55
g13
(g14
g15
NtRp1555
(dp1556
g18
I1
sg19
I0
sg20
I68
sg21
I0
sg22
I0
sg23
I48
sg24
I0
sbssg25
S'\xa3\xc5}l\x04ww\x01\xe1\xf0$\xbc\x1dW\xe7\x06'
p1557
ssS'_Library_Python_2_7_site-packages_django_core_handlers_base'
p1558
(dp1559
g6
(dp1560
g51
S'_Library_Python_2_7_site-packages_django_core_handlers_base.html'
p1561
sg53
S'/Library/Python/2.7/site-packages/django/core/handlers/base'
p1562
sg55
g13
(g14
g15
NtRp1563
(dp1564
g18
I1
sg19
I0
sg20
I151
sg21
I0
sg22
I0
sg23
I136
sg24
I0
sbssg25
S'\xdad\xee\x14\x17\x9bxc\xbc\xbd@:}Z\x18\xe1'
p1565
ssS'_Library_Python_2_7_site-packages_django_core_files___init__'
p1566
(dp1567
g6
(dp1568
g51
S'_Library_Python_2_7_site-packages_django_core_files___init__.html'
p1569
sg53
S'/Library/Python/2.7/site-packages/django/core/files/__init__'
p1570
sg55
g13
(g14
g15
NtRp1571
(dp1572
g18
I1
sg19
I0
sg20
I1
sg21
I0
sg22
I0
sg23
I0
sg24
I0
sbssg25
S"\xa1\xbfiA'\x85B\x1e\xd8\xe0\x91\xe3\xf7\x86\x81\xb2"
p1573
ssS'_Library_Python_2_7_site-packages_django_db_models_base'
p1574
(dp1575
g6
(dp1576
g648
S'_Library_Python_2_7_site-packages_django_db_models_base.html'
p1577
sg650
S'/Library/Python/2.7/site-packages/django/db/models/base'
p1578
sg652
g13
(g14
g15
NtRp1579
(dp1580
g18
I1
sg19
I0
sg20
I501
sg21
I0
sg22
I0
sg23
I287
sg24
I0
sbssg25
S'A\x12\xf4\xa5\x07\xc9\xcc\x12\x8e\x7fd\xc8g1\xfb\x88'
p1581
ssS'_Library_Python_2_7_site-packages_django_core_mail_utils'
p1582
(dp1583
g6
(dp1584
g51
S'_Library_Python_2_7_site-packages_django_core_mail_utils.html'
p1585
sg53
S'/Library/Python/2.7/site-packages/django/core/mail/utils'
p1586
sg55
g13
(g14
g15
NtRp1587
(dp1588
g18
I1
sg19
I0
sg20
I9
sg21
I0
sg22
I0
sg23
I4
sg24
I0
sbssg25
S'q\x8f\x86\xa8\x10\xa1\x04\x98^\x0e\xe8\x93\xb7X\xaan'
p1589
ssS'_Library_Python_2_7_site-packages_django_conf_locale_en_formats'
p1590
(dp1591
g40
(dp1592
g8
S'_Library_Python_2_7_site-packages_django_conf_locale_en_formats.html'
p1593
sg10
S'/Library/Python/2.7/site-packages/django/conf/locale/en/formats'
p1594
sg12
g13
(g14
g15
NtRp1595
(dp1596
g18
I1
sg19
I0
sg20
I14
sg21
I0
sg22
I0
sg23
I0
sg24
I0
sbssg46
S"\x93\xc2\xcc\x9d\xd2\x99\xd1G=\xce'\xb0K\x93#R"
p1597
ssS'_Library_Python_2_7_site-packages_django_contrib_admin_options'
p1598
(dp1599
g40
(dp1600
g8
S'_Library_Python_2_7_site-packages_django_contrib_admin_options.html'
p1601
sg10
S'/Library/Python/2.7/site-packages/django/contrib/admin/options'
p1602
sg12
g13
(g14
g15
NtRp1603
(dp1604
g18
I1
sg19
I0
sg20
I735
sg21
I0
sg22
I0
sg23
I575
sg24
I0
sbssg46
S'\xc8\x08r%t\xb5\x9d}<\x1eQ\x8ezF\\\x9c'
p1605
ssS'_Library_Python_2_7_site-packages_django_test___init__'
p1606
(dp1607
g6
(dp1608
g51
S'_Library_Python_2_7_site-packages_django_test___init__.html'
p1609
sg53
S'/Library/Python/2.7/site-packages/django/test/__init__'
p1610
sg55
g13
(g14
g15
NtRp1611
(dp1612
g18
I1
sg19
I0
sg20
I3
sg21
I0
sg22
I0
sg23
I0
sg24
I0
sbssg25
S'~\xbeB^\xffy\x92\x8f\x9e\xd7\xdc\xd8\xa1\xe5\xe0\x03'
p1613
ssS'_Library_Python_2_7_site-packages_django_core_serializers___init__'
p1614
(dp1615
g40
(dp1616
g8
S'_Library_Python_2_7_site-packages_django_core_serializers___init__.html'
p1617
sg10
S'/Library/Python/2.7/site-packages/django/core/serializers/__init__'
p1618
sg12
g13
(g14
g15
NtRp1619
(dp1620
g18
I1
sg19
I0
sg20
I58
sg21
I0
sg22
I0
sg23
I40
sg24
I0
sbssg46
S'\x89\xbaB\x85\x82\xf4\n3d!d\xbf\xab\xe9e\x1a'
p1621
ssS'_Library_Python_2_7_site-packages_django_test_signals'
p1622
(dp1623
g6
(dp1624
g51
S'_Library_Python_2_7_site-packages_django_test_signals.html'
p1625
sg53
S'/Library/Python/2.7/site-packages/django/test/signals'
p1626
sg55
g13
(g14
g15
NtRp1627
(dp1628
g18
I1
sg19
I0
sg20
I17
sg21
I0
sg22
I0
sg23
I10
sg24
I0
sbssg25
S'6\xfb\xb9q?8\xcb\x90\x15G}\x9b\x9b\x8d\x82\x9d'
p1629
ssS'_Library_Python_2_7_site-packages_django_db_models_fields_subclassing'
p1630
(dp1631
g6
(dp1632
g51
S'_Library_Python_2_7_site-packages_django_db_models_fields_subclassing.html'
p1633
sg53
S'/Library/Python/2.7/site-packages/django/db/models/fields/subclassing'
p1634
sg55
g13
(g14
g15
NtRp1635
(dp1636
g18
I1
sg19
I0
sg20
I21
sg21
I0
sg22
I0
sg23
I14
sg24
I0
sbssg25
S'\x94\xfa\xe1\x9f\xf6\xcb\xa6\xb1N\xc5v\xa4\xcb\x9e\xd0n'
p1637
ssS'_Library_Python_2_7_site-packages_django_contrib_staticfiles_templatetags_staticfiles'
p1638
(dp1639
g40
(dp1640
g8
S'_Library_Python_2_7_site-packages_django_contrib_staticfiles_templatetags_staticfiles.html'
p1641
sg10
S'/Library/Python/2.7/site-packages/django/contrib/staticfiles/templatetags/staticfiles'
p1642
sg12
g13
(g14
g15
NtRp1643
(dp1644
g18
I1
sg19
I0
sg20
I5
sg21
I0
sg22
I0
sg23
I1
sg24
I0
sbssg46
S'\x83Er\x85\xa40\xc8\x00]b\x13\xde%\xb7\xc7\xc2'
p1645
ssS'_Library_Python_2_7_site-packages_django_test_testcases'
p1646
(dp1647
g6
(dp1648
g51
S'_Library_Python_2_7_site-packages_django_test_testcases.html'
p1649
sg53
S'/Library/Python/2.7/site-packages/django/test/testcases'
p1650
sg55
g13
(g14
g15
NtRp1651
(dp1652
g18
I1
sg19
I0
sg20
I583
sg21
I0
sg22
I0
sg23
I456
sg24
I0
sbssg25
S'\xe0\xb8]0>\xf2\x13@\xaf\xc3\xf4.vl[\xd3'
p1653
ssS'_Library_Python_2_7_site-packages_django_contrib_staticfiles___init__'
p1654
(dp1655
g6
(dp1656
g51
S'_Library_Python_2_7_site-packages_django_contrib_staticfiles___init__.html'
p1657
sg53
S'/Library/Python/2.7/site-packages/django/contrib/staticfiles/__init__'
p1658
sg55
g13
(g14
g15
NtRp1659
(dp1660
g18
I1
sg19
I0
sg20
I0
sg21
I0
sg22
I0
sg23
I0
sg24
I0
sbssg25
S'\xb0\xc8pN\xaf>\xa0\xbaz\x144\xe0A9\xb8?'
p1661
ssS'_Library_Python_2_7_site-packages_django_db_models_query_utils'
p1662
(dp1663
g6
(dp1664
g8
S'_Library_Python_2_7_site-packages_django_db_models_query_utils.html'
p1665
sg10
S'/Library/Python/2.7/site-packages/django/db/models/query_utils'
p1666
sg12
g13
(g14
g15
NtRp1667
(dp1668
g18
I1
sg19
I0
sg20
I78
sg21
I0
sg22
I0
sg23
I53
sg24
I0
sbssg25
S'\x81r,\xe6%{i\xa9EW\xc8\x03\x0b\xe9\x80\xdd'
p1669
ssS'_Library_Python_2_7_site-packages_django_utils_regex_helper'
p1670
(dp1671
g6
(dp1672
g51
S'_Library_Python_2_7_site-packages_django_utils_regex_helper.html'
p1673
sg53
S'/Library/Python/2.7/site-packages/django/utils/regex_helper'
p1674
sg55
g13
(g14
g15
NtRp1675
(dp1676
g18
I1
sg19
I0
sg20
I185
sg21
I0
sg22
I0
sg23
I175
sg24
I0
sbssg25
S'2\x17q\n3`<\x0f\xce\x8az\xb4\xd1\xc7s7'
p1677
ssS'_Library_Python_2_7_site-packages_django_utils_unittest_util'
p1678
(dp1679
g6
(dp1680
g51
S'_Library_Python_2_7_site-packages_django_utils_unittest_util.html'
p1681
sg53
S'/Library/Python/2.7/site-packages/django/utils/unittest/util'
p1682
sg55
g13
(g14
g15
NtRp1683
(dp1684
g18
I1
sg19
I0
sg20
I74
sg21
I0
sg22
I0
sg23
I67
sg24
I0
sbssg25
S'\xb2x_,\x84YY\x16\x91\xcb5(\xe8\x1c<\t'
p1685
ssS'_Library_Python_2_7_site-packages_validate_email'
p1686
(dp1687
g40
(dp1688
g8
S'_Library_Python_2_7_site-packages_validate_email.html'
p1689
sg10
S'/Library/Python/2.7/site-packages/validate_email'
p1690
sg12
g13
(g14
g15
NtRp1691
(dp1692
g18
I1
sg19
I0
sg20
I59
sg21
I0
sg22
I0
sg23
I20
sg24
I0
sbssg46
S"A\xf01\x95PU\x06O\xe7\x85\x05\xbe'\x15h\x87"
p1693
ssS'_Library_Python_2_7_site-packages_django_utils_importlib'
p1694
(dp1695
g6
(dp1696
g51
S'_Library_Python_2_7_site-packages_django_utils_importlib.html'
p1697
sg53
S'/Library/Python/2.7/site-packages/django/utils/importlib'
p1698
sg55
g13
(g14
g15
NtRp1699
(dp1700
g18
I1
sg19
I0
sg20
I23
sg21
I0
sg22
I0
sg23
I6
sg24
I0
sbssg25
S'\xba\x10A\xccg\xac\xd0\xe2\xb9QBQ3\x8d\xc0\x01'
p1701
ssS'_Library_Python_2_7_site-packages_django_middleware___init__'
p1702
(dp1703
g40
(dp1704
g8
S'_Library_Python_2_7_site-packages_django_middleware___init__.html'
p1705
sg10
S'/Library/Python/2.7/site-packages/django/middleware/__init__'
p1706
sg12
g13
(g14
g15
NtRp1707
(dp1708
g18
I1
sg19
I0
sg20
I0
sg21
I0
sg22
I0
sg23
I0
sg24
I0
sbssg46
S'\xb0\xc8pN\xaf>\xa0\xbaz\x144\xe0A9\xb8?'
p1709
ssS'_Library_Python_2_7_site-packages_south_orm'
p1710
(dp1711
g40
(dp1712
g8
S'_Library_Python_2_7_site-packages_south_orm.html'
p1713
sg10
S'/Library/Python/2.7/site-packages/south/orm'
p1714
sg12
g13
(g14
g15
NtRp1715
(dp1716
g18
I1
sg19
I0
sg20
I210
sg21
I0
sg22
I0
sg23
I179
sg24
I0
sbssg46
S"^\x14Q\xcf\x19\x196'\xdf\x8a\xc2VI\xc2n:"
p1717
ssS'_Library_Python_2_7_site-packages_django_conf_locale_en___init__'
p1718
(dp1719
g40
(dp1720
g8
S'_Library_Python_2_7_site-packages_django_conf_locale_en___init__.html'
p1721
sg10
S'/Library/Python/2.7/site-packages/django/conf/locale/en/__init__'
p1722
sg12
g13
(g14
g15
NtRp1723
(dp1724
g18
I1
sg19
I0
sg20
I0
sg21
I0
sg22
I0
sg23
I0
sg24
I0
sbssg46
S'\xb0\xc8pN\xaf>\xa0\xbaz\x144\xe0A9\xb8?'
p1725
ssS'_Library_Python_2_7_site-packages_django_contrib_sessions_models'
p1726
(dp1727
g40
(dp1728
g8
S'_Library_Python_2_7_site-packages_django_contrib_sessions_models.html'
p1729
sg10
S'/Library/Python/2.7/site-packages/django/contrib/sessions/models'
p1730
sg12
g13
(g14
g15
NtRp1731
(dp1732
g18
I1
sg19
I0
sg20
I23
sg21
I0
sg22
I0
sg23
I7
sg24
I0
sbssg46
S'< \xef\x96\xa0\x8c\xd8\xe9~\n\xbb7\xe7U\xf3['
p1733
ssS'_Library_Python_2_7_site-packages_django_db_backends_postgresql_psycopg2_base'
p1734
(dp1735
g6
(dp1736
g8
S'_Library_Python_2_7_site-packages_django_db_backends_postgresql_psycopg2_base.html'
p1737
sg10
S'/Library/Python/2.7/site-packages/django/db/backends/postgresql_psycopg2/base'
p1738
sg12
g13
(g14
g15
NtRp1739
(dp1740
g18
I1
sg19
I0
sg20
I154
sg21
I0
sg22
I0
sg23
I38
sg24
I0
sbssg25
S'\xc3M\xf871\x9f$\xe8\x91\x10?W\xe7\xf3\xc4U'
p1741
ssS'_Library_Python_2_7_site-packages_django_template_loaders_app_directories'
p1742
(dp1743
g40
(dp1744
g8
S'_Library_Python_2_7_site-packages_django_template_loaders_app_directories.html'
p1745
sg10
S'/Library/Python/2.7/site-packages/django/template/loaders/app_directories'
p1746
sg12
g13
(g14
g15
NtRp1747
(dp1748
g18
I1
sg19
I0
sg20
I42
sg21
I0
sg22
I0
sg23
I20
sg24
I0
sbssg46
S'\x0b=hb\xe7\xba\x95^\r\x85\xe1ja]rL'
p1749
ssS'_Library_Python_2_7_site-packages_django_db_backends_postgresql_psycopg2_introspection'
p1750
(dp1751
g6
(dp1752
g8
S'_Library_Python_2_7_site-packages_django_db_backends_postgresql_psycopg2_introspection.html'
p1753
sg10
S'/Library/Python/2.7/site-packages/django/db/backends/postgresql_psycopg2/introspection'
p1754
sg12
g13
(g14
g15
NtRp1755
(dp1756
g18
I1
sg19
I0
sg20
I25
sg21
I0
sg22
I0
sg23
I16
sg24
I0
sbssg25
S'\x92\xd68\x82%\xc0\xc8\xbc\xe9\xa5\xfb\x07\xf9\t5\x87'
p1757
ssS'_Library_Python_2_7_site-packages_django_template_defaulttags'
p1758
(dp1759
g6
(dp1760
g51
S'_Library_Python_2_7_site-packages_django_template_defaulttags.html'
p1761
sg53
S'/Library/Python/2.7/site-packages/django/template/defaulttags'
p1762
sg55
g13
(g14
g15
NtRp1763
(dp1764
g18
I1
sg19
I0
sg20
I613
sg21
I0
sg22
I0
sg23
I502
sg24
I0
sbssg25
S'g\xf1\x83\xf1&T\x08e2f\x06\xb2*A@\x87'
p1765
ssS'_Library_Python_2_7_site-packages_django_contrib_contenttypes_management'
p1766
(dp1767
g40
(dp1768
g8
S'_Library_Python_2_7_site-packages_django_contrib_contenttypes_management.html'
p1769
sg10
S'/Library/Python/2.7/site-packages/django/contrib/contenttypes/management'
p1770
sg12
g13
(g14
g15
NtRp1771
(dp1772
g18
I1
sg19
I0
sg20
I34
sg21
I0
sg22
I0
sg23
I16
sg24
I0
sbssg46
S'\xd2\xa7CS\xcd\x03C\xa7\x93\x97MR0>\x84e'
p1773
ssS'_Library_Python_2_7_site-packages_django_contrib_messages_storage___init__'
p1774
(dp1775
g40
(dp1776
g8
S'_Library_Python_2_7_site-packages_django_contrib_messages_storage___init__.html'
p1777
sg10
S'/Library/Python/2.7/site-packages/django/contrib/messages/storage/__init__'
p1778
sg12
g13
(g14
g15
NtRp1779
(dp1780
g18
I1
sg19
I0
sg20
I18
sg21
I0
sg22
I0
sg23
I13
sg24
I0
sbssg46
S'\xa0\t\xb5\xe9\x01S\x15\\f\x1d\xb6\xd2t\x937\x8a'
p1781
ssS'_Library_Python_2_7_site-packages_django_contrib_admin_models'
p1782
(dp1783
g40
(dp1784
g8
S'_Library_Python_2_7_site-packages_django_contrib_admin_models.html'
p1785
sg10
S'/Library/Python/2.7/site-packages/django/contrib/admin/models'
p1786
sg12
g13
(g14
g15
NtRp1787
(dp1788
g18
I1
sg19
I0
sg20
I50
sg21
I0
sg22
I0
sg23
I17
sg24
I0
sbssg46
S'\x01\x0byuK}\x1eM\xc7\xc6Yf\x8f=\xd3\xbf'
p1789
ssS'_Library_Python_2_7_site-packages_django_contrib_staticfiles_templatetags___init__'
p1790
(dp1791
g40
(dp1792
g8
S'_Library_Python_2_7_site-packages_django_contrib_staticfiles_templatetags___init__.html'
p1793
sg10
S'/Library/Python/2.7/site-packages/django/contrib/staticfiles/templatetags/__init__'
p1794
sg12
g13
(g14
g15
NtRp1795
(dp1796
g18
I1
sg19
I0
sg20
I0
sg21
I0
sg22
I0
sg23
I0
sg24
I0
sbssg46
S'\xb0\xc8pN\xaf>\xa0\xbaz\x144\xe0A9\xb8?'
p1797
ssS'_Library_Python_2_7_site-packages_django_contrib_admin_util'
p1798
(dp1799
g40
(dp1800
g8
S'_Library_Python_2_7_site-packages_django_contrib_admin_util.html'
p1801
sg10
S'/Library/Python/2.7/site-packages/django/contrib/admin/util'
p1802
sg12
g13
(g14
g15
NtRp1803
(dp1804
g18
I1
sg19
I0
sg20
I256
sg21
I0
sg22
I0
sg23
I217
sg24
I0
sbssg46
S'U\x0b\xcc\xa7dQ\x96k\x9bc\x9e\x19\xc7\x9f?b'
p1805
ssS'_Library_Python_2_7_site-packages_psycopg2_tz'
p1806
(dp1807
g6
(dp1808
g51
S'_Library_Python_2_7_site-packages_psycopg2_tz.html'
p1809
sg53
S'/Library/Python/2.7/site-packages/psycopg2/tz'
p1810
sg55
g13
(g14
g15
NtRp1811
(dp1812
g18
I1
sg19
I0
sg20
I61
sg21
I0
sg22
I0
sg23
I37
sg24
I0
sbssg25
S'\x8a\x91&\x8c\x99\xa5\xaa|k3l\xbe(\xb4\xfe8'
p1813
ssS'_Library_Python_2_7_site-packages_django_core_files_uploadedfile'
p1814
(dp1815
g6
(dp1816
g51
S'_Library_Python_2_7_site-packages_django_core_files_uploadedfile.html'
p1817
sg53
S'/Library/Python/2.7/site-packages/django/core/files/uploadedfile'
p1818
sg55
g13
(g14
g15
NtRp1819
(dp1820
g18
I1
sg19
I0
sg20
I63
sg21
I0
sg22
I0
sg23
I34
sg24
I0
sbssg25
S'yv\x0b\xbdw\xa4\xc6\xdf\xafC\xedY\xae\xd2\xc2\xda'
p1821
ssS'_Library_Python_2_7_site-packages_django_db_backends_postgresql_psycopg2_creation'
p1822
(dp1823
g6
(dp1824
g8
S'_Library_Python_2_7_site-packages_django_db_backends_postgresql_psycopg2_creation.html'
p1825
sg10
S'/Library/Python/2.7/site-packages/django/db/backends/postgresql_psycopg2/creation'
p1826
sg12
g13
(g14
g15
NtRp1827
(dp1828
g18
I1
sg19
I0
sg20
I35
sg21
I0
sg22
I0
sg23
I7
sg24
I0
sbssg25
S'\x9c\xa8\xd2\x1a\x05\xd1\xb7\x80\xeeS\x12\xaa\x1dnI\xee'
p1829
ssS'_Library_Python_2_7_site-packages_django_db_backends_creation'
p1830
(dp1831
g6
(dp1832
g8
S'_Library_Python_2_7_site-packages_django_db_backends_creation.html'
p1833
sg10
S'/Library/Python/2.7/site-packages/django/db/backends/creation'
p1834
sg12
g13
(g14
g15
NtRp1835
(dp1836
g18
I1
sg19
I0
sg20
I212
sg21
I0
sg22
I0
sg23
I72
sg24
I0
sbssg25
S'\xa8\xb3\x8c\xed\x02\x861r\x80\xb9|\xee\x89\xe6\xe1\xbc'
p1837
ssS'_Library_Python_2_7_site-packages_django_core_mail_message'
p1838
(dp1839
g6
(dp1840
g381
S'_Library_Python_2_7_site-packages_django_core_mail_message.html'
p1841
sg383
S'/Library/Python/2.7/site-packages/django/core/mail/message'
p1842
sg385
g13
(g14
g15
NtRp1843
(dp1844
g18
I1
sg19
I0
sg20
I210
sg21
I0
sg22
I0
sg23
I138
sg24
I0
sbssg25
S'\xda\x07\xe2\xdd\xf0\xbcX\xfe<\xc0Oe\x98hh`'
p1845
ssS'_Library_Python_2_7_site-packages_south_db___init__'
p1846
(dp1847
g40
(dp1848
g8
S'_Library_Python_2_7_site-packages_south_db___init__.html'
p1849
sg10
S'/Library/Python/2.7/site-packages/south/db/__init__'
p1850
sg12
g13
(g14
g15
NtRp1851
(dp1852
g18
I1
sg19
I0
sg20
I24
sg21
I0
sg22
I0
sg23
I9
sg24
I0
sbssg46
S'\xff\x0e\xb2\x8d\xb9x\xab1H}\\\x8e\x8f\xe5",'
p1853
ssS'_Library_Python_2_7_site-packages_django_core_cache_backends___init__'
p1854
(dp1855
g6
(dp1856
g51
S'_Library_Python_2_7_site-packages_django_core_cache_backends___init__.html'
p1857
sg53
S'/Library/Python/2.7/site-packages/django/core/cache/backends/__init__'
p1858
sg55
g13
(g14
g15
NtRp1859
(dp1860
g18
I1
sg19
I0
sg20
I0
sg21
I0
sg22
I0
sg23
I0
sg24
I0
sbssg25
S'\xb0\xc8pN\xaf>\xa0\xbaz\x144\xe0A9\xb8?'
p1861
ssS'_Library_Python_2_7_site-packages_django_template_defaultfilters'
p1862
(dp1863
g6
(dp1864
g51
S'_Library_Python_2_7_site-packages_django_template_defaultfilters.html'
p1865
sg53
S'/Library/Python/2.7/site-packages/django/template/defaultfilters'
p1866
sg55
g13
(g14
g15
NtRp1867
(dp1868
g18
I1
sg19
I0
sg20
I457
sg21
I0
sg22
I0
sg23
I326
sg24
I0
sbssg25
S'\xb8\xee\x1e9\xb8a\x93\xb8\xec\xec\xd2\x124A\xc8&'
p1869
ssS'_Library_Python_2_7_site-packages_south_exceptions'
p1870
(dp1871
g40
(dp1872
g8
S'_Library_Python_2_7_site-packages_south_exceptions.html'
p1873
sg10
S'/Library/Python/2.7/site-packages/south/exceptions'
p1874
sg12
g13
(g14
g15
NtRp1875
(dp1876
g18
I1
sg19
I0
sg20
I92
sg21
I0
sg22
I0
sg23
I42
sg24
I0
sbssg46
S"\xf6\xb5\xe7\xed\x83\xa5E\xca\x95\x13\x82 w'\xe1\x99"
p1877
ssS'_Library_Python_2_7_site-packages_south_migration_utils'
p1878
(dp1879
g40
(dp1880
g8
S'_Library_Python_2_7_site-packages_south_migration_utils.html'
p1881
sg10
S'/Library/Python/2.7/site-packages/south/migration/utils'
p1882
sg12
g13
(g14
g15
NtRp1883
(dp1884
g18
I1
sg19
I0
sg20
I55
sg21
I0
sg22
I0
sg23
I33
sg24
I0
sbssg46
S'\xad\xb9E\xb6\tu\xaa}\x8byA\xb9\xc60\xde8'
p1885
ssS'_Library_Python_2_7_site-packages_django_utils_translation_trans_real'
p1886
(dp1887
g6
(dp1888
g8
S'_Library_Python_2_7_site-packages_django_utils_translation_trans_real.html'
p1889
sg10
S'/Library/Python/2.7/site-packages/django/utils/translation/trans_real'
p1890
sg12
g13
(g14
g15
NtRp1891
(dp1892
g18
I1
sg19
I0
sg20
I365
sg21
I0
sg22
I0
sg23
I226
sg24
I0
sbssg25
S"\x14:\xab+qr&'\xc6\xd3\x0b\xac\x8b1^!"
p1893
ssS'_Library_Python_2_7_site-packages_django_core_exceptions'
p1894
(dp1895
g6
(dp1896
g51
S'_Library_Python_2_7_site-packages_django_core_exceptions.html'
p1897
sg53
S'/Library/Python/2.7/site-packages/django/core/exceptions'
p1898
sg55
g13
(g14
g15
NtRp1899
(dp1900
g18
I1
sg19
I0
sg20
I48
sg21
I0
sg22
I0
sg23
I24
sg24
I0
sbssg25
S'a\xe3\xad\nKH\xdek\xda\xd5\x03\x9fP\x15\xc6\xc6'
p1901
ssS'_Library_Python_2_7_site-packages_django_core_mail_backends_locmem'
p1902
(dp1903
g379
(dp1904
g381
S'_Library_Python_2_7_site-packages_django_core_mail_backends_locmem.html'
p1905
sg383
S'/Library/Python/2.7/site-packages/django/core/mail/backends/locmem'
p1906
sg385
g13
(g14
g15
NtRp1907
(dp1908
g18
I1
sg19
I0
sg20
I10
sg21
I0
sg22
I0
sg23
I1
sg24
I0
sbssg388
S'\xb6\x11\x81\xba\xb1\xf7\xee\xeb<4\xad*&\xe0\xb7\xe6'
p1909
ssS'carpoolapp_testUtils'
p1910
(dp1911
g40
(dp1912
g8
S'carpoolapp_testUtils.html'
p1913
sg10
S'carpoolapp/testUtils'
p1914
sg12
g13
(g14
g15
NtRp1915
(dp1916
g18
I1
sg19
I0
sg20
I55
sg21
I0
sg22
I0
sg23
I0
sg24
I0
sbssg46
S'\xc2\x04YV\x8d6\x8d\xfe\x90\x87>W3z\x1c\xec'
p1917
ssS'_Library_Python_2_7_site-packages_south_signals'
p1918
(dp1919
g40
(dp1920
g8
S'_Library_Python_2_7_site-packages_south_signals.html'
p1921
sg10
S'/Library/Python/2.7/site-packages/south/signals'
p1922
sg12
g13
(g14
g15
NtRp1923
(dp1924
g18
I1
sg19
I0
sg20
I5
sg21
I0
sg22
I0
sg23
I0
sg24
I0
sbssg46
S']\x7fp!\xd57kP\xa7oZjp4\x8eu'
p1925
ssS'carpoolapp_unitTest'
p1926
(dp1927
g40
(dp1928
g313
S'carpoolapp_unitTest.html'
p1929
sg315
S'carpoolapp/unitTest'
p1930
sg317
g13
(g14
g15
NtRp1931
(dp1932
g18
I1
sg19
I0
sg20
I906
sg21
I0
sg22
I0
sg23
I0
sg24
I0
sbssg46
S'v) \xd4Z\xf6D\xe5\xce\xb33}3\xef\xc5\xad'
p1933
ssS'_Library_Python_2_7_site-packages_django_core_serializers_json'
p1934
(dp1935
g40
(dp1936
g939
S'_Library_Python_2_7_site-packages_django_core_serializers_json.html'
p1937
sg941
S'/Library/Python/2.7/site-packages/django/core/serializers/json'
p1938
sg943
g13
(g14
g15
NtRp1939
(dp1940
g18
I1
sg19
I0
sg20
I50
sg21
I0
sg22
I0
sg23
I25
sg24
I0
sbssg46
S'\xa9\xcd\xe5\xd4\xc9\xa3\xccC!\x92\x95hK\xd1\xc1K'
p1941
ssS'_Library_Python_2_7_site-packages_django_template_response'
p1942
(dp1943
g40
(dp1944
g8
S'_Library_Python_2_7_site-packages_django_template_response.html'
p1945
sg10
S'/Library/Python/2.7/site-packages/django/template/response'
p1946
sg12
g13
(g14
g15
NtRp1947
(dp1948
g18
I1
sg19
I0
sg20
I72
sg21
I0
sg22
I0
sg23
I50
sg24
I0
sbssg46
S'\xb1\xac\xaba\xdcM\xb4\x07\xb1\xe5\xcb\xf3\x13&v\xf8'
p1949
ssS'_Library_Python_2_7_site-packages_django_db_models_sql_compiler'
p1950
(dp1951
g40
(dp1952
g30
S'_Library_Python_2_7_site-packages_django_db_models_sql_compiler.html'
p1953
sg32
S'/Library/Python/2.7/site-packages/django/db/models/sql/compiler'
p1954
sg34
g13
(g14
g15
NtRp1955
(dp1956
g18
I1
sg19
I0
sg20
I653
sg21
I0
sg22
I0
sg23
I324
sg24
I0
sbssg46
S'\xa6\xebU\\7?\x8aU\xefe\xc6\xa1\xc1\x80e\xa3'
p1957
ssS'_Library_Python_2_7_site-packages_django_contrib_staticfiles_views'
p1958
(dp1959
g6
(dp1960
g51
S'_Library_Python_2_7_site-packages_django_contrib_staticfiles_views.html'
p1961
sg53
S'/Library/Python/2.7/site-packages/django/contrib/staticfiles/views'
p1962
sg55
g13
(g14
g15
NtRp1963
(dp1964
g18
I1
sg19
I0
sg20
I19
sg21
I0
sg22
I0
sg23
I10
sg24
I0
sbssg25
S'Vs\xc8u\t8L5\x1d\x00\x8b\x0c&\xbd  '
p1965
ssS'_Library_Python_2_7_site-packages_django_contrib_contenttypes_models'
p1966
(dp1967
g40
(dp1968
g8
S'_Library_Python_2_7_site-packages_django_contrib_contenttypes_models.html'
p1969
sg10
S'/Library/Python/2.7/site-packages/django/contrib/contenttypes/models'
p1970
sg12
g13
(g14
g15
NtRp1971
(dp1972
g18
I1
sg19
I0
sg20
I91
sg21
I0
sg22
I0
sg23
I45
sg24
I0
sbssg46
S'\xa2X\xbdIa\x05\x16m\xea%\xd8\x1e\x81\xa2\xc2\xa1'
p1973
ssS'_Library_Python_2_7_site-packages_south_models'
p1974
(dp1975
g40
(dp1976
g8
S'_Library_Python_2_7_site-packages_south_models.html'
p1977
sg10
S'/Library/Python/2.7/site-packages/south/models'
p1978
sg12
g13
(g14
g15
NtRp1979
(dp1980
g18
I1
sg19
I0
sg20
I21
sg21
I0
sg22
I0
sg23
I11
sg24
I0
sbssg46
S'\x0b\x1b\xa5\x01\x13\xbe\x84\xa8\xdf \xb2+\xdf\xbf\xcc\xe2'
p1981
ssS'_Library_Python_2_7_site-packages_django_db_models_sql_expressions'
p1982
(dp1983
g6
(dp1984
g51
S'_Library_Python_2_7_site-packages_django_db_models_sql_expressions.html'
p1985
sg53
S'/Library/Python/2.7/site-packages/django/db/models/sql/expressions'
p1986
sg55
g13
(g14
g15
NtRp1987
(dp1988
g18
I1
sg19
I0
sg20
I61
sg21
I0
sg22
I0
sg23
I48
sg24
I0
sbssg25
S'g\x06[\x98\xcbA\xf39\xba=F\xdf\xd4\x8dJ\x9f'
p1989
ssS'_Library_Python_2_7_site-packages_django_db_backends_postgresql_psycopg2_operations'
p1990
(dp1991
g6
(dp1992
g8
S'_Library_Python_2_7_site-packages_django_db_backends_postgresql_psycopg2_operations.html'
p1993
sg10
S'/Library/Python/2.7/site-packages/django/db/backends/postgresql_psycopg2/operations'
p1994
sg12
g13
(g14
g15
NtRp1995
(dp1996
g18
I1
sg19
I0
sg20
I99
sg21
I0
sg22
I0
sg23
I44
sg24
I0
sbssg25
S'x\xbd~\xe7>R\xf1\xf3\n\xe0&\xfb\x10"\xf40'
p1997
ssS'_Library_Python_2_7_site-packages_django_core_mail_backends___init__'
p1998
(dp1999
g379
(dp2000
g381
S'_Library_Python_2_7_site-packages_django_core_mail_backends___init__.html'
p2001
sg383
S'/Library/Python/2.7/site-packages/django/core/mail/backends/__init__'
p2002
sg385
g13
(g14
g15
NtRp2003
(dp2004
g18
I1
sg19
I0
sg20
I0
sg21
I0
sg22
I0
sg23
I0
sg24
I0
sbssg388
S'Yd\x89\xd2u\xf7\x1dgvmQ.\xe1\xce/\xd0'
p2005
ssS'_Library_Python_2_7_site-packages_django_utils_ipv6'
p2006
(dp2007
g6
(dp2008
g51
S'_Library_Python_2_7_site-packages_django_utils_ipv6.html'
p2009
sg53
S'/Library/Python/2.7/site-packages/django/utils/ipv6'
p2010
sg55
g13
(g14
g15
NtRp2011
(dp2012
g18
I1
sg19
I0
sg20
I107
sg21
I0
sg22
I0
sg23
I100
sg24
I0
sbssg25
S'J^YM\xe4\x01\xa3\xee\xad\x9chj"c\x15~'
p2013
ssS'_Library_Python_2_7_site-packages_django_middleware_csrf'
p2014
(dp2015
g40
(dp2016
g8
S'_Library_Python_2_7_site-packages_django_middleware_csrf.html'
p2017
sg10
S'/Library/Python/2.7/site-packages/django/middleware/csrf'
p2018
sg12
g13
(g14
g15
NtRp2019
(dp2020
g18
I1
sg19
I0
sg20
I82
sg21
I0
sg22
I0
sg23
I58
sg24
I0
sbssg46
S'M\xd3.z\x18\xb9\x8d\xbf\x0bU6\xb8D\x06\xca\x04'
p2021
ssS'_Library_Python_2_7_site-packages_django_contrib_auth_tokens'
p2022
(dp2023
g40
(dp2024
g8
S'_Library_Python_2_7_site-packages_django_contrib_auth_tokens.html'
p2025
sg10
S'/Library/Python/2.7/site-packages/django/contrib/auth/tokens'
p2026
sg12
g13
(g14
g15
NtRp2027
(dp2028
g18
I1
sg19
I0
sg20
I33
sg21
I0
sg22
I0
sg23
I22
sg24
I0
sbssg46
S'\xd5\x0c3\xaaa\x07\xe1\x06.\xfe\xeaP\xc3b\xdb\x96'
p2029
ssS'_Library_Python_2_7_site-packages_pytz_exceptions'
p2030
(dp2031
g6
(dp2032
g51
S'_Library_Python_2_7_site-packages_pytz_exceptions.html'
p2033
sg53
S'/Library/Python/2.7/site-packages/pytz/exceptions'
p2034
sg55
g13
(g14
g15
NtRp2035
(dp2036
g18
I1
sg19
I0
sg20
I6
sg21
I0
sg22
I0
sg23
I0
sg24
I0
sbssg25
S'\xca\xbadT#j\x8b\xb1Q\x18(s\xf5>\x99\xe1'
p2037
ssS'_Library_Python_2_7_site-packages_django_contrib_contenttypes_views'
p2038
(dp2039
g40
(dp2040
g8
S'_Library_Python_2_7_site-packages_django_contrib_contenttypes_views.html'
p2041
sg10
S'/Library/Python/2.7/site-packages/django/contrib/contenttypes/views'
p2042
sg12
g13
(g14
g15
NtRp2043
(dp2044
g18
I1
sg19
I0
sg20
I49
sg21
I0
sg22
I0
sg23
I43
sg24
I0
sbssg46
S'\x9a\x02]\x07#\xb5\x9e\x0c\xa1\xd2\x93\x89^\xeeF\xa7'
p2045
ssS'_Library_Python_2_7_site-packages_django_core_mail___init__'
p2046
(dp2047
g6
(dp2048
g381
S'_Library_Python_2_7_site-packages_django_core_mail___init__.html'
p2049
sg383
S'/Library/Python/2.7/site-packages/django/core/mail/__init__'
p2050
sg385
g13
(g14
g15
NtRp2051
(dp2052
g18
I1
sg19
I0
sg20
I38
sg21
I0
sg22
I0
sg23
I19
sg24
I0
sbssg25
S'\xa7\xb0Us\x80\xfc\x85\xa9rJ\x7f\xb6\xc5\xdcS\xf4'
p2053
ssS'_Library_Python_2_7_site-packages_django_core_management_validation'
p2054
(dp2055
g40
(dp2056
g8
S'_Library_Python_2_7_site-packages_django_core_management_validation.html'
p2057
sg10
S'/Library/Python/2.7/site-packages/django/core/management/validation'
p2058
sg12
g13
(g14
g15
NtRp2059
(dp2060
g18
I1
sg19
I0
sg20
I213
sg21
I0
sg22
I0
sg23
I102
sg24
I0
sbssg46
S'jgI&\x003\xd19ZmWEx\xdc:~'
p2061
ssS'_Library_Python_2_7_site-packages_django_core_files_uploadhandler'
p2062
(dp2063
g6
(dp2064
g51
S'_Library_Python_2_7_site-packages_django_core_files_uploadhandler.html'
p2065
sg53
S'/Library/Python/2.7/site-packages/django/core/files/uploadhandler'
p2066
sg55
g13
(g14
g15
NtRp2067
(dp2068
g18
I1
sg19
I0
sg20
I89
sg21
I0
sg22
I0
sg23
I54
sg24
I0
sbssg25
S'\xd7\x85G\xd1\xdc3<\xf5\xe9\xd6UF?\xc2\x90\xde'
p2069
ssS'_Library_Python_2_7_site-packages_django_contrib_auth_models'
p2070
(dp2071
g40
(dp2072
g8
S'_Library_Python_2_7_site-packages_django_contrib_auth_models.html'
p2073
sg10
S'/Library/Python/2.7/site-packages/django/contrib/auth/models'
p2074
sg12
g13
(g14
g15
NtRp2075
(dp2076
g18
I1
sg19
I0
sg20
I244
sg21
I0
sg22
I0
sg23
I129
sg24
I0
sbssg46
S'\xb9/yoz\'SU\xdf\xe0\xb0\xa6\xcdD"\xc6'
p2077
ssS'_Library_Python_2_7_site-packages_django_contrib_auth_management___init__'
p2078
(dp2079
g40
(dp2080
g8
S'_Library_Python_2_7_site-packages_django_contrib_auth_management___init__.html'
p2081
sg10
S'/Library/Python/2.7/site-packages/django/contrib/auth/management/__init__'
p2082
sg12
g13
(g14
g15
NtRp2083
(dp2084
g18
I1
sg19
I0
sg20
I64
sg21
I0
sg22
I0
sg23
I30
sg24
I0
sbssg46
S'\xe0\xdb"?K/\x90\x8cms\xbfq\xf5\x04=\xc4'
p2085
ssS'_Library_Python_2_7_site-packages_south_utils_datetime_utils'
p2086
(dp2087
g40
(dp2088
g8
S'_Library_Python_2_7_site-packages_south_utils_datetime_utils.html'
p2089
sg10
S'/Library/Python/2.7/site-packages/south/utils/datetime_utils'
p2090
sg12
g13
(g14
g15
NtRp2091
(dp2092
g18
I1
sg19
I0
sg20
I13
sg21
I0
sg22
I0
sg23
I5
sg24
I0
sbssg46
S'#\xd4%\xc1\x13b\xbe\xdc\x97\xcbi\xabX\x00\xa2\xa7'
p2093
ssS'_Library_Python_2_7_site-packages_django_template_loaders___init__'
p2094
(dp2095
g6
(dp2096
g51
S'_Library_Python_2_7_site-packages_django_template_loaders___init__.html'
p2097
sg53
S'/Library/Python/2.7/site-packages/django/template/loaders/__init__'
p2098
sg55
g13
(g14
g15
NtRp2099
(dp2100
g18
I1
sg19
I0
sg20
I0
sg21
I0
sg22
I0
sg23
I0
sg24
I0
sbssg25
S'\xb0\xc8pN\xaf>\xa0\xbaz\x144\xe0A9\xb8?'
p2101
ssS'_Library_Python_2_7_site-packages_django_http_multipartparser'
p2102
(dp2103
g6
(dp2104
g51
S'_Library_Python_2_7_site-packages_django_http_multipartparser.html'
p2105
sg53
S'/Library/Python/2.7/site-packages/django/http/multipartparser'
p2106
sg55
g13
(g14
g15
NtRp2107
(dp2108
g18
I1
sg19
I0
sg20
I337
sg21
I0
sg22
I0
sg23
I288
sg24
I0
sbssg25
S'\xd2\xb9 \x03\xe5*`\xbd*\x88\xd9I\x92\xb4~\xbb'
p2109
ssS'_Library_Python_2_7_site-packages_pytz_tzinfo'
p2110
(dp2111
g6
(dp2112
g8
S'_Library_Python_2_7_site-packages_pytz_tzinfo.html'
p2113
sg10
S'/Library/Python/2.7/site-packages/pytz/tzinfo'
p2114
sg12
g13
(g14
g15
NtRp2115
(dp2116
g18
I1
sg19
I0
sg20
I178
sg21
I0
sg22
I0
sg23
I79
sg24
I0
sbssg25
S"\xa3\xd9iA@\xe8c\x0b\xc1V\xb0]'5\xd0\x9c"
p2117
ssS'_Library_Python_2_7_site-packages_django_contrib_admin_helpers'
p2118
(dp2119
g40
(dp2120
g8
S'_Library_Python_2_7_site-packages_django_contrib_admin_helpers.html'
p2121
sg10
S'/Library/Python/2.7/site-packages/django/contrib/admin/helpers'
p2122
sg12
g13
(g14
g15
NtRp2123
(dp2124
g18
I1
sg19
I0
sg20
I245
sg21
I0
sg22
I0
sg23
I182
sg24
I0
sbssg46
S'2\x07\xb3\xfcP!\xc7\x02\xd7\xd9"\xf4\xab\xfd\xbfX'
p2125
ssS'_Library_Python_2_7_site-packages_django_core_servers_basehttp'
p2126
(dp2127
g6
(dp2128
g51
S'_Library_Python_2_7_site-packages_django_core_servers_basehttp.html'
p2129
sg53
S'/Library/Python/2.7/site-packages/django/core/servers/basehttp'
p2130
sg55
g13
(g14
g15
NtRp2131
(dp2132
g18
I1
sg19
I0
sg20
I142
sg21
I0
sg22
I0
sg23
I103
sg24
I0
sbssg25
S'\xdc\x86;\x06\x84B\xf8\xf4\xb2-F\xf8\x7f\x05\xcb\xf0'
p2133
ssS'_Library_Python_2_7_site-packages_django_contrib_admin_filters'
p2134
(dp2135
g40
(dp2136
g8
S'_Library_Python_2_7_site-packages_django_contrib_admin_filters.html'
p2137
sg10
S'/Library/Python/2.7/site-packages/django/contrib/admin/filters'
p2138
sg12
g13
(g14
g15
NtRp2139
(dp2140
g18
I1
sg19
I0
sg20
I187
sg21
I0
sg22
I0
sg23
I126
sg24
I0
sbssg46
S'\xaa\xce@\xb7\xca\xc7\xa3\x11F\x02\xb9\xff\xef\xe5\xf61'
p2141
ssS'_Library_Python_2_7_site-packages_django_core_cache_backends_db'
p2142
(dp2143
g40
(dp2144
g8
S'_Library_Python_2_7_site-packages_django_core_cache_backends_db.html'
p2145
sg10
S'/Library/Python/2.7/site-packages/django/core/cache/backends/db'
p2146
sg12
g13
(g14
g15
NtRp2147
(dp2148
g18
I1
sg19
I0
sg20
I127
sg21
I0
sg22
I0
sg23
I103
sg24
I0
sbssg46
S"\xee\x8a'\xb6\x8d\x06\x8ca\t\x1c\x9dE\x8b\x854H"
p2149
sssS'version'
p2150
S'3.6'
p2151
sS'settings'
p2152
S'3\xcf\xa1\x19.\x88o$\x8cA\xde\xbd\xcd\x06\xa1\x0f'
p2153
sS'format'
p2154
I1
s.