(dp1
S'files'
p2
(dp3
S'_Library_Python_2_7_site-packages_django_utils_decorators'
p4
(dp5
S'index'
p6
(dp7
S'html_filename'
p8
S'_Library_Python_2_7_site-packages_django_utils_decorators.html'
p9
sS'name'
p10
S'/Library/Python/2.7/site-packages/django/utils/decorators'
p11
sS'nums'
p12
ccopy_reg
_reconstructor
p13
(ccoverage.results
Numbers
p14
c__builtin__
object
p15
NtRp16
(dp17
S'n_files'
p18
I1
sS'n_branches'
p19
I0
sS'n_statements'
p20
I59
sS'n_excluded'
p21
I0
sS'n_partial_branches'
p22
I0
sS'n_missing'
p23
I51
sS'n_missing_branches'
p24
I0
sbssS'hash'
p25
S'\xb4\x12\xf5\xbb\x14H\x0b5,\x102^\xe1\x9a8!'
p26
ssS'_Library_Python_2_7_site-packages_django_db_models_query'
p27
(dp28
g6
(dp29
g8
S'_Library_Python_2_7_site-packages_django_db_models_query.html'
p30
sg10
S'/Library/Python/2.7/site-packages/django/db/models/query'
p31
sg12
g13
(g14
g15
NtRp32
(dp33
g18
I1
sg19
I0
sg20
I925
sg21
I0
sg22
I0
sg23
I795
sg24
I0
sbssg25
S'`z(/;D>\xb0\xf0\x17\x90\xc5\xf0\x04\x17v'
p34
ssS'_Library_Python_2_7_site-packages_django_core_files_temp'
p35
(dp36
g6
(dp37
g8
S'_Library_Python_2_7_site-packages_django_core_files_temp.html'
p38
sg10
S'/Library/Python/2.7/site-packages/django/core/files/temp'
p39
sg12
g13
(g14
g15
NtRp40
(dp41
g18
I1
sg19
I0
sg20
I28
sg21
I0
sg22
I0
sg23
I21
sg24
I0
sbssg25
S'\x14%Z\x18\x8e\x18K\xa3Y\x1f\xa7\x988\xdc)X'
p42
ssS'_Library_Python_2_7_site-packages_django_db_models_manager'
p43
(dp44
g6
(dp45
g8
S'_Library_Python_2_7_site-packages_django_db_models_manager.html'
p46
sg10
S'/Library/Python/2.7/site-packages/django/db/models/manager'
p47
sg12
g13
(g14
g15
NtRp48
(dp49
g18
I1
sg19
I0
sg20
I139
sg21
I0
sg22
I0
sg23
I84
sg24
I0
sbssg25
S'\xb7\xfeq\x10\x8b\xe0\xd8i\x03\xb4|\xe4f\x0f\x89^'
p50
ssS'_Library_Python_2_7_site-packages_django_utils_dates'
p51
(dp52
g6
(dp53
g8
S'_Library_Python_2_7_site-packages_django_utils_dates.html'
p54
sg10
S'/Library/Python/2.7/site-packages/django/utils/dates'
p55
sg12
g13
(g14
g15
NtRp56
(dp57
g18
I1
sg19
I0
sg20
I9
sg21
I0
sg22
I0
sg23
I0
sg24
I0
sbssg25
S'\xed\xe1n\x81\x12\xc1\xc6\x8b\xd8\x98O4:mTA'
p58
ssS'_Library_Python_2_7_site-packages_django_db_models_sql_subqueries'
p59
(dp60
g6
(dp61
g8
S'_Library_Python_2_7_site-packages_django_db_models_sql_subqueries.html'
p62
sg10
S'/Library/Python/2.7/site-packages/django/db/models/sql/subqueries'
p63
sg12
g13
(g14
g15
NtRp64
(dp65
g18
I1
sg19
I0
sg20
I113
sg21
I0
sg22
I0
sg23
I79
sg24
I0
sbssg25
S'F\\u\xa0u\x0b\x83\xbc\xb0\x93&\x13\xf2\xc3j\xd3'
p66
ssS'_Library_Python_2_7_site-packages_django_contrib_staticfiles_finders'
p67
(dp68
g6
(dp69
g8
S'_Library_Python_2_7_site-packages_django_contrib_staticfiles_finders.html'
p70
sg10
S'/Library/Python/2.7/site-packages/django/contrib/staticfiles/finders'
p71
sg12
g13
(g14
g15
NtRp72
(dp73
g18
I1
sg19
I0
sg20
I158
sg21
I0
sg22
I0
sg23
I121
sg24
I0
sbssg25
S'\xa8\nv\xabZ\xf0a.\xaf\x0b\xa78\xba\n\xa2\x9b'
p74
ssS'_Library_Python_2_7_site-packages_django_db_models_aggregates'
p75
(dp76
g6
(dp77
g8
S'_Library_Python_2_7_site-packages_django_db_models_aggregates.html'
p78
sg10
S'/Library/Python/2.7/site-packages/django/db/models/aggregates'
p79
sg12
g13
(g14
g15
NtRp80
(dp81
g18
I1
sg19
I0
sg20
I25
sg21
I0
sg22
I0
sg23
I6
sg24
I0
sbssg25
S'TO\x1e/\xbc\x9c\x17\xc0\xd4\xad\xd9\xae\xc4\\\xa4I'
p82
ssS'_Library_Python_2_7_site-packages_django_db_backends_postgresql_psycopg2_version'
p83
(dp84
g6
(dp85
g8
S'_Library_Python_2_7_site-packages_django_db_backends_postgresql_psycopg2_version.html'
p86
sg10
S'/Library/Python/2.7/site-packages/django/db/backends/postgresql_psycopg2/version'
p87
sg12
g13
(g14
g15
NtRp88
(dp89
g18
I1
sg19
I0
sg20
I14
sg21
I0
sg22
I0
sg23
I10
sg24
I0
sbssg25
S'\xf8K\x81\x8d_:f\xf3-\x83\t/\x0e\x16\xee\x07'
p90
ssS'_Library_Python_2_7_site-packages_django_test_simple'
p91
(dp92
g6
(dp93
g8
S'_Library_Python_2_7_site-packages_django_test_simple.html'
p94
sg10
S'/Library/Python/2.7/site-packages/django/test/simple'
p95
sg12
g13
(g14
g15
NtRp96
(dp97
g18
I1
sg19
I0
sg20
I198
sg21
I0
sg22
I0
sg23
I167
sg24
I0
sbssg25
S'\xfd\x00n\xf4\xb0I*N\x0co\x8e\xe3\xd3IXX'
p98
ssS'_Library_Python_2_7_site-packages_django_utils_tzinfo'
p99
(dp100
g6
(dp101
g8
S'_Library_Python_2_7_site-packages_django_utils_tzinfo.html'
p102
sg10
S'/Library/Python/2.7/site-packages/django/utils/tzinfo'
p103
sg12
g13
(g14
g15
NtRp104
(dp105
g18
I1
sg19
I0
sg20
I52
sg21
I0
sg22
I0
sg23
I34
sg24
I0
sbssg25
S'J\x85\xf4\xb5CA45\x13xif\xcd\x822M'
p106
ssS'_Library_Python_2_7_site-packages_django_views_static'
p107
(dp108
g6
(dp109
g8
S'_Library_Python_2_7_site-packages_django_views_static.html'
p110
sg10
S'/Library/Python/2.7/site-packages/django/views/static'
p111
sg12
g13
(g14
g15
NtRp112
(dp113
g18
I1
sg19
I0
sg20
I74
sg21
I0
sg22
I0
sg23
I58
sg24
I0
sbssg25
S'\xc03WiA\xf43pq\xf8\xbc\x92?\xc6~\xa2'
p114
ssS'_Library_Python_2_7_site-packages_django_test_client'
p115
(dp116
g6
(dp117
g8
S'_Library_Python_2_7_site-packages_django_test_client.html'
p118
sg10
S'/Library/Python/2.7/site-packages/django/test/client'
p119
sg12
g13
(g14
g15
NtRp120
(dp121
g18
I1
sg19
I0
sg20
I260
sg21
I0
sg22
I0
sg23
I195
sg24
I0
sbssg25
S'O\xed`)\xcf.z\x08\x02\xa4\x82\x15f\x7f\x0e}'
p122
ssS'_Library_Python_2_7_site-packages_django_db_models_fields_proxy'
p123
(dp124
g6
(dp125
g8
S'_Library_Python_2_7_site-packages_django_db_models_fields_proxy.html'
p126
sg10
S'/Library/Python/2.7/site-packages/django/db/models/fields/proxy'
p127
sg12
g13
(g14
g15
NtRp128
(dp129
g18
I1
sg19
I0
sg20
I6
sg21
I0
sg22
I0
sg23
I3
sg24
I0
sbssg25
S'\xaf:\xd7\xa5\xadun\x1b\xb7\x141\x81\x80j\x94\xe6'
p130
ssS'_Library_Python_2_7_site-packages_django_db_models_sql_expressions'
p131
(dp132
g6
(dp133
g8
S'_Library_Python_2_7_site-packages_django_db_models_sql_expressions.html'
p134
sg10
S'/Library/Python/2.7/site-packages/django/db/models/sql/expressions'
p135
sg12
g13
(g14
g15
NtRp136
(dp137
g18
I1
sg19
I0
sg20
I61
sg21
I0
sg22
I0
sg23
I48
sg24
I0
sbssg25
S'g\x06[\x98\xcbA\xf39\xba=F\xdf\xd4\x8dJ\x9f'
p138
ssS'_Library_Python_2_7_site-packages_django___init__'
p139
(dp140
g6
(dp141
g8
S'_Library_Python_2_7_site-packages_django___init__.html'
p142
sg10
S'/Library/Python/2.7/site-packages/django/__init__'
p143
sg12
g13
(g14
g15
NtRp144
(dp145
g18
I1
sg19
I0
sg20
I18
sg21
I0
sg22
I0
sg23
I6
sg24
I0
sbssg25
S'\xf0\x13?\xd9\xba.\xecb\x02\xbc\xc7\x99)\xd7:\xea'
p146
ssS'_Library_Python_2_7_site-packages_django_db_backends_signals'
p147
(dp148
g6
(dp149
g8
S'_Library_Python_2_7_site-packages_django_db_backends_signals.html'
p150
sg10
S'/Library/Python/2.7/site-packages/django/db/backends/signals'
p151
sg12
g13
(g14
g15
NtRp152
(dp153
g18
I1
sg19
I0
sg20
I2
sg21
I0
sg22
I0
sg23
I0
sg24
I0
sbssg25
S'\xac\xe8\xc0\xe9\x8a\xd9d\xcc\x03\xc1\x89\xd4\xde\xa8x<'
p154
ssS'_Library_Python_2_7_site-packages_django_utils_datetime_safe'
p155
(dp156
g6
(dp157
g8
S'_Library_Python_2_7_site-packages_django_utils_datetime_safe.html'
p158
sg10
S'/Library/Python/2.7/site-packages/django/utils/datetime_safe'
p159
sg12
g13
(g14
g15
NtRp160
(dp161
g18
I1
sg19
I0
sg20
I56
sg21
I0
sg22
I0
sg23
I42
sg24
I0
sbssg25
S'\xcf\x16v\x83I\x1c\x906G\x91=\xec\x94\xfdf\xbe'
p162
ssS'_Library_Python_2_7_site-packages_django_utils_simplejson___init__'
p163
(dp164
g6
(dp165
g8
S'_Library_Python_2_7_site-packages_django_utils_simplejson___init__.html'
p166
sg10
S'/Library/Python/2.7/site-packages/django/utils/simplejson/__init__'
p167
sg12
g13
(g14
g15
NtRp168
(dp169
g18
I1
sg19
I0
sg20
I54
sg21
I0
sg22
I0
sg23
I39
sg24
I0
sbssg25
S"\xe5$x;'\x91@\x12\x06\xab)\x0c\x93\xca\xbde"
p170
ssS'_Library_Python_2_7_site-packages_django_views_debug'
p171
(dp172
g6
(dp173
g8
S'_Library_Python_2_7_site-packages_django_views_debug.html'
p174
sg10
S'/Library/Python/2.7/site-packages/django/views/debug'
p175
sg12
g13
(g14
g15
NtRp176
(dp177
g18
I1
sg19
I0
sg20
I274
sg21
I0
sg22
I0
sg23
I230
sg24
I0
sbssg25
S'E\x1f\x8e\xc1[\xc0\xa1\xf0{\xa5;G!T\xff\x9f'
p178
ssS'_Library_Python_2_7_site-packages_django_db_backends___init__'
p179
(dp180
g6
(dp181
g8
S'_Library_Python_2_7_site-packages_django_db_backends___init__.html'
p182
sg10
S'/Library/Python/2.7/site-packages/django/db/backends/__init__'
p183
sg12
g13
(g14
g15
NtRp184
(dp185
g18
I1
sg19
I0
sg20
I428
sg21
I0
sg22
I0
sg23
I250
sg24
I0
sbssg25
S'B\x84\xfa\xed\x94\xd1\x9d\x8b\x80\xbb\x1cl\x80\xbdH\xf8'
p186
ssS'_Library_Python_2_7_site-packages_django_utils___init__'
p187
(dp188
g6
(dp189
g8
S'_Library_Python_2_7_site-packages_django_utils___init__.html'
p190
sg10
S'/Library/Python/2.7/site-packages/django/utils/__init__'
p191
sg12
g13
(g14
g15
NtRp192
(dp193
g18
I1
sg19
I0
sg20
I0
sg21
I0
sg22
I0
sg23
I0
sg24
I0
sbssg25
S'\xb0\xc8pN\xaf>\xa0\xbaz\x144\xe0A9\xb8?'
p194
ssS'_Library_Python_2_7_site-packages_django_db_models_related'
p195
(dp196
g6
(dp197
g8
S'_Library_Python_2_7_site-packages_django_db_models_related.html'
p198
sg10
S'/Library/Python/2.7/site-packages/django/db/models/related'
p199
sg12
g13
(g14
g15
NtRp200
(dp201
g18
I1
sg19
I0
sg20
I41
sg21
I0
sg22
I0
sg23
I26
sg24
I0
sbssg25
S'n\x99v`\xcbN\xc7M\xee\x02Ro\x9f[\x7f\x0c'
p202
ssS'_Library_Python_2_7_site-packages_django_core_files_utils'
p203
(dp204
g6
(dp205
g8
S'_Library_Python_2_7_site-packages_django_core_files_utils.html'
p206
sg10
S'/Library/Python/2.7/site-packages/django/core/files/utils'
p207
sg12
g13
(g14
g15
NtRp208
(dp209
g18
I1
sg19
I0
sg20
I19
sg21
I0
sg22
I0
sg23
I1
sg24
I0
sbssg25
S'\x91@)\xe4(\x81\xd6\xb8\x9b\x16\xc4\xeeh\x11e\xff'
p210
ssS'_Library_Python_2_7_site-packages_django_db_models_options'
p211
(dp212
g6
(dp213
g8
S'_Library_Python_2_7_site-packages_django_db_models_options.html'
p214
sg10
S'/Library/Python/2.7/site-packages/django/db/models/options'
p215
sg12
g13
(g14
g15
NtRp216
(dp217
g18
I1
sg19
I0
sg20
I319
sg21
I0
sg22
I0
sg23
I268
sg24
I0
sbssg25
S'\x0b\xd9\xcf\xfa\x17-#Q\x9b[K$\xd9<\xbd\x16'
p218
ssS'_Library_Python_2_7_site-packages_django_db_models_sql_query'
p219
(dp220
g6
(dp221
g8
S'_Library_Python_2_7_site-packages_django_db_models_sql_query.html'
p222
sg10
S'/Library/Python/2.7/site-packages/django/db/models/sql/query'
p223
sg12
g13
(g14
g15
NtRp224
(dp225
g18
I1
sg19
I0
sg20
I1041
sg21
I0
sg22
I0
sg23
I942
sg24
I0
sbssg25
S'\xf2\x00\xa8\x84i\x10\x01\xd8\xfc\xf0GD\xb20E\xfb'
p226
ssS'_Library_Python_2_7_site-packages_django_db_backends_util'
p227
(dp228
g6
(dp229
g8
S'_Library_Python_2_7_site-packages_django_db_backends_util.html'
p230
sg10
S'/Library/Python/2.7/site-packages/django/db/backends/util'
p231
sg12
g13
(g14
g15
NtRp232
(dp233
g18
I1
sg19
I0
sg20
I93
sg21
I0
sg22
I0
sg23
I70
sg24
I0
sbssg25
S'\xe6\x1f\xb2\xd5\xec\xf1\x86\xeb\x82\x97!\x8f\xb0\xb2-\xd5'
p234
ssS'_Library_Python_2_7_site-packages_django_template_base'
p235
(dp236
g6
(dp237
g8
S'_Library_Python_2_7_site-packages_django_template_base.html'
p238
sg10
S'/Library/Python/2.7/site-packages/django/template/base'
p239
sg12
g13
(g14
g15
NtRp240
(dp241
g18
I1
sg19
I0
sg20
I770
sg21
I0
sg22
I0
sg23
I569
sg24
I0
sbssg25
S"\xc4\x918\xb2V'<\x8bux\x1c@\xb3ca9"
p242
ssS'_Library_Python_2_7_site-packages_django_utils_timesince'
p243
(dp244
g6
(dp245
g8
S'_Library_Python_2_7_site-packages_django_utils_timesince.html'
p246
sg10
S'/Library/Python/2.7/site-packages/django/utils/timesince'
p247
sg12
g13
(g14
g15
NtRp248
(dp249
g18
I1
sg19
I0
sg20
I28
sg21
I0
sg22
I0
sg23
I23
sg24
I0
sbssg25
S'\xfd1-5\xb5\xd0-~\xd5u\xc2\xb4/\xe6"0'
p250
ssS'_Library_Python_2_7_site-packages_django_forms_widgets'
p251
(dp252
g6
(dp253
g8
S'_Library_Python_2_7_site-packages_django_forms_widgets.html'
p254
sg10
S'/Library/Python/2.7/site-packages/django/forms/widgets'
p255
sg12
g13
(g14
g15
NtRp256
(dp257
g18
I1
sg19
I0
sg20
I559
sg21
I0
sg22
I0
sg23
I394
sg24
I0
sbssg25
S'\xdb\x07\xf6\x01l0\xc7;\x1f\x1a\x88@\x86\xa75\xa1'
p258
ssS'_Library_Python_2_7_site-packages_django_test_html'
p259
(dp260
g6
(dp261
g8
S'_Library_Python_2_7_site-packages_django_test_html.html'
p262
sg10
S'/Library/Python/2.7/site-packages/django/test/html'
p263
sg12
g13
(g14
g15
NtRp264
(dp265
g18
I1
sg19
I0
sg20
I160
sg21
I0
sg22
I0
sg23
I126
sg24
I0
sbssg25
S'\x94\x99a\xaf\xa6\x83\xd3\xab\xe4\xc2h`$\xab\xde\xbb'
p266
ssS'_Library_Python_2_7_site-packages_django_core_cache___init__'
p267
(dp268
g6
(dp269
g8
S'_Library_Python_2_7_site-packages_django_core_cache___init__.html'
p270
sg10
S'/Library/Python/2.7/site-packages/django/core/cache/__init__'
p271
sg12
g13
(g14
g15
NtRp272
(dp273
g18
I1
sg19
I0
sg20
I83
sg21
I0
sg22
I0
sg23
I29
sg24
I0
sbssg25
S'\x03J\xd1\xea9s5\xa2\x1c\xd2\x9d|J\xbeu\xb9'
p274
ssS'_Library_Python_2_7_site-packages_django_dispatch_saferef'
p275
(dp276
g6
(dp277
g8
S'_Library_Python_2_7_site-packages_django_dispatch_saferef.html'
p278
sg10
S'/Library/Python/2.7/site-packages/django/dispatch/saferef'
p279
sg12
g13
(g14
g15
NtRp280
(dp281
g18
I1
sg19
I0
sg20
I80
sg21
I0
sg22
I0
sg23
I59
sg24
I0
sbssg25
S'\xb8\xa2)1-\x80o\x8bm\x1e\x0bO\xe5\x12*\xd8'
p282
ssS'_Library_Python_2_7_site-packages_django_conf___init__'
p283
(dp284
g6
(dp285
g8
S'_Library_Python_2_7_site-packages_django_conf___init__.html'
p286
sg10
S'/Library/Python/2.7/site-packages/django/conf/__init__'
p287
sg12
g13
(g14
g15
NtRp288
(dp289
g18
I1
sg19
I0
sg20
I85
sg21
I0
sg22
I0
sg23
I28
sg24
I0
sbssg25
S'\xde\x01%5C\xac\xc9\xac\xb3\x10T\x7f`\xf7,r'
p290
ssS'_Library_Python_2_7_site-packages_django_core_files_move'
p291
(dp292
g6
(dp293
g8
S'_Library_Python_2_7_site-packages_django_core_files_move.html'
p294
sg10
S'/Library/Python/2.7/site-packages/django/core/files/move'
p295
sg12
g13
(g14
g15
NtRp296
(dp297
g18
I1
sg19
I0
sg20
I47
sg21
I0
sg22
I0
sg23
I40
sg24
I0
sbssg25
S'y\\\xb7\x8a\xe3\xc5u\x9bK\xa2(CK\x07Q\x90'
p298
ssS'_Library_Python_2_7_site-packages_django_test__doctest'
p299
(dp300
g6
(dp301
g8
S'_Library_Python_2_7_site-packages_django_test__doctest.html'
p302
sg10
S'/Library/Python/2.7/site-packages/django/test/_doctest'
p303
sg12
g13
(g14
g15
NtRp304
(dp305
g18
I1
sg19
I0
sg20
I896
sg21
I0
sg22
I0
sg23
I753
sg24
I0
sbssg25
S'kv{\xa3w\xeb\x05&\xc6\xc6\xecEb\x90\x00\xf9'
p306
ssS'_Library_Python_2_7_site-packages_django_template___init__'
p307
(dp308
g6
(dp309
g8
S'_Library_Python_2_7_site-packages_django_template___init__.html'
p310
sg10
S'/Library/Python/2.7/site-packages/django/template/__init__'
p311
sg12
g13
(g14
g15
NtRp312
(dp313
g18
I1
sg19
I0
sg20
I6
sg21
I0
sg22
I0
sg23
I0
sg24
I0
sbssg25
S'\xb6\xa0l\x13\xa8q\x87\r\xa8\xea\xdd\x99\xef\xf5k\xd3'
p314
ssS'_Library_Python_2_7_site-packages_django_forms_util'
p315
(dp316
g6
(dp317
g8
S'_Library_Python_2_7_site-packages_django_forms_util.html'
p318
sg10
S'/Library/Python/2.7/site-packages/django/forms/util'
p319
sg12
g13
(g14
g15
NtRp320
(dp321
g18
I1
sg19
I0
sg20
I41
sg21
I0
sg22
I0
sg23
I22
sg24
I0
sbssg25
S'\xd5\xdd\xf1\x0c1\x8a\rz"\xf1\xc5\'q\xb3EH'
p322
ssS'_Library_Python_2_7_site-packages_django_db_utils'
p323
(dp324
g6
(dp325
g8
S'_Library_Python_2_7_site-packages_django_db_utils.html'
p326
sg10
S'/Library/Python/2.7/site-packages/django/db/utils'
p327
sg12
g13
(g14
g15
NtRp328
(dp329
g18
I1
sg19
I0
sg20
I120
sg21
I0
sg22
I0
sg23
I68
sg24
I0
sbssg25
S'\xf0\xb2\xca}\x7f\x8e\x83C\x81\xf0\x83\x8e\\\xc8\x05\xbf'
p330
ssS'_Library_Python_2_7_site-packages_django_utils_baseconv'
p331
(dp332
g6
(dp333
g8
S'_Library_Python_2_7_site-packages_django_utils_baseconv.html'
p334
sg10
S'/Library/Python/2.7/site-packages/django/utils/baseconv'
p335
sg12
g13
(g14
g15
NtRp336
(dp337
g18
I1
sg19
I0
sg20
I48
sg21
I0
sg22
I0
sg23
I25
sg24
I0
sbssg25
S'1\xe8\xf6U\x98C\xe4\x99\x17*\xe3\xe1\x86\xeej\x0b'
p338
ssS'_Library_Python_2_7_site-packages_django_db___init__'
p339
(dp340
g6
(dp341
g8
S'_Library_Python_2_7_site-packages_django_db___init__.html'
p342
sg10
S'/Library/Python/2.7/site-packages/django/db/__init__'
p343
sg12
g13
(g14
g15
NtRp344
(dp345
g18
I1
sg19
I0
sg20
I32
sg21
I0
sg22
I0
sg23
I12
sg24
I0
sbssg25
S'\xbf\x07\xee\x9b\xb06\xa4@\xc5H\xcf\xed&\xbf\xc7\xd2'
p346
ssS'_Library_Python_2_7_site-packages_django_db_models_sql_aggregates'
p347
(dp348
g6
(dp349
g8
S'_Library_Python_2_7_site-packages_django_db_models_sql_aggregates.html'
p350
sg10
S'/Library/Python/2.7/site-packages/django/db/models/sql/aggregates'
p351
sg12
g13
(g14
g15
NtRp352
(dp353
g18
I1
sg19
I0
sg20
I57
sg21
I0
sg22
I0
sg23
I27
sg24
I0
sbssg25
S'"\xd6\xd4\x0f\xa9\xc7/\xabr\x93@\x0b\x90p\xca\xdf'
p354
ssS'_Library_Python_2_7_site-packages_django_db_transaction'
p355
(dp356
g6
(dp357
g8
S'_Library_Python_2_7_site-packages_django_db_transaction.html'
p358
sg10
S'/Library/Python/2.7/site-packages/django/db/transaction'
p359
sg12
g13
(g14
g15
NtRp360
(dp361
g18
I1
sg19
I0
sg20
I131
sg21
I0
sg22
I0
sg23
I102
sg24
I0
sbssg25
S'\xcd\xbd\x99\t\x9d\x1f\x1fI\xcb\xffu\x85V\x15\xc1\xc4'
p362
ssS'_Library_Python_2_7_site-packages_django_forms_models'
p363
(dp364
g6
(dp365
g8
S'_Library_Python_2_7_site-packages_django_forms_models.html'
p366
sg10
S'/Library/Python/2.7/site-packages/django/forms/models'
p367
sg12
g13
(g14
g15
NtRp368
(dp369
g18
I1
sg19
I0
sg20
I584
sg21
I0
sg22
I0
sg23
I482
sg24
I0
sbssg25
S'\xa4U\xfb3\xd4&LE6\x07<\xb7\xfe\x8f}\xab'
p370
ssS'_Library_Python_2_7_site-packages_django_db_models_deletion'
p371
(dp372
g6
(dp373
g8
S'_Library_Python_2_7_site-packages_django_db_models_deletion.html'
p374
sg10
S'/Library/Python/2.7/site-packages/django/db/models/deletion'
p375
sg12
g13
(g14
g15
NtRp376
(dp377
g18
I1
sg19
I0
sg20
I146
sg21
I0
sg22
I0
sg23
I117
sg24
I0
sbssg25
S'\xf9\xd8\x05\xa4\xca\xfc-\x83\x16z\x85\x95\x99\t_\xef'
p378
ssS'manage'
p379
(dp380
g6
(dp381
g8
S'manage.html'
p382
sg10
g379
sg12
g13
(g14
g15
NtRp383
(dp384
g18
I1
sg19
I0
sg20
I6
sg21
I0
sg22
I0
sg23
I0
sg24
I0
sbssg25
S'\x80\x94\xf5\xd5\x11\x194\xbd$\xa6%\xe1e\x0c\x17\x15'
p385
ssS'_Library_Python_2_7_site-packages_django_utils_text'
p386
(dp387
g6
(dp388
g8
S'_Library_Python_2_7_site-packages_django_utils_text.html'
p389
sg10
S'/Library/Python/2.7/site-packages/django/utils/text'
p390
sg12
g13
(g14
g15
NtRp391
(dp392
g18
I1
sg19
I0
sg20
I210
sg21
I0
sg22
I0
sg23
I158
sg24
I0
sbssg25
S'\'\x8f\xf8?\xbc\xc41"\xb0\x17\x14V"\x98\x1a\x8e'
p393
ssS'_Library_Python_2_7_site-packages_django_core_signals'
p394
(dp395
g6
(dp396
g8
S'_Library_Python_2_7_site-packages_django_core_signals.html'
p397
sg10
S'/Library/Python/2.7/site-packages/django/core/signals'
p398
sg12
g13
(g14
g15
NtRp399
(dp400
g18
I1
sg19
I0
sg20
I4
sg21
I0
sg22
I0
sg23
I0
sg24
I0
sbssg25
S'\xa8\x92\x82\x13=\x82/\x06\xba\xb2\xa6\xad\xc4o\x81\xc2'
p401
ssS'_Library_Python_2_7_site-packages_django_template_loader_tags'
p402
(dp403
g6
(dp404
g8
S'_Library_Python_2_7_site-packages_django_template_loader_tags.html'
p405
sg10
S'/Library/Python/2.7/site-packages/django/template/loader_tags'
p406
sg12
g13
(g14
g15
NtRp407
(dp408
g18
I1
sg19
I0
sg20
I177
sg21
I0
sg22
I0
sg23
I140
sg24
I0
sbssg25
S'+\x06\xf7\x8aT\x17\x9c\xfcr\x06&\x07\xe8a\t\xc5'
p409
ssS'carpool___init__'
p410
(dp411
g6
(dp412
g8
S'carpool___init__.html'
p413
sg10
S'carpool/__init__'
p414
sg12
g13
(g14
g15
NtRp415
(dp416
g18
I1
sg19
I0
sg20
I0
sg21
I0
sg22
I0
sg23
I0
sg24
I0
sbssg25
S'\xb0\xc8pN\xaf>\xa0\xbaz\x144\xe0A9\xb8?'
p417
ssS'_Library_Python_2_7_site-packages_django_core_management___init__'
p418
(dp419
g6
(dp420
g8
S'_Library_Python_2_7_site-packages_django_core_management___init__.html'
p421
sg10
S'/Library/Python/2.7/site-packages/django/core/management/__init__'
p422
sg12
g13
(g14
g15
NtRp423
(dp424
g18
I1
sg19
I0
sg20
I203
sg21
I0
sg22
I0
sg23
I110
sg24
I0
sbssg25
S'E>_\xd9\xd4\xaa\xe5\xe4\x0ev\x99\x87\x90J\x80\xba'
p425
ssS'_Library_Python_2_7_site-packages_django_utils_tree'
p426
(dp427
g6
(dp428
g8
S'_Library_Python_2_7_site-packages_django_utils_tree.html'
p429
sg10
S'/Library/Python/2.7/site-packages/django/utils/tree'
p430
sg12
g13
(g14
g15
NtRp431
(dp432
g18
I1
sg19
I0
sg20
I62
sg21
I0
sg22
I0
sg23
I47
sg24
I0
sbssg25
S'\x92(\x83\xa3\x8e@\xb0;\xe1\x18\xe8\xc2h\xe3\x9fh'
p433
ssS'_Library_Python_2_7_site-packages_django_db_models_sql___init__'
p434
(dp435
g6
(dp436
g8
S'_Library_Python_2_7_site-packages_django_db_models_sql___init__.html'
p437
sg10
S'/Library/Python/2.7/site-packages/django/db/models/sql/__init__'
p438
sg12
g13
(g14
g15
NtRp439
(dp440
g18
I1
sg19
I0
sg20
I6
sg21
I0
sg22
I0
sg23
I0
sg24
I0
sbssg25
S'\xea\xf8\xff\x94\xe8\x06\xd7@N\x8e\xb9\x9b)&=f'
p441
ssS'_Library_Python_2_7_site-packages_django_forms_formsets'
p442
(dp443
g6
(dp444
g8
S'_Library_Python_2_7_site-packages_django_forms_formsets.html'
p445
sg10
S'/Library/Python/2.7/site-packages/django/forms/formsets'
p446
sg12
g13
(g14
g15
NtRp447
(dp448
g18
I1
sg19
I0
sg20
I216
sg21
I0
sg22
I0
sg23
I155
sg24
I0
sbssg25
S'U]O\xd9_\xeb\n<EfSe\xd0b\x17\xfd'
p449
ssS'_Library_Python_2_7_site-packages_django_core___init__'
p450
(dp451
g6
(dp452
g8
S'_Library_Python_2_7_site-packages_django_core___init__.html'
p453
sg10
S'/Library/Python/2.7/site-packages/django/core/__init__'
p454
sg12
g13
(g14
g15
NtRp455
(dp456
g18
I1
sg19
I0
sg20
I0
sg21
I0
sg22
I0
sg23
I0
sg24
I0
sbssg25
S'\xb0\xc8pN\xaf>\xa0\xbaz\x144\xe0A9\xb8?'
p457
ssS'_Library_Python_2_7_site-packages_django_contrib_auth___init__'
p458
(dp459
g6
(dp460
g8
S'_Library_Python_2_7_site-packages_django_contrib_auth___init__.html'
p461
sg10
S'/Library/Python/2.7/site-packages/django/contrib/auth/__init__'
p462
sg12
g13
(g14
g15
NtRp463
(dp464
g18
I1
sg19
I0
sg20
I73
sg21
I0
sg22
I0
sg23
I60
sg24
I0
sbssg25
S'B_M\x9d\x87\xec\xba\x84W\x9b\xf6\x96\xf9oC\x9c'
p465
ssS'_Library_Python_2_7_site-packages_django_utils_termcolors'
p466
(dp467
g6
(dp468
g8
S'_Library_Python_2_7_site-packages_django_utils_termcolors.html'
p469
sg10
S'/Library/Python/2.7/site-packages/django/utils/termcolors'
p470
sg12
g13
(g14
g15
NtRp471
(dp472
g18
I1
sg19
I0
sg20
I56
sg21
I0
sg22
I0
sg23
I40
sg24
I0
sbssg25
S')\xd7\xec/\xe0)\xeb\xed\xa3\\\xca\xca\xc8aI\xa8'
p473
ssS'_Library_Python_2_7_site-packages_django_utils_timezone'
p474
(dp475
g6
(dp476
g8
S'_Library_Python_2_7_site-packages_django_utils_timezone.html'
p477
sg10
S'/Library/Python/2.7/site-packages/django/utils/timezone'
p478
sg12
g13
(g14
g15
NtRp479
(dp480
g18
I1
sg19
I0
sg20
I110
sg21
I0
sg22
I0
sg23
I70
sg24
I0
sbssg25
S'T4\rH\xb3W\x84}*v/\x16\xdbEL\xc8'
p481
ssS'_Library_Python_2_7_site-packages_django_db_models_sql_constants'
p482
(dp483
g6
(dp484
g8
S'_Library_Python_2_7_site-packages_django_db_models_sql_constants.html'
p485
sg10
S'/Library/Python/2.7/site-packages/django/db/models/sql/constants'
p486
sg12
g13
(g14
g15
NtRp487
(dp488
g18
I1
sg19
I0
sg20
I15
sg21
I0
sg22
I0
sg23
I0
sg24
I0
sbssg25
S'_\xa8i4X\x9e\xb0\tKL\xa8\xac8"\x1a\x13'
p489
ssS'_Library_Python_2_7_site-packages_django_http_utils'
p490
(dp491
g6
(dp492
g8
S'_Library_Python_2_7_site-packages_django_http_utils.html'
p493
sg10
S'/Library/Python/2.7/site-packages/django/http/utils'
p494
sg12
g13
(g14
g15
NtRp495
(dp496
g18
I1
sg19
I0
sg20
I39
sg21
I0
sg22
I0
sg23
I35
sg24
I0
sbssg25
S"\xbb\xc3'\xa8C\x18g\x9cz\x03V\xe9i\xd4'Y"
p497
ssS'_Library_Python_2_7_site-packages_django_core_files_images'
p498
(dp499
g6
(dp500
g8
S'_Library_Python_2_7_site-packages_django_core_files_images.html'
p501
sg10
S'/Library/Python/2.7/site-packages/django/core/files/images'
p502
sg12
g13
(g14
g15
NtRp503
(dp504
g18
I1
sg19
I0
sg20
I40
sg21
I0
sg22
I0
sg23
I32
sg24
I0
sbssg25
S'\xcf\x19\xca\xed\xd0\x9f\xdd\x00\xc0\xb9\xceq\xff\xa6JJ'
p505
ssS'_Library_Python_2_7_site-packages_django_utils_safestring'
p506
(dp507
g6
(dp508
g8
S'_Library_Python_2_7_site-packages_django_utils_safestring.html'
p509
sg10
S'/Library/Python/2.7/site-packages/django/utils/safestring'
p510
sg12
g13
(g14
g15
NtRp511
(dp512
g18
I1
sg19
I0
sg20
I57
sg21
I0
sg22
I0
sg23
I34
sg24
I0
sbssg25
S'\xd9\xb2:\x1fMa\x91\xa8\x85z\xd1\xe9\xaf\xabrM'
p513
ssS'_Library_Python_2_7_site-packages_django_template_loader'
p514
(dp515
g6
(dp516
g8
S'_Library_Python_2_7_site-packages_django_template_loader.html'
p517
sg10
S'/Library/Python/2.7/site-packages/django/template/loader'
p518
sg12
g13
(g14
g15
NtRp519
(dp520
g18
I1
sg19
I0
sg20
I104
sg21
I0
sg22
I0
sg23
I81
sg24
I0
sbssg25
S'"\xea\x8a\'@\x98\x9f\x15\xd0J\xe2)\x97\xde\xa0\x80'
p521
ssS'_Library_Python_2_7_site-packages_django_forms___init__'
p522
(dp523
g6
(dp524
g8
S'_Library_Python_2_7_site-packages_django_forms___init__.html'
p525
sg10
S'/Library/Python/2.7/site-packages/django/forms/__init__'
p526
sg12
g13
(g14
g15
NtRp527
(dp528
g18
I1
sg19
I0
sg20
I6
sg21
I0
sg22
I0
sg23
I0
sg24
I0
sbssg25
S"\xfb\x98'\xfe<\x95\xf2Q\xfe,\xaeF\t[\xfeP"
p529
ssS'_Library_Python_2_7_site-packages_psycopg2_extensions'
p530
(dp531
g6
(dp532
g8
S'_Library_Python_2_7_site-packages_psycopg2_extensions.html'
p533
sg10
S'/Library/Python/2.7/site-packages/psycopg2/extensions'
p534
sg12
g13
(g14
g15
NtRp535
(dp536
g18
I1
sg19
I0
sg20
I84
sg21
I0
sg22
I0
sg23
I22
sg24
I0
sbssg25
S'L\xf2+\x0b\x89\x9d\xf8"kV\xbc9\xa5\x8fkz'
p537
ssS'_Library_Python_2_7_site-packages_django_utils_html_parser'
p538
(dp539
g6
(dp540
g8
S'_Library_Python_2_7_site-packages_django_utils_html_parser.html'
p541
sg10
S'/Library/Python/2.7/site-packages/django/utils/html_parser'
p542
sg12
g13
(g14
g15
NtRp543
(dp544
g18
I1
sg19
I0
sg20
I79
sg21
I0
sg22
I0
sg23
I67
sg24
I0
sbssg25
S'\x97\xe2\x0cix\x9d\x1c\x1d\x822\xcb\xcf\xd5\xffO\xd4'
p545
ssS'_Library_Python_2_7_site-packages_django_core_signing'
p546
(dp547
g6
(dp548
g8
S'_Library_Python_2_7_site-packages_django_core_signing.html'
p549
sg10
S'/Library/Python/2.7/site-packages/django/core/signing'
p550
sg12
g13
(g14
g15
NtRp551
(dp552
g18
I1
sg19
I0
sg20
I92
sg21
I0
sg22
I0
sg23
I61
sg24
I0
sbssg25
S'\xb7\x1bS\x13Q\xb4\xf5k\x90\xf7hKv\xf0\xb8\x87'
p553
ssS'_Library_Python_2_7_site-packages_django_utils_translation___init__'
p554
(dp555
g6
(dp556
g8
S'_Library_Python_2_7_site-packages_django_utils_translation___init__.html'
p557
sg10
S'/Library/Python/2.7/site-packages/django/utils/translation/__init__'
p558
sg12
g13
(g14
g15
NtRp559
(dp560
g18
I1
sg19
I0
sg20
I86
sg21
I0
sg22
I0
sg23
I33
sg24
I0
sbssg25
S'\x8b\xa8\x9a\xe4\x02\x89\t\x8eP\xdb\r\xce\xf0j\xd1\x8e'
p561
ssS'_Library_Python_2_7_site-packages_django_core_servers___init__'
p562
(dp563
g6
(dp564
g8
S'_Library_Python_2_7_site-packages_django_core_servers___init__.html'
p565
sg10
S'/Library/Python/2.7/site-packages/django/core/servers/__init__'
p566
sg12
g13
(g14
g15
NtRp567
(dp568
g18
I1
sg19
I0
sg20
I0
sg21
I0
sg22
I0
sg23
I0
sg24
I0
sbssg25
S'\xb0\xc8pN\xaf>\xa0\xbaz\x144\xe0A9\xb8?'
p569
ssS'_Library_Python_2_7_site-packages_pytz_tzfile'
p570
(dp571
g6
(dp572
g8
S'_Library_Python_2_7_site-packages_pytz_tzfile.html'
p573
sg10
S'/Library/Python/2.7/site-packages/pytz/tzfile'
p574
sg12
g13
(g14
g15
NtRp575
(dp576
g18
I1
sg19
I0
sg20
I81
sg21
I0
sg22
I0
sg23
I68
sg24
I0
sbssg25
S'\\\x8c\x10_\\\xf7Z\x98\x8f\x98\xeb\x0b&\x90\xa4\xfd'
p577
ssS'_Library_Python_2_7_site-packages_django_core_files_base'
p578
(dp579
g6
(dp580
g8
S'_Library_Python_2_7_site-packages_django_core_files_base.html'
p581
sg10
S'/Library/Python/2.7/site-packages/django/core/files/base'
p582
sg12
g13
(g14
g15
NtRp583
(dp584
g18
I1
sg19
I0
sg20
I90
sg21
I0
sg22
I0
sg23
I59
sg24
I0
sbssg25
S'w\x89\xd9X\xe9\xd8\xac\x9b\xd1\xb9\xbc\xa3\xe5\xa3\xa1x'
p585
ssS'_Library_Python_2_7_site-packages_django_template_smartif'
p586
(dp587
g6
(dp588
g8
S'_Library_Python_2_7_site-packages_django_template_smartif.html'
p589
sg10
S'/Library/Python/2.7/site-packages/django/template/smartif'
p590
sg12
g13
(g14
g15
NtRp591
(dp592
g18
I1
sg19
I0
sg20
I104
sg21
I0
sg22
I0
sg23
I61
sg24
I0
sbssg25
S'\xdd)I\xf1\xfb\xd4\xfe\x86hd0\x89\x8a|\xf9\x8a'
p593
ssS'_Library_Python_2_7_site-packages_django_utils_functional'
p594
(dp595
g6
(dp596
g8
S'_Library_Python_2_7_site-packages_django_utils_functional.html'
p597
sg10
S'/Library/Python/2.7/site-packages/django/utils/functional'
p598
sg12
g13
(g14
g15
NtRp599
(dp600
g18
I1
sg19
I0
sg20
I168
sg21
I0
sg22
I0
sg23
I76
sg24
I0
sbssg25
S'\x7f\xa6\xc3Z\x1b\xbc\xc7\xb4F$\x91\x11dN\x9d\xf8'
p601
ssS'_Library_Python_2_7_site-packages_pytz___init__'
p602
(dp603
g6
(dp604
g8
S'_Library_Python_2_7_site-packages_pytz___init__.html'
p605
sg10
S'/Library/Python/2.7/site-packages/pytz/__init__'
p606
sg12
g13
(g14
g15
NtRp607
(dp608
g18
I1
sg19
I0
sg20
I206
sg21
I0
sg22
I0
sg23
I118
sg24
I0
sbssg25
S'\x8a3f\\\xb1Q\tB\x1a\x02\xfa)\xb7{h-'
p609
ssS'_Library_Python_2_7_site-packages_django_core_cache_backends_base'
p610
(dp611
g6
(dp612
g8
S'_Library_Python_2_7_site-packages_django_core_cache_backends_base.html'
p613
sg10
S'/Library/Python/2.7/site-packages/django/core/cache/backends/base'
p614
sg12
g13
(g14
g15
NtRp615
(dp616
g18
I1
sg19
I0
sg20
I99
sg21
I0
sg22
I0
sg23
I54
sg24
I0
sbssg25
S'#J\xfe\x1c\xfd\x80\xd1t9\x81\xdc\x9b\xcf\xc9\xd6\xeb'
p617
ssS'_Library_Python_2_7_site-packages_django_utils_encoding'
p618
(dp619
g6
(dp620
g8
S'_Library_Python_2_7_site-packages_django_utils_encoding.html'
p621
sg10
S'/Library/Python/2.7/site-packages/django/utils/encoding'
p622
sg12
g13
(g14
g15
NtRp623
(dp624
g18
I1
sg19
I0
sg20
I82
sg21
I0
sg22
I0
sg23
I51
sg24
I0
sbssg25
S'\x19\x8c\xa1\xe6\xa6;\xff\x0e\x1d\xb7\xa8\x9e+]\xc9\x9b'
p625
ssS'_Library_Python_2_7_site-packages_django_db_backends_postgresql_psycopg2___init__'
p626
(dp627
g6
(dp628
g8
S'_Library_Python_2_7_site-packages_django_db_backends_postgresql_psycopg2___init__.html'
p629
sg10
S'/Library/Python/2.7/site-packages/django/db/backends/postgresql_psycopg2/__init__'
p630
sg12
g13
(g14
g15
NtRp631
(dp632
g18
I1
sg19
I0
sg20
I0
sg21
I0
sg22
I0
sg23
I0
sg24
I0
sbssg25
S'\xb0\xc8pN\xaf>\xa0\xbaz\x144\xe0A9\xb8?'
p633
ssS'_Library_Python_2_7_site-packages_django_template_context'
p634
(dp635
g6
(dp636
g8
S'_Library_Python_2_7_site-packages_django_template_context.html'
p637
sg10
S'/Library/Python/2.7/site-packages/django/template/context'
p638
sg12
g13
(g14
g15
NtRp639
(dp640
g18
I1
sg19
I0
sg20
I111
sg21
I0
sg22
I0
sg23
I78
sg24
I0
sbssg25
S"\x9b\xe5\x82$\xa9\x97\xdeD\x9f'6\n\xa2\xdcU\xb5"
p641
ssS'_Library_Python_2_7_site-packages_django_template_loaders_cached'
p642
(dp643
g6
(dp644
g8
S'_Library_Python_2_7_site-packages_django_template_loaders_cached.html'
p645
sg10
S'/Library/Python/2.7/site-packages/django/template/loaders/cached'
p646
sg12
g13
(g14
g15
NtRp647
(dp648
g18
I1
sg19
I0
sg20
I39
sg21
I0
sg22
I0
sg23
I29
sg24
I0
sbssg25
S'\xbd\x94\xffb;\xa88z\x13\xeezM[\x94x\xb4'
p649
ssS'_Library_Python_2_7_site-packages_django_core_management_commands___init__'
p650
(dp651
g6
(dp652
g8
S'_Library_Python_2_7_site-packages_django_core_management_commands___init__.html'
p653
sg10
S'/Library/Python/2.7/site-packages/django/core/management/commands/__init__'
p654
sg12
g13
(g14
g15
NtRp655
(dp656
g18
I1
sg19
I0
sg20
I0
sg21
I0
sg22
I0
sg23
I0
sg24
I0
sbssg25
S'\xb0\xc8pN\xaf>\xa0\xbaz\x144\xe0A9\xb8?'
p657
ssS'_Library_Python_2_7_site-packages_django_db_models_fields_related'
p658
(dp659
g6
(dp660
g8
S'_Library_Python_2_7_site-packages_django_db_models_fields_related.html'
p661
sg10
S'/Library/Python/2.7/site-packages/django/db/models/fields/related'
p662
sg12
g13
(g14
g15
NtRp663
(dp664
g18
I1
sg19
I0
sg20
I713
sg21
I0
sg22
I0
sg23
I608
sg24
I0
sbssg25
S'\xd5A\x95\xaf2\xd6w\xb2\x8a.\x86Z\x9d\xc7>Z'
p665
ssS'_Library_Python_2_7_site-packages_django_utils_numberformat'
p666
(dp667
g6
(dp668
g8
S'_Library_Python_2_7_site-packages_django_utils_numberformat.html'
p669
sg10
S'/Library/Python/2.7/site-packages/django/utils/numberformat'
p670
sg12
g13
(g14
g15
NtRp671
(dp672
g18
I1
sg19
I0
sg20
I31
sg21
I0
sg22
I0
sg23
I28
sg24
I0
sbssg25
S't\x93m\x81b\xf9\x03K\xc5\xb4a\xde\xfff \xd7'
p673
ssS'_Library_Python_2_7_site-packages_django_contrib___init__'
p674
(dp675
g6
(dp676
g8
S'_Library_Python_2_7_site-packages_django_contrib___init__.html'
p677
sg10
S'/Library/Python/2.7/site-packages/django/contrib/__init__'
p678
sg12
g13
(g14
g15
NtRp679
(dp680
g18
I1
sg19
I0
sg20
I0
sg21
I0
sg22
I0
sg23
I0
sg24
I0
sbssg25
S'\xb0\xc8pN\xaf>\xa0\xbaz\x144\xe0A9\xb8?'
p681
ssS'_Library_Python_2_7_site-packages_django_db_backends_postgresql_psycopg2_client'
p682
(dp683
g6
(dp684
g8
S'_Library_Python_2_7_site-packages_django_db_backends_postgresql_psycopg2_client.html'
p685
sg10
S'/Library/Python/2.7/site-packages/django/db/backends/postgresql_psycopg2/client'
p686
sg12
g13
(g14
g15
NtRp687
(dp688
g18
I1
sg19
I0
sg20
I18
sg21
I0
sg22
I0
sg23
I12
sg24
I0
sbssg25
S'\xaa[\x13W\x00\x11m\xb4\xd2717LZ\x00M'
p689
ssS'_Library_Python_2_7_site-packages_django_dispatch_dispatcher'
p690
(dp691
g6
(dp692
g8
S'_Library_Python_2_7_site-packages_django_dispatch_dispatcher.html'
p693
sg10
S'/Library/Python/2.7/site-packages/django/dispatch/dispatcher'
p694
sg12
g13
(g14
g15
NtRp695
(dp696
g18
I1
sg19
I0
sg20
I101
sg21
I0
sg22
I0
sg23
I62
sg24
I0
sbssg25
S'\xd7\xc1yZ~\x8d\x94o\xcc\xbf\x89&\xea\x9e\x0b\xb4'
p697
ssS'_Library_Python_2_7_site-packages_psycopg2___init__'
p698
(dp699
g6
(dp700
g8
S'_Library_Python_2_7_site-packages_psycopg2___init__.html'
p701
sg10
S'/Library/Python/2.7/site-packages/psycopg2/__init__'
p702
sg12
g13
(g14
g15
NtRp703
(dp704
g18
I1
sg19
I0
sg20
I60
sg21
I0
sg22
I0
sg23
I30
sg24
I0
sbssg25
S'\xde\xa8\x85\xbe$\x9e<\x1a\xfa\x92\xa1\x89f\x98\x94`'
p705
ssS'_Library_Python_2_7_site-packages_django_dispatch___init__'
p706
(dp707
g6
(dp708
g8
S'_Library_Python_2_7_site-packages_django_dispatch___init__.html'
p709
sg10
S'/Library/Python/2.7/site-packages/django/dispatch/__init__'
p710
sg12
g13
(g14
g15
NtRp711
(dp712
g18
I1
sg19
I0
sg20
I1
sg21
I0
sg22
I0
sg23
I0
sg24
I0
sbssg25
S'\xe9$\xa4\xf3k\xc7$G\xbe^\x9e5~A\x94\xd1'
p713
ssS'_Library_Python_2_7_site-packages_django_db_models_sql_datastructures'
p714
(dp715
g6
(dp716
g8
S'_Library_Python_2_7_site-packages_django_db_models_sql_datastructures.html'
p717
sg10
S'/Library/Python/2.7/site-packages/django/db/models/sql/datastructures'
p718
sg12
g13
(g14
g15
NtRp719
(dp720
g18
I1
sg19
I0
sg20
I25
sg21
I0
sg22
I0
sg23
I11
sg24
I0
sbssg25
S"\xab\x99\\\xa2\x90\x03\x16\xdf\xd8p\x82'\xa1\xd3\x8ct"
p721
ssS'_Library_Python_2_7_site-packages_django_utils_unittest___init__'
p722
(dp723
g6
(dp724
g8
S'_Library_Python_2_7_site-packages_django_utils_unittest___init__.html'
p725
sg10
S'/Library/Python/2.7/site-packages/django/utils/unittest/__init__'
p726
sg12
g13
(g14
g15
NtRp727
(dp728
g18
I1
sg19
I0
sg20
I23
sg21
I0
sg22
I0
sg23
I17
sg24
I0
sbssg25
S'\xccP\x9c\xf4\x9b(\x7f#1\xb9\xe3X7\xb4\xe6B'
p729
ssS'_Library_Python_2_7_site-packages_django_template_loaders___init__'
p730
(dp731
g6
(dp732
g8
S'_Library_Python_2_7_site-packages_django_template_loaders___init__.html'
p733
sg10
S'/Library/Python/2.7/site-packages/django/template/loaders/__init__'
p734
sg12
g13
(g14
g15
NtRp735
(dp736
g18
I1
sg19
I0
sg20
I0
sg21
I0
sg22
I0
sg23
I0
sg24
I0
sbssg25
S'\xb0\xc8pN\xaf>\xa0\xbaz\x144\xe0A9\xb8?'
p737
ssS'_Library_Python_2_7_site-packages_django_contrib_auth_signals'
p738
(dp739
g6
(dp740
g8
S'_Library_Python_2_7_site-packages_django_contrib_auth_signals.html'
p741
sg10
S'/Library/Python/2.7/site-packages/django/contrib/auth/signals'
p742
sg12
g13
(g14
g15
NtRp743
(dp744
g18
I1
sg19
I0
sg20
I3
sg21
I0
sg22
I0
sg23
I0
sg24
I0
sbssg25
S'\x13\x17\x85\x98\x81\r`\x1b~4\x04;\x16\x9b%L'
p745
ssS'_Library_Python_2_7_site-packages_django_utils_formats'
p746
(dp747
g6
(dp748
g8
S'_Library_Python_2_7_site-packages_django_utils_formats.html'
p749
sg10
S'/Library/Python/2.7/site-packages/django/utils/formats'
p750
sg12
g13
(g14
g15
NtRp751
(dp752
g18
I1
sg19
I0
sg20
I108
sg21
I0
sg22
I0
sg23
I86
sg24
I0
sbssg25
S'oL\xe7<\x94/\x9d\xff\xbe*\xbf_\x1b\xaf\xa4\xe6'
p753
ssS'_Library_Python_2_7_site-packages_django_utils_datastructures'
p754
(dp755
g6
(dp756
g8
S'_Library_Python_2_7_site-packages_django_utils_datastructures.html'
p757
sg10
S'/Library/Python/2.7/site-packages/django/utils/datastructures'
p758
sg12
g13
(g14
g15
NtRp759
(dp760
g18
I1
sg19
I0
sg20
I292
sg21
I0
sg22
I0
sg23
I189
sg24
I0
sbssg25
S'qiy\x99$\xde\xe1\xa8\xc5\x1f`\xf8\x0c\xed\xd6\xe2'
p761
ssS'_Library_Python_2_7_site-packages_django_db_models_sql_where'
p762
(dp763
g6
(dp764
g8
S'_Library_Python_2_7_site-packages_django_db_models_sql_where.html'
p765
sg10
S'/Library/Python/2.7/site-packages/django/db/models/sql/where'
p766
sg12
g13
(g14
g15
NtRp767
(dp768
g18
I1
sg19
I0
sg20
I198
sg21
I0
sg22
I0
sg23
I164
sg24
I0
sbssg25
S'\x8b\x86y\x06\x97\xfdJ\xc08\x1fqa\xf4{\xd3k'
p769
ssS'_Library_Python_2_7_site-packages_django_core_cache_backends_locmem'
p770
(dp771
g6
(dp772
g8
S'_Library_Python_2_7_site-packages_django_core_cache_backends_locmem.html'
p773
sg10
S'/Library/Python/2.7/site-packages/django/core/cache/backends/locmem'
p774
sg12
g13
(g14
g15
NtRp775
(dp776
g18
I1
sg19
I0
sg20
I120
sg21
I0
sg22
I0
sg23
I93
sg24
I0
sbssg25
S"*\x1f\x1f<\x8b\x1f\x18\xc9zxN\x18S\xa9'\x91"
p777
ssS'_Library_Python_2_7_site-packages_django_db_models_fields___init__'
p778
(dp779
g6
(dp780
g8
S'_Library_Python_2_7_site-packages_django_db_models_fields___init__.html'
p781
sg10
S'/Library/Python/2.7/site-packages/django/db/models/fields/__init__'
p782
sg12
g13
(g14
g15
NtRp783
(dp784
g18
I1
sg19
I0
sg20
I778
sg21
I0
sg22
I0
sg23
I515
sg24
I0
sbssg25
S'\xf4\xa8\x04\xb42\x179j\x9d\x96\xda\xe3\x90\x8aA@'
p785
ssS'_Library_Python_2_7_site-packages_django_utils_synch'
p786
(dp787
g6
(dp788
g8
S'_Library_Python_2_7_site-packages_django_utils_synch.html'
p789
sg10
S'/Library/Python/2.7/site-packages/django/utils/synch'
p790
sg12
g13
(g14
g15
NtRp791
(dp792
g18
I1
sg19
I0
sg20
I60
sg21
I0
sg22
I0
sg23
I41
sg24
I0
sbssg25
S'\xda\xed\xb8;\x18\xf0IL\xc7`[\xdd\xd9\xde\xb4e'
p793
ssS'_Library_Python_2_7_site-packages_django_core_handlers___init__'
p794
(dp795
g6
(dp796
g8
S'_Library_Python_2_7_site-packages_django_core_handlers___init__.html'
p797
sg10
S'/Library/Python/2.7/site-packages/django/core/handlers/__init__'
p798
sg12
g13
(g14
g15
NtRp799
(dp800
g18
I1
sg19
I0
sg20
I0
sg21
I0
sg22
I0
sg23
I0
sg24
I0
sbssg25
S'\xb0\xc8pN\xaf>\xa0\xbaz\x144\xe0A9\xb8?'
p801
ssS'_Library_Python_2_7_site-packages_django_utils_http'
p802
(dp803
g6
(dp804
g8
S'_Library_Python_2_7_site-packages_django_utils_http.html'
p805
sg10
S'/Library/Python/2.7/site-packages/django/utils/http'
p806
sg12
g13
(g14
g15
NtRp807
(dp808
g18
I1
sg19
I0
sg20
I115
sg21
I0
sg22
I0
sg23
I74
sg24
I0
sbssg25
S"\x81\x9f&\xec\x13\x05\x0b\xce\x99\x8a\xa4\x82'`\xf2\x9c"
p809
ssS'_Library_Python_2_7_site-packages_django_test_utils'
p810
(dp811
g6
(dp812
g8
S'_Library_Python_2_7_site-packages_django_test_utils.html'
p813
sg10
S'/Library/Python/2.7/site-packages/django/test/utils'
p814
sg12
g13
(g14
g15
NtRp815
(dp816
g18
I1
sg19
I0
sg20
I121
sg21
I0
sg22
I0
sg23
I80
sg24
I0
sbssg25
S"\xfb\xe9\x0c\xbdF}\xee\\\x853\xab\xfffOI'"
p817
ssS'_Library_Python_2_7_site-packages_django_utils_itercompat'
p818
(dp819
g6
(dp820
g8
S'_Library_Python_2_7_site-packages_django_utils_itercompat.html'
p821
sg10
S'/Library/Python/2.7/site-packages/django/utils/itercompat'
p822
sg12
g13
(g14
g15
NtRp823
(dp824
g18
I1
sg19
I0
sg20
I24
sg21
I0
sg22
I0
sg23
I15
sg24
I0
sbssg25
S'OXMhC\xbe8\xb9E{b\x17w\xbf\xa2~'
p825
ssS'_Library_Python_2_7_site-packages_django_db_models_loading'
p826
(dp827
g6
(dp828
g8
S'_Library_Python_2_7_site-packages_django_db_models_loading.html'
p829
sg10
S'/Library/Python/2.7/site-packages/django/db/models/loading'
p830
sg12
g13
(g14
g15
NtRp831
(dp832
g18
I1
sg19
I0
sg20
I119
sg21
I0
sg22
I0
sg23
I87
sg24
I0
sbssg25
S'BkAQ2\x86\x0eQ\xca\xfeT`]\x17\x8dL'
p833
ssS'_Library_Python_2_7_site-packages_django_conf_global_settings'
p834
(dp835
g6
(dp836
g8
S'_Library_Python_2_7_site-packages_django_conf_global_settings.html'
p837
sg10
S'/Library/Python/2.7/site-packages/django/conf/global_settings'
p838
sg12
g13
(g14
g15
NtRp839
(dp840
g18
I1
sg19
I0
sg20
I118
sg21
I0
sg22
I0
sg23
I0
sg24
I0
sbssg25
S'\xba\x06~\xde\x10?\xd3q\xeb#i&\x19H\xe2l'
p841
ssS'_Library_Python_2_7_site-packages_django_core_management_color'
p842
(dp843
g6
(dp844
g8
S'_Library_Python_2_7_site-packages_django_core_management_color.html'
p845
sg10
S'/Library/Python/2.7/site-packages/django/core/management/color'
p846
sg12
g13
(g14
g15
NtRp847
(dp848
g18
I1
sg19
I0
sg20
I28
sg21
I0
sg22
I0
sg23
I7
sg24
I0
sbssg25
S"\xed26d\x1b\xc1/\x1d\xbbY\xdc\x8aa'\x15\x8d"
p849
ssS'_Library_Python_2_7_site-packages_django_utils_dateparse'
p850
(dp851
g6
(dp852
g8
S'_Library_Python_2_7_site-packages_django_utils_dateparse.html'
p853
sg10
S'/Library/Python/2.7/site-packages/django/utils/dateparse'
p854
sg12
g13
(g14
g15
NtRp855
(dp856
g18
I1
sg19
I0
sg20
I37
sg21
I0
sg22
I0
sg23
I27
sg24
I0
sbssg25
S'\xf9]\xb0\xe3\xc6\x83\xc7\xfa\x95\x83<<\x8e0\xa2\x11'
p857
ssS'_Library_Python_2_7_site-packages_django_views___init__'
p858
(dp859
g6
(dp860
g8
S'_Library_Python_2_7_site-packages_django_views___init__.html'
p861
sg10
S'/Library/Python/2.7/site-packages/django/views/__init__'
p862
sg12
g13
(g14
g15
NtRp863
(dp864
g18
I1
sg19
I0
sg20
I0
sg21
I0
sg22
I0
sg23
I0
sg24
I0
sbssg25
S'\xb0\xc8pN\xaf>\xa0\xbaz\x144\xe0A9\xb8?'
p865
ssS'_Library_Python_2_7_site-packages_django_utils_module_loading'
p866
(dp867
g6
(dp868
g8
S'_Library_Python_2_7_site-packages_django_utils_module_loading.html'
p869
sg10
S'/Library/Python/2.7/site-packages/django/utils/module_loading'
p870
sg12
g13
(g14
g15
NtRp871
(dp872
g18
I1
sg19
I0
sg20
I48
sg21
I0
sg22
I0
sg23
I44
sg24
I0
sbssg25
S'\x81\xbe\xb4\xca\xff\xe8Z\x15]\x06\xfc\xf1\xc4\xd9\x9a;'
p873
ssS'_Library_Python_2_7_site-packages_django_core_handlers_wsgi'
p874
(dp875
g6
(dp876
g8
S'_Library_Python_2_7_site-packages_django_core_handlers_wsgi.html'
p877
sg10
S'/Library/Python/2.7/site-packages/django/core/handlers/wsgi'
p878
sg12
g13
(g14
g15
NtRp879
(dp880
g18
I1
sg19
I0
sg20
I142
sg21
I0
sg22
I0
sg23
I103
sg24
I0
sbssg25
S'\xa83\xcc]\xf1\xe5\xea,\xf9m+\xb2l\x89&V'
p881
ssS'_Library_Python_2_7_site-packages_django_core_management_commands_test'
p882
(dp883
g6
(dp884
g8
S'_Library_Python_2_7_site-packages_django_core_management_commands_test.html'
p885
sg10
S'/Library/Python/2.7/site-packages/django/core/management/commands/test'
p886
sg12
g13
(g14
g15
NtRp887
(dp888
g18
I1
sg19
I0
sg20
I37
sg21
I0
sg22
I0
sg23
I13
sg24
I0
sbssg25
S'\x0b\xcd\xa5\xb6\xe4\xde\xb9\xeaGaZ\xf7\xbe\x0ev\xdd'
p889
ssS'_Library_Python_2_7_site-packages_django_utils_dateformat'
p890
(dp891
g6
(dp892
g8
S'_Library_Python_2_7_site-packages_django_utils_dateformat.html'
p893
sg10
S'/Library/Python/2.7/site-packages/django/utils/dateformat'
p894
sg12
g13
(g14
g15
NtRp895
(dp896
g18
I1
sg19
I0
sg20
I179
sg21
I0
sg22
I0
sg23
I119
sg24
I0
sbssg25
S'\xdc\xcf>\x08@dl\xf9\xb7\x16\x8bmQ\x05\x80?'
p897
ssS'_Library_Python_2_7_site-packages_django_contrib_staticfiles_utils'
p898
(dp899
g6
(dp900
g8
S'_Library_Python_2_7_site-packages_django_contrib_staticfiles_utils.html'
p901
sg10
S'/Library/Python/2.7/site-packages/django/contrib/staticfiles/utils'
p902
sg12
g13
(g14
g15
NtRp903
(dp904
g18
I1
sg19
I0
sg20
I37
sg21
I0
sg22
I0
sg23
I30
sg24
I0
sbssg25
S'Q\x99\xe3\x98\xf4\xbc\tTg\xbc\xed\xbd\\\xf9Q\xdd'
p905
ssS'_Library_Python_2_7_site-packages_django_contrib_staticfiles_storage'
p906
(dp907
g6
(dp908
g8
S'_Library_Python_2_7_site-packages_django_contrib_staticfiles_storage.html'
p909
sg10
S'/Library/Python/2.7/site-packages/django/contrib/staticfiles/storage'
p910
sg12
g13
(g14
g15
NtRp911
(dp912
g18
I1
sg19
I0
sg20
I160
sg21
I0
sg22
I0
sg23
I123
sg24
I0
sbssg25
S'\xaa\r\x86\xab~\xed\x19m\xcd\x7f\xc7\xc9\xd2up\x99'
p913
ssS'_Library_Python_2_7_site-packages_dj_database_url'
p914
(dp915
g6
(dp916
g8
S'_Library_Python_2_7_site-packages_dj_database_url.html'
p917
sg10
S'/Library/Python/2.7/site-packages/dj_database_url'
p918
sg12
g13
(g14
g15
NtRp919
(dp920
g18
I1
sg19
I0
sg20
I28
sg21
I0
sg22
I0
sg23
I15
sg24
I0
sbssg25
S'\xdd\xd7\xce\xa7\xb2\x1b\xe3zmb\xa2(\x13x\xc9\xba'
p921
ssS'carpool_settings'
p922
(dp923
g6
(dp924
g8
S'carpool_settings.html'
p925
sg10
S'carpool/settings'
p926
sg12
g13
(g14
g15
NtRp927
(dp928
g18
I1
sg19
I0
sg20
I33
sg21
I0
sg22
I0
sg23
I0
sg24
I0
sbssg25
S'\x1f%\xb3N\xfa\xad\x9fN\x91\x0e\x07B/K\xb6C'
p929
ssS'_Library_Python_2_7_site-packages_django_db_models_fields_files'
p930
(dp931
g6
(dp932
g8
S'_Library_Python_2_7_site-packages_django_db_models_fields_files.html'
p933
sg10
S'/Library/Python/2.7/site-packages/django/db/models/fields/files'
p934
sg12
g13
(g14
g15
NtRp935
(dp936
g18
I1
sg19
I0
sg20
I203
sg21
I0
sg22
I0
sg23
I136
sg24
I0
sbssg25
S'\xf4\xb4\x1e?\xfe\x16\xa2[\xe6\x86\xd1\x06\xc4\xd8\x1cn'
p937
ssS'_Library_Python_2_7_site-packages_django_http___init__'
p938
(dp939
g6
(dp940
g8
S'_Library_Python_2_7_site-packages_django_http___init__.html'
p941
sg10
S'/Library/Python/2.7/site-packages/django/http/__init__'
p942
sg12
g13
(g14
g15
NtRp943
(dp944
g18
I1
sg19
I0
sg20
I496
sg21
I0
sg22
I0
sg23
I337
sg24
I0
sbssg25
S'\x90\xe6\x84\xc5\n.\xbd\xe07\x8bEF\xb5d;>'
p945
ssS'_Library_Python_2_7_site-packages_django_core_validators'
p946
(dp947
g6
(dp948
g8
S'_Library_Python_2_7_site-packages_django_core_validators.html'
p949
sg10
S'/Library/Python/2.7/site-packages/django/core/validators'
p950
sg12
g13
(g14
g15
NtRp951
(dp952
g18
I1
sg19
I0
sg20
I157
sg21
I0
sg22
I0
sg23
I87
sg24
I0
sbssg25
S'\x1at\xd0x%\xee\xb3\xdc5`\xe1\x8a\x94\x95_b'
p953
ssS'_Library_Python_2_7_site-packages_django_core_urlresolvers'
p954
(dp955
g6
(dp956
g8
S'_Library_Python_2_7_site-packages_django_core_urlresolvers.html'
p957
sg10
S'/Library/Python/2.7/site-packages/django/core/urlresolvers'
p958
sg12
g13
(g14
g15
NtRp959
(dp960
g18
I1
sg19
I0
sg20
I339
sg21
I0
sg22
I0
sg23
I269
sg24
I0
sbssg25
S'\n\xe9\xc0\x1f\x92Y\xa4\xbb\xb7\xdc!/\x03\xfdZ%'
p961
ssS'_Library_Python_2_7_site-packages_django_forms_forms'
p962
(dp963
g6
(dp964
g8
S'_Library_Python_2_7_site-packages_django_forms_forms.html'
p965
sg10
S'/Library/Python/2.7/site-packages/django/forms/forms'
p966
sg12
g13
(g14
g15
NtRp967
(dp968
g18
I1
sg19
I0
sg20
I280
sg21
I0
sg22
I0
sg23
I196
sg24
I0
sbssg25
S'\x140\xadHhu71\x9e$\xd4\x11\xc0e\tC'
p969
ssS'_Library_Python_2_7_site-packages_django_core_management_base'
p970
(dp971
g6
(dp972
g8
S'_Library_Python_2_7_site-packages_django_core_management_base.html'
p973
sg10
S'/Library/Python/2.7/site-packages/django/core/management/base'
p974
sg12
g13
(g14
g15
NtRp975
(dp976
g18
I1
sg19
I0
sg20
I133
sg21
I0
sg22
I0
sg23
I83
sg24
I0
sbssg25
S'\x14\x0e\xce\x00\xe17\x06O^\x06\xff\xb18\x18\xc9\xfc'
p977
ssS'_Library_Python_2_7_site-packages_django_core_files_storage'
p978
(dp979
g6
(dp980
g8
S'_Library_Python_2_7_site-packages_django_core_files_storage.html'
p981
sg10
S'/Library/Python/2.7/site-packages/django/core/files/storage'
p982
sg12
g13
(g14
g15
NtRp983
(dp984
g18
I1
sg19
I0
sg20
I150
sg21
I0
sg22
I0
sg23
I104
sg24
I0
sbssg25
S'G\xe6\x06\xdc\xdb#\xe2EAMn~]\x1d\xe8\xb8'
p985
ssS'_Library_Python_2_7_site-packages_django_db_models___init__'
p986
(dp987
g6
(dp988
g8
S'_Library_Python_2_7_site-packages_django_db_models___init__.html'
p989
sg10
S'/Library/Python/2.7/site-packages/django/db/models/__init__'
p990
sg12
g13
(g14
g15
NtRp991
(dp992
g18
I1
sg19
I0
sg20
I23
sg21
I0
sg22
I0
sg23
I5
sg24
I0
sbssg25
S'B\xac\xe1\xdaQ\x957k\x0e\xba`\x9f\xd0\xa2\xd87'
p993
ssS'_Library_Python_2_7_site-packages_django_forms_fields'
p994
(dp995
g6
(dp996
g8
S'_Library_Python_2_7_site-packages_django_forms_fields.html'
p997
sg10
S'/Library/Python/2.7/site-packages/django/forms/fields'
p998
sg12
g13
(g14
g15
NtRp999
(dp1000
g18
I1
sg19
I0
sg20
I585
sg21
I0
sg22
I0
sg23
I430
sg24
I0
sbssg25
S'\x16&\xac|\x89\xb44\xc2\x1et\xd7\xe3\xea\r+_'
p1001
ssS'_Library_Python_2_7_site-packages_django_utils__os'
p1002
(dp1003
g6
(dp1004
g8
S'_Library_Python_2_7_site-packages_django_utils__os.html'
p1005
sg10
S'/Library/Python/2.7/site-packages/django/utils/_os'
p1006
sg12
g13
(g14
g15
NtRp1007
(dp1008
g18
I1
sg19
I0
sg20
I32
sg21
I0
sg22
I0
sg23
I19
sg24
I0
sbssg25
S'\x00\x87*\xe1Z\xd9w\xa9\xefK\xab/\xb8P4\xe7'
p1009
ssS'_Library_Python_2_7_site-packages_django_utils_html'
p1010
(dp1011
g6
(dp1012
g8
S'_Library_Python_2_7_site-packages_django_utils_html.html'
p1013
sg10
S'/Library/Python/2.7/site-packages/django/utils/html'
p1014
sg12
g13
(g14
g15
NtRp1015
(dp1016
g18
I1
sg19
I0
sg20
I133
sg21
I0
sg22
I0
sg23
I89
sg24
I0
sbssg25
S'\x16y \nh\x14<P\x87\x1b0\x11\xeeh]\xec'
p1017
ssS'_Library_Python_2_7_site-packages_django_utils_crypto'
p1018
(dp1019
g6
(dp1020
g8
S'_Library_Python_2_7_site-packages_django_utils_crypto.html'
p1021
sg10
S'/Library/Python/2.7/site-packages/django/utils/crypto'
p1022
sg12
g13
(g14
g15
NtRp1023
(dp1024
g18
I1
sg19
I0
sg20
I68
sg21
I0
sg22
I0
sg23
I48
sg24
I0
sbssg25
S'\xa3\xc5}l\x04ww\x01\xe1\xf0$\xbc\x1dW\xe7\x06'
p1025
ssS'_Library_Python_2_7_site-packages_django_core_handlers_base'
p1026
(dp1027
g6
(dp1028
g8
S'_Library_Python_2_7_site-packages_django_core_handlers_base.html'
p1029
sg10
S'/Library/Python/2.7/site-packages/django/core/handlers/base'
p1030
sg12
g13
(g14
g15
NtRp1031
(dp1032
g18
I1
sg19
I0
sg20
I151
sg21
I0
sg22
I0
sg23
I136
sg24
I0
sbssg25
S'\xdad\xee\x14\x17\x9bxc\xbc\xbd@:}Z\x18\xe1'
p1033
ssS'_Library_Python_2_7_site-packages_django_core_files___init__'
p1034
(dp1035
g6
(dp1036
g8
S'_Library_Python_2_7_site-packages_django_core_files___init__.html'
p1037
sg10
S'/Library/Python/2.7/site-packages/django/core/files/__init__'
p1038
sg12
g13
(g14
g15
NtRp1039
(dp1040
g18
I1
sg19
I0
sg20
I1
sg21
I0
sg22
I0
sg23
I0
sg24
I0
sbssg25
S"\xa1\xbfiA'\x85B\x1e\xd8\xe0\x91\xe3\xf7\x86\x81\xb2"
p1041
ssS'_Library_Python_2_7_site-packages_django_db_models_base'
p1042
(dp1043
g6
(dp1044
g8
S'_Library_Python_2_7_site-packages_django_db_models_base.html'
p1045
sg10
S'/Library/Python/2.7/site-packages/django/db/models/base'
p1046
sg12
g13
(g14
g15
NtRp1047
(dp1048
g18
I1
sg19
I0
sg20
I501
sg21
I0
sg22
I0
sg23
I427
sg24
I0
sbssg25
S'\x95\xe0\xdf\x10\x9bZ\xa7\x166|\x8f_\xac|\xa8v'
p1049
ssS'_Library_Python_2_7_site-packages_django_template_defaultfilters'
p1050
(dp1051
g6
(dp1052
g8
S'_Library_Python_2_7_site-packages_django_template_defaultfilters.html'
p1053
sg10
S'/Library/Python/2.7/site-packages/django/template/defaultfilters'
p1054
sg12
g13
(g14
g15
NtRp1055
(dp1056
g18
I1
sg19
I0
sg20
I457
sg21
I0
sg22
I0
sg23
I326
sg24
I0
sbssg25
S'\xb8\xee\x1e9\xb8a\x93\xb8\xec\xec\xd2\x124A\xc8&'
p1057
ssS'_Library_Python_2_7_site-packages_django_test___init__'
p1058
(dp1059
g6
(dp1060
g8
S'_Library_Python_2_7_site-packages_django_test___init__.html'
p1061
sg10
S'/Library/Python/2.7/site-packages/django/test/__init__'
p1062
sg12
g13
(g14
g15
NtRp1063
(dp1064
g18
I1
sg19
I0
sg20
I3
sg21
I0
sg22
I0
sg23
I0
sg24
I0
sbssg25
S'~\xbeB^\xffy\x92\x8f\x9e\xd7\xdc\xd8\xa1\xe5\xe0\x03'
p1065
ssS'_Library_Python_2_7_site-packages_django_test_signals'
p1066
(dp1067
g6
(dp1068
g8
S'_Library_Python_2_7_site-packages_django_test_signals.html'
p1069
sg10
S'/Library/Python/2.7/site-packages/django/test/signals'
p1070
sg12
g13
(g14
g15
NtRp1071
(dp1072
g18
I1
sg19
I0
sg20
I17
sg21
I0
sg22
I0
sg23
I10
sg24
I0
sbssg25
S'6\xfb\xb9q?8\xcb\x90\x15G}\x9b\x9b\x8d\x82\x9d'
p1073
ssS'_Library_Python_2_7_site-packages_django_db_models_fields_subclassing'
p1074
(dp1075
g6
(dp1076
g8
S'_Library_Python_2_7_site-packages_django_db_models_fields_subclassing.html'
p1077
sg10
S'/Library/Python/2.7/site-packages/django/db/models/fields/subclassing'
p1078
sg12
g13
(g14
g15
NtRp1079
(dp1080
g18
I1
sg19
I0
sg20
I21
sg21
I0
sg22
I0
sg23
I14
sg24
I0
sbssg25
S'\x94\xfa\xe1\x9f\xf6\xcb\xa6\xb1N\xc5v\xa4\xcb\x9e\xd0n'
p1081
ssS'_Library_Python_2_7_site-packages_django_core_wsgi'
p1082
(dp1083
g6
(dp1084
g8
S'_Library_Python_2_7_site-packages_django_core_wsgi.html'
p1085
sg10
S'/Library/Python/2.7/site-packages/django/core/wsgi'
p1086
sg12
g13
(g14
g15
NtRp1087
(dp1088
g18
I1
sg19
I0
sg20
I3
sg21
I0
sg22
I0
sg23
I1
sg24
I0
sbssg25
S' \x0e\x1b\xd1D\xd0\x13<c\x84?v\xdf\xd1\xf8\x84'
p1089
ssS'_Library_Python_2_7_site-packages_django_test_testcases'
p1090
(dp1091
g6
(dp1092
g8
S'_Library_Python_2_7_site-packages_django_test_testcases.html'
p1093
sg10
S'/Library/Python/2.7/site-packages/django/test/testcases'
p1094
sg12
g13
(g14
g15
NtRp1095
(dp1096
g18
I1
sg19
I0
sg20
I583
sg21
I0
sg22
I0
sg23
I456
sg24
I0
sbssg25
S'\xe0\xb8]0>\xf2\x13@\xaf\xc3\xf4.vl[\xd3'
p1097
ssS'_Library_Python_2_7_site-packages_django_contrib_staticfiles___init__'
p1098
(dp1099
g6
(dp1100
g8
S'_Library_Python_2_7_site-packages_django_contrib_staticfiles___init__.html'
p1101
sg10
S'/Library/Python/2.7/site-packages/django/contrib/staticfiles/__init__'
p1102
sg12
g13
(g14
g15
NtRp1103
(dp1104
g18
I1
sg19
I0
sg20
I0
sg21
I0
sg22
I0
sg23
I0
sg24
I0
sbssg25
S'\xb0\xc8pN\xaf>\xa0\xbaz\x144\xe0A9\xb8?'
p1105
ssS'_Library_Python_2_7_site-packages_django_utils_regex_helper'
p1106
(dp1107
g6
(dp1108
g8
S'_Library_Python_2_7_site-packages_django_utils_regex_helper.html'
p1109
sg10
S'/Library/Python/2.7/site-packages/django/utils/regex_helper'
p1110
sg12
g13
(g14
g15
NtRp1111
(dp1112
g18
I1
sg19
I0
sg20
I185
sg21
I0
sg22
I0
sg23
I175
sg24
I0
sbssg25
S'2\x17q\n3`<\x0f\xce\x8az\xb4\xd1\xc7s7'
p1113
ssS'_Library_Python_2_7_site-packages_django_core_mail_utils'
p1114
(dp1115
g6
(dp1116
g8
S'_Library_Python_2_7_site-packages_django_core_mail_utils.html'
p1117
sg10
S'/Library/Python/2.7/site-packages/django/core/mail/utils'
p1118
sg12
g13
(g14
g15
NtRp1119
(dp1120
g18
I1
sg19
I0
sg20
I9
sg21
I0
sg22
I0
sg23
I4
sg24
I0
sbssg25
S'q\x8f\x86\xa8\x10\xa1\x04\x98^\x0e\xe8\x93\xb7X\xaan'
p1121
ssS'_Library_Python_2_7_site-packages_django_utils_importlib'
p1122
(dp1123
g6
(dp1124
g8
S'_Library_Python_2_7_site-packages_django_utils_importlib.html'
p1125
sg10
S'/Library/Python/2.7/site-packages/django/utils/importlib'
p1126
sg12
g13
(g14
g15
NtRp1127
(dp1128
g18
I1
sg19
I0
sg20
I23
sg21
I0
sg22
I0
sg23
I6
sg24
I0
sbssg25
S'\xba\x10A\xccg\xac\xd0\xe2\xb9QBQ3\x8d\xc0\x01'
p1129
ssS'_Library_Python_2_7_site-packages_django_utils_unittest_util'
p1130
(dp1131
g6
(dp1132
g8
S'_Library_Python_2_7_site-packages_django_utils_unittest_util.html'
p1133
sg10
S'/Library/Python/2.7/site-packages/django/utils/unittest/util'
p1134
sg12
g13
(g14
g15
NtRp1135
(dp1136
g18
I1
sg19
I0
sg20
I74
sg21
I0
sg22
I0
sg23
I67
sg24
I0
sbssg25
S'\xb2x_,\x84YY\x16\x91\xcb5(\xe8\x1c<\t'
p1137
ssS'_Library_Python_2_7_site-packages_django_db_backends_postgresql_psycopg2_base'
p1138
(dp1139
g6
(dp1140
g8
S'_Library_Python_2_7_site-packages_django_db_backends_postgresql_psycopg2_base.html'
p1141
sg10
S'/Library/Python/2.7/site-packages/django/db/backends/postgresql_psycopg2/base'
p1142
sg12
g13
(g14
g15
NtRp1143
(dp1144
g18
I1
sg19
I0
sg20
I154
sg21
I0
sg22
I0
sg23
I84
sg24
I0
sbssg25
S'\xc4U\xc7Q\xc6\xfe\xa8J#\r\x92\xb1\xfb\xc7\x08]'
p1145
ssS'_Library_Python_2_7_site-packages_django_contrib_staticfiles_views'
p1146
(dp1147
g6
(dp1148
g8
S'_Library_Python_2_7_site-packages_django_contrib_staticfiles_views.html'
p1149
sg10
S'/Library/Python/2.7/site-packages/django/contrib/staticfiles/views'
p1150
sg12
g13
(g14
g15
NtRp1151
(dp1152
g18
I1
sg19
I0
sg20
I19
sg21
I0
sg22
I0
sg23
I10
sg24
I0
sbssg25
S'Vs\xc8u\t8L5\x1d\x00\x8b\x0c&\xbd  '
p1153
ssS'_Library_Python_2_7_site-packages_django_db_backends_postgresql_psycopg2_introspection'
p1154
(dp1155
g6
(dp1156
g8
S'_Library_Python_2_7_site-packages_django_db_backends_postgresql_psycopg2_introspection.html'
p1157
sg10
S'/Library/Python/2.7/site-packages/django/db/backends/postgresql_psycopg2/introspection'
p1158
sg12
g13
(g14
g15
NtRp1159
(dp1160
g18
I1
sg19
I0
sg20
I25
sg21
I0
sg22
I0
sg23
I18
sg24
I0
sbssg25
S'\xeb\xa6\xc1OTO\xc2\x17\xbc\xbb\x98\xb5\xf2\xcfs\xfe'
p1161
ssS'_Library_Python_2_7_site-packages_django_template_defaulttags'
p1162
(dp1163
g6
(dp1164
g8
S'_Library_Python_2_7_site-packages_django_template_defaulttags.html'
p1165
sg10
S'/Library/Python/2.7/site-packages/django/template/defaulttags'
p1166
sg12
g13
(g14
g15
NtRp1167
(dp1168
g18
I1
sg19
I0
sg20
I613
sg21
I0
sg22
I0
sg23
I502
sg24
I0
sbssg25
S'g\xf1\x83\xf1&T\x08e2f\x06\xb2*A@\x87'
p1169
ssS'_Library_Python_2_7_site-packages_psycopg2_tz'
p1170
(dp1171
g6
(dp1172
g8
S'_Library_Python_2_7_site-packages_psycopg2_tz.html'
p1173
sg10
S'/Library/Python/2.7/site-packages/psycopg2/tz'
p1174
sg12
g13
(g14
g15
NtRp1175
(dp1176
g18
I1
sg19
I0
sg20
I61
sg21
I0
sg22
I0
sg23
I37
sg24
I0
sbssg25
S'\x8a\x91&\x8c\x99\xa5\xaa|k3l\xbe(\xb4\xfe8'
p1177
ssS'_Library_Python_2_7_site-packages_django_contrib_staticfiles_handlers'
p1178
(dp1179
g6
(dp1180
g8
S'_Library_Python_2_7_site-packages_django_contrib_staticfiles_handlers.html'
p1181
sg10
S'/Library/Python/2.7/site-packages/django/contrib/staticfiles/handlers'
p1182
sg12
g13
(g14
g15
NtRp1183
(dp1184
g18
I1
sg19
I0
sg20
I40
sg21
I0
sg22
I0
sg23
I25
sg24
I0
sbssg25
S'\xc9\xf1t\x83\xcf\x01k\x14\x7f1\xa8\xd7,\xaf\xb3}'
p1185
ssS'_Library_Python_2_7_site-packages_django_db_backends_postgresql_psycopg2_creation'
p1186
(dp1187
g6
(dp1188
g8
S'_Library_Python_2_7_site-packages_django_db_backends_postgresql_psycopg2_creation.html'
p1189
sg10
S'/Library/Python/2.7/site-packages/django/db/backends/postgresql_psycopg2/creation'
p1190
sg12
g13
(g14
g15
NtRp1191
(dp1192
g18
I1
sg19
I0
sg20
I35
sg21
I0
sg22
I0
sg23
I26
sg24
I0
sbssg25
S'Q0\xd6 \x85I\xdfn\xdf;\xd1\xea\n\xda$3'
p1193
ssS'_Library_Python_2_7_site-packages_django_db_backends_creation'
p1194
(dp1195
g6
(dp1196
g8
S'_Library_Python_2_7_site-packages_django_db_backends_creation.html'
p1197
sg10
S'/Library/Python/2.7/site-packages/django/db/backends/creation'
p1198
sg12
g13
(g14
g15
NtRp1199
(dp1200
g18
I1
sg19
I0
sg20
I212
sg21
I0
sg22
I0
sg23
I186
sg24
I0
sbssg25
S'w\r\x04&/L>\xd8[\xf1\xa4s\xd4\xbb`\xd0'
p1201
ssS'_Library_Python_2_7_site-packages_django_core_mail_message'
p1202
(dp1203
g6
(dp1204
g8
S'_Library_Python_2_7_site-packages_django_core_mail_message.html'
p1205
sg10
S'/Library/Python/2.7/site-packages/django/core/mail/message'
p1206
sg12
g13
(g14
g15
NtRp1207
(dp1208
g18
I1
sg19
I0
sg20
I210
sg21
I0
sg22
I0
sg23
I157
sg24
I0
sbssg25
S'\x05\xd4\xb5\xcf/\xd7O 6\xd2\x14\xcfYa\x0eS'
p1209
ssS'_Library_Python_2_7_site-packages_django_core_cache_backends___init__'
p1210
(dp1211
g6
(dp1212
g8
S'_Library_Python_2_7_site-packages_django_core_cache_backends___init__.html'
p1213
sg10
S'/Library/Python/2.7/site-packages/django/core/cache/backends/__init__'
p1214
sg12
g13
(g14
g15
NtRp1215
(dp1216
g18
I1
sg19
I0
sg20
I0
sg21
I0
sg22
I0
sg23
I0
sg24
I0
sbssg25
S'\xb0\xc8pN\xaf>\xa0\xbaz\x144\xe0A9\xb8?'
p1217
ssS'_Library_Python_2_7_site-packages_django_utils_translation_trans_real'
p1218
(dp1219
g6
(dp1220
g8
S'_Library_Python_2_7_site-packages_django_utils_translation_trans_real.html'
p1221
sg10
S'/Library/Python/2.7/site-packages/django/utils/translation/trans_real'
p1222
sg12
g13
(g14
g15
NtRp1223
(dp1224
g18
I1
sg19
I0
sg20
I365
sg21
I0
sg22
I0
sg23
I307
sg24
I0
sbssg25
S'\x8b\x9cR\xfe\r\x81O~\xa8\xb6+\xe2b\xae\x96\x0e'
p1225
ssS'_Library_Python_2_7_site-packages_django_core_exceptions'
p1226
(dp1227
g6
(dp1228
g8
S'_Library_Python_2_7_site-packages_django_core_exceptions.html'
p1229
sg10
S'/Library/Python/2.7/site-packages/django/core/exceptions'
p1230
sg12
g13
(g14
g15
NtRp1231
(dp1232
g18
I1
sg19
I0
sg20
I48
sg21
I0
sg22
I0
sg23
I24
sg24
I0
sbssg25
S'a\xe3\xad\nKH\xdek\xda\xd5\x03\x9fP\x15\xc6\xc6'
p1233
ssS'_Library_Python_2_7_site-packages_django_core_files_uploadedfile'
p1234
(dp1235
g6
(dp1236
g8
S'_Library_Python_2_7_site-packages_django_core_files_uploadedfile.html'
p1237
sg10
S'/Library/Python/2.7/site-packages/django/core/files/uploadedfile'
p1238
sg12
g13
(g14
g15
NtRp1239
(dp1240
g18
I1
sg19
I0
sg20
I63
sg21
I0
sg22
I0
sg23
I34
sg24
I0
sbssg25
S'yv\x0b\xbdw\xa4\xc6\xdf\xafC\xedY\xae\xd2\xc2\xda'
p1241
ssS'_Library_Python_2_7_site-packages_django_core_files_locks'
p1242
(dp1243
g6
(dp1244
g8
S'_Library_Python_2_7_site-packages_django_core_files_locks.html'
p1245
sg10
S'/Library/Python/2.7/site-packages/django/core/files/locks'
p1246
sg12
g13
(g14
g15
NtRp1247
(dp1248
g18
I1
sg19
I0
sg20
I40
sg21
I0
sg22
I0
sg23
I23
sg24
I0
sbssg25
S'\x18\xad\x19x\x91p\n\x1a\x14\xf5\x00\xd2\xaf\xb8\xfa\xc5'
p1249
ssS'_Library_Python_2_7_site-packages_django_db_models_signals'
p1250
(dp1251
g6
(dp1252
g8
S'_Library_Python_2_7_site-packages_django_db_models_signals.html'
p1253
sg10
S'/Library/Python/2.7/site-packages/django/db/models/signals'
p1254
sg12
g13
(g14
g15
NtRp1255
(dp1256
g18
I1
sg19
I0
sg20
I10
sg21
I0
sg22
I0
sg23
I0
sg24
I0
sbssg25
S'\xe2\x06\xfb\xdd\xac\xd4\xb2\xf8\\\x98T_\xb1W-\x19'
p1257
ssS'_Library_Python_2_7_site-packages_django_db_backends_postgresql_psycopg2_operations'
p1258
(dp1259
g6
(dp1260
g8
S'_Library_Python_2_7_site-packages_django_db_backends_postgresql_psycopg2_operations.html'
p1261
sg10
S'/Library/Python/2.7/site-packages/django/db/backends/postgresql_psycopg2/operations'
p1262
sg12
g13
(g14
g15
NtRp1263
(dp1264
g18
I1
sg19
I0
sg20
I99
sg21
I0
sg22
I0
sg23
I72
sg24
I0
sbssg25
S'<\xe7\xd6b\xe3)%\x00s}\xe8\xaf\x10r\xf2A'
p1265
ssS'_Library_Python_2_7_site-packages_django_utils_ipv6'
p1266
(dp1267
g6
(dp1268
g8
S'_Library_Python_2_7_site-packages_django_utils_ipv6.html'
p1269
sg10
S'/Library/Python/2.7/site-packages/django/utils/ipv6'
p1270
sg12
g13
(g14
g15
NtRp1271
(dp1272
g18
I1
sg19
I0
sg20
I107
sg21
I0
sg22
I0
sg23
I100
sg24
I0
sbssg25
S'J^YM\xe4\x01\xa3\xee\xad\x9chj"c\x15~'
p1273
ssS'_Library_Python_2_7_site-packages_pytz_exceptions'
p1274
(dp1275
g6
(dp1276
g8
S'_Library_Python_2_7_site-packages_pytz_exceptions.html'
p1277
sg10
S'/Library/Python/2.7/site-packages/pytz/exceptions'
p1278
sg12
g13
(g14
g15
NtRp1279
(dp1280
g18
I1
sg19
I0
sg20
I6
sg21
I0
sg22
I0
sg23
I0
sg24
I0
sbssg25
S'\xca\xbadT#j\x8b\xb1Q\x18(s\xf5>\x99\xe1'
p1281
ssS'_Library_Python_2_7_site-packages_django_db_models_query_utils'
p1282
(dp1283
g6
(dp1284
g8
S'_Library_Python_2_7_site-packages_django_db_models_query_utils.html'
p1285
sg10
S'/Library/Python/2.7/site-packages/django/db/models/query_utils'
p1286
sg12
g13
(g14
g15
NtRp1287
(dp1288
g18
I1
sg19
I0
sg20
I78
sg21
I0
sg22
I0
sg23
I54
sg24
I0
sbssg25
S'\xef\x0bM\xa9V\xc0\x1d\x9b\xe6\x0f\xcb\x98b\xd4\xa1\x9e'
p1289
ssS'_Library_Python_2_7_site-packages_django_core_mail___init__'
p1290
(dp1291
g6
(dp1292
g8
S'_Library_Python_2_7_site-packages_django_core_mail___init__.html'
p1293
sg10
S'/Library/Python/2.7/site-packages/django/core/mail/__init__'
p1294
sg12
g13
(g14
g15
NtRp1295
(dp1296
g18
I1
sg19
I0
sg20
I38
sg21
I0
sg22
I0
sg23
I28
sg24
I0
sbssg25
S'-\x89\xe2MN\xf5\x8f\xb6\x13\x12\x0c\xa7V\xa2#\xa2'
p1297
ssS'_Library_Python_2_7_site-packages_django_utils_log'
p1298
(dp1299
g6
(dp1300
g8
S'_Library_Python_2_7_site-packages_django_utils_log.html'
p1301
sg10
S'/Library/Python/2.7/site-packages/django/utils/log'
p1302
sg12
g13
(g14
g15
NtRp1303
(dp1304
g18
I1
sg19
I0
sg20
I56
sg21
I0
sg22
I0
sg23
I32
sg24
I0
sbssg25
S'[\xb7U\xe3<\xd4\x88\x90wQ^\x06y%\xb8K'
p1305
ssS'_Library_Python_2_7_site-packages_django_core_files_uploadhandler'
p1306
(dp1307
g6
(dp1308
g8
S'_Library_Python_2_7_site-packages_django_core_files_uploadhandler.html'
p1309
sg10
S'/Library/Python/2.7/site-packages/django/core/files/uploadhandler'
p1310
sg12
g13
(g14
g15
NtRp1311
(dp1312
g18
I1
sg19
I0
sg20
I89
sg21
I0
sg22
I0
sg23
I54
sg24
I0
sbssg25
S'\xd7\x85G\xd1\xdc3<\xf5\xe9\xd6UF?\xc2\x90\xde'
p1313
ssS'_Library_Python_2_7_site-packages_django_http_multipartparser'
p1314
(dp1315
g6
(dp1316
g8
S'_Library_Python_2_7_site-packages_django_http_multipartparser.html'
p1317
sg10
S'/Library/Python/2.7/site-packages/django/http/multipartparser'
p1318
sg12
g13
(g14
g15
NtRp1319
(dp1320
g18
I1
sg19
I0
sg20
I337
sg21
I0
sg22
I0
sg23
I288
sg24
I0
sbssg25
S'\xd2\xb9 \x03\xe5*`\xbd*\x88\xd9I\x92\xb4~\xbb'
p1321
ssS'_Library_Python_2_7_site-packages_pytz_tzinfo'
p1322
(dp1323
g6
(dp1324
g8
S'_Library_Python_2_7_site-packages_pytz_tzinfo.html'
p1325
sg10
S'/Library/Python/2.7/site-packages/pytz/tzinfo'
p1326
sg12
g13
(g14
g15
NtRp1327
(dp1328
g18
I1
sg19
I0
sg20
I178
sg21
I0
sg22
I0
sg23
I126
sg24
I0
sbssg25
S'\x13?.l\xa4jm\x15\x13\xa28\x92-\xe8\xf07'
p1329
ssS'_Library_Python_2_7_site-packages_django_core_servers_basehttp'
p1330
(dp1331
g6
(dp1332
g8
S'_Library_Python_2_7_site-packages_django_core_servers_basehttp.html'
p1333
sg10
S'/Library/Python/2.7/site-packages/django/core/servers/basehttp'
p1334
sg12
g13
(g14
g15
NtRp1335
(dp1336
g18
I1
sg19
I0
sg20
I142
sg21
I0
sg22
I0
sg23
I103
sg24
I0
sbssg25
S'\xdc\x86;\x06\x84B\xf8\xf4\xb2-F\xf8\x7f\x05\xcb\xf0'
p1337
ssS'_Library_Python_2_7_site-packages_django_db_models_expressions'
p1338
(dp1339
g6
(dp1340
g8
S'_Library_Python_2_7_site-packages_django_db_models_expressions.html'
p1341
sg10
S'/Library/Python/2.7/site-packages/django/db/models/expressions'
p1342
sg12
g13
(g14
g15
NtRp1343
(dp1344
g18
I1
sg19
I0
sg20
I80
sg21
I0
sg22
I0
sg23
I43
sg24
I0
sbssg25
S'mo\x1e\x15\xa0\xc1\x8a\x13\xf7\xaen\x81\xfc_\x0e\xa5'
p1345
sssS'version'
p1346
S'3.6'
p1347
sS'settings'
p1348
S"\xe2B\xd2\xe6\x82\xec,C*\x16\x85\xbf\x84\x08\xb6'"
p1349
sS'format'
p1350
I1
s.